# mark_description "Intel(R) C++ Intel(R) 64 Compiler for applications running on Intel(R) 64, Version 16.0.3.210 Build 20160415";
# mark_description "";
# mark_description "-I/home/hpc/unrz/unrz002h/yask/yaskSite/include -DyaskSite_EXPORTS -isystem /apps/intel/mpi/5.1.3.210/intel6";
# mark_description "4/include -qopenmp -fPIC -std=c++0x -Wall -Wextra -Werror -pedantic -Wunused-variable -save-temps -fsource-a";
# mark_description "sm -w3 -wd981 -wd383 -fPIC -o CMakeFiles/yaskSite.dir/src/yaskSite.cpp.o -c";
	.file "yaskSite.cpp"
	.text
..TXTST0:
# -- Begin  _ZN8yaskSiteC2EP11MPI_ManagerPciiiiS2_b
	.text
# mark_begin;
       .align    16,0x90
	.globl _ZN8yaskSiteC2EP11MPI_ManagerPciiiiS2_b
# --- yaskSite::yaskSite(yaskSite *const, MPI_Manager *, char *, int, int, int, int, char *, bool)
_ZN8yaskSiteC2EP11MPI_ManagerPciiiiS2_b:
# parameter 1: %rdi
# parameter 2: %rsi
# parameter 3: %rdx
# parameter 4: %ecx
# parameter 5: %r8d
# parameter 6: %r9d
# parameter 7: 8 + %rsp
# parameter 8: 16 + %rsp
# parameter 9: 24 + %rsp
..B1.1:                         # Preds ..B1.0

### yaskSite::yaskSite(MPI_Manager* mpi_man_, char* stencil_, int dim_, int fold_z_, int fold_y_, int fold_x_, char* path_, bool likwid):mpi_man(mpi_man_), stencil(stencil_), arch(TARGET_ARCH), yaskDir(YASK_PATH), stencilCode(NULL), localDir(NULL), sysLogFileName(NULL), nthreads(1), threadPerBlock(1), fold_x(fold_x_), fold_y(fold_y_), fold_z(fold_z_), sbx(-1), sby(-1), sbz(-1), bx(-1), by(-1), bz(-1), rt(-1), rx(-1), ry(-1), rz(-1), dt(-1), dx(-1), dy(-1), dz(-1), totalTime(0), radius(1), dim(dim_), buildWithLikwid(likwid), path(path_), stencilReady(false), subBlockUpdated(false), blockUpdated(false), regionUpdated(false), dimUpdated(false), threadUpdated(false), onceRun(false), dl_handle(NULL), dynInit(&YASKinit), dynFinalize(&YASKfinalize), dynStencil(&YASKstencil), dynGetPtr(&YASKgetElPtr), stencilContext(NULL), stencilSettings(NULL)

	.cfi_startproc
	.cfi_personality 0x93,DW.ref.__gxx_personality_v0
..___tag_value__ZN8yaskSiteC2EP11MPI_ManagerPciiiiS2_b.1:
..L2:
                                                          #23.11
        movzbl    24(%rsp), %eax                                #23.11
        movq      16(%rsp), %r10                                #23.11
        movl      8(%rsp), %r11d                                #23.11
        movl      %eax, 24(%rsp)                                #23.11
        movq      %r10, 16(%rsp)                                #23.11
        movl      %r11d, 8(%rsp)                                #23.11
#       yaskSite::yaskSite(yaskSite *, MPI_Manager *, char *, int, int, int, int, char *, bool)
        jmp       _ZN8yaskSiteC1EP11MPI_ManagerPciiiiS2_b@PLT   #23.11
        .align    16,0x90
	.cfi_endproc
                                # LOE
# mark_end;
	.type	_ZN8yaskSiteC2EP11MPI_ManagerPciiiiS2_b,@function
	.size	_ZN8yaskSiteC2EP11MPI_ManagerPciiiiS2_b,.-_ZN8yaskSiteC2EP11MPI_ManagerPciiiiS2_b
	.data
# -- End  _ZN8yaskSiteC2EP11MPI_ManagerPciiiiS2_b
	.text
# -- Begin  _ZN8yaskSiteC1EP11MPI_ManagerPciiiiS2_b
	.text
# mark_begin;
       .align    16,0x90
	.globl _ZN8yaskSiteC1EP11MPI_ManagerPciiiiS2_b
# --- yaskSite::yaskSite(yaskSite *, MPI_Manager *, char *, int, int, int, int, char *, bool)
_ZN8yaskSiteC1EP11MPI_ManagerPciiiiS2_b:
# parameter 1: %rdi
# parameter 2: %rsi
# parameter 3: %rdx
# parameter 4: %ecx
# parameter 5: %r8d
# parameter 6: %r9d
# parameter 7: 96 + %rsp
# parameter 8: 104 + %rsp
# parameter 9: 112 + %rsp
..B2.1:                         # Preds ..B2.0

### {

	.cfi_startproc
	.cfi_personality 0x93,DW.ref.__gxx_personality_v0
	.cfi_lsda 0x1b, _ZN8yaskSiteC1EP11MPI_ManagerPciiiiS2_b$$LSDA
..___tag_value__ZN8yaskSiteC1EP11MPI_ManagerPciiiiS2_b.6:
..L7:
                                                          #24.1
        pushq     %r12                                          #24.1
	.cfi_def_cfa_offset 16
	.cfi_offset 12, -16
        pushq     %r13                                          #24.1
	.cfi_def_cfa_offset 24
	.cfi_offset 13, -24
        pushq     %r14                                          #24.1
	.cfi_def_cfa_offset 32
	.cfi_offset 14, -32
        pushq     %r15                                          #24.1
	.cfi_def_cfa_offset 40
	.cfi_offset 15, -40
        pushq     %rbx                                          #24.1
	.cfi_def_cfa_offset 48
	.cfi_offset 3, -48
        pushq     %rbp                                          #24.1
	.cfi_def_cfa_offset 56
	.cfi_offset 6, -56
        subq      $40, %rsp                                     #24.1
	.cfi_def_cfa_offset 96
        movq      %rdi, %rbp                                    #24.1
        movl      %r9d, %r10d                                   #24.1
        lea       .L_2__STRING.37(%rip), %r11                   #23.177
        movq      YASKgetElPtr@GOTPCREL(%rip), %r15             #23.11
        lea       .L_2__STRING.38(%rip), %rax                   #23.199
        movq      104(%rsp), %r9                                #24.1
        movq      %rsi, (%rbp)                                  #23.142
        lea       .L_2__cnst_pck.9(%rip), %rsi                  #23.11
        movq      %r11, 16(%rbp)                                #23.177
        lea       48+.L_2__cnst_pck.9(%rip), %r11               #23.11
        movl      %r10d, 68(%rbp)                               #23.324
        lea       32+.L_2__cnst_pck.9(%rip), %r10               #23.11
        movl      %r8d, 72(%rbp)                                #23.341
        lea       16+.L_2__cnst_pck.9(%rip), %r8                #23.11
        movq      %r15, 200(%rbp)                               #23.11
        lea       224(%rbp), %r15                               #23.11
        movq      %r9, -72(%r15)                                #23.532
        movq      %r15, %rdi                                    #23.11
        movl      96(%rsp), %r12d                               #24.1
        movzbl    112(%rsp), %ebx                               #24.1
        movdqa    (%rsi), %xmm0                                 #23.11
        movdqa    (%r8), %xmm1                                  #23.11
        movdqa    (%r10), %xmm2                                 #23.11
        movdqa    (%r11), %xmm3                                 #23.11
        movq      YASKinit@GOTPCREL(%rip), %r9                  #23.11
        movq      YASKfinalize@GOTPCREL(%rip), %r13             #23.11
        movq      YASKstencil@GOTPCREL(%rip), %r14              #23.11
        movq      %rdx, 8(%rbp)                                 #23.161
        movl      $1, %edx                                      #23.11
        movq      %rax, 24(%rbp)                                #23.199
        xorl      %eax, %eax                                    #23.11
        movl      %ecx, -84(%r15)                               #23.495
        xorl      %ecx, %ecx                                    #23.11
        movq      %rax, 32(%rbp)                                #23.11
        movq      %rax, 40(%rbp)                                #23.11
        movq      %rax, 48(%rbp)                                #23.11
        movl      %edx, 56(%rbp)                                #23.11
        movl      %edx, 60(%rbp)                                #23.11
        movl      %r12d, 64(%rbp)                               #23.307
        movdqu    %xmm0, 76(%rbp)                               #23.11
        movdqu    %xmm1, 92(%rbp)                               #23.11
        movdqu    %xmm2, 108(%rbp)                              #23.11
        movdqu    %xmm3, 124(%rbp)                              #23.11
        movb      %bl, -80(%r15)                                #23.518
        movb      %cl, -64(%r15)                                #23.11
        movb      %cl, -63(%r15)                                #23.11
        movb      %cl, -62(%r15)                                #23.11
        movb      %cl, -61(%r15)                                #23.11
        movb      %cl, -60(%r15)                                #23.11
        movb      %cl, -59(%r15)                                #23.11
        movb      %cl, -58(%r15)                                #23.11
        movq      %rax, -56(%r15)                               #23.11
        movq      %r9, -48(%r15)                                #23.11
        movq      %r13, -40(%r15)                               #23.11
        movq      %r14, -32(%r15)                               #23.11
        movq      %rax, -16(%r15)                               #23.11
        movq      %rax, -8(%r15)                                #23.11
..___tag_value__ZN8yaskSiteC1EP11MPI_ManagerPciiiiS2_b.21:
#       std::vector<const char *, std::allocator<const char *>>::vector(std::vector<const char *, std::allocator<const char *>> *)
        call      _ZNSt6vectorIPKcSaIS1_EEC1Ev@PLT              #23.11
..___tag_value__ZN8yaskSiteC1EP11MPI_ManagerPciiiiS2_b.22:
                                # LOE rbp r15 ebx
..B2.2:                         # Preds ..B2.1
        lea       248(%rbp), %r14                               #23.11
        movq      %r14, %rdi                                    #23.11
..___tag_value__ZN8yaskSiteC1EP11MPI_ManagerPciiiiS2_b.23:
#       std::vector<std::vector<int, std::allocator<int>>, std::allocator<std::vector<int, std::allocator<int>>>>::vector(std::vector<std::vector<int, std::allocator<int>>, std::allocator<std::vector<int, std::allocator<int>>>> *)
        call      _ZNSt6vectorIS_IiSaIiEESaIS1_EEC1Ev@PLT       #23.11
..___tag_value__ZN8yaskSiteC1EP11MPI_ManagerPciiiiS2_b.24:
                                # LOE rbp r14 r15 ebx
..B2.3:                         # Preds ..B2.2

###     //get current absolute path
###     char* currPath = get_current_dir_name();

..___tag_value__ZN8yaskSiteC1EP11MPI_ManagerPciiiiS2_b.25:
#       get_current_dir_name()
        call      get_current_dir_name@PLT                      #26.22
..___tag_value__ZN8yaskSiteC1EP11MPI_ManagerPciiiiS2_b.26:
                                # LOE rax rbp r14 r15 ebx
..B2.30:                        # Preds ..B2.3
        movq      %rax, %r12                                    #26.22
                                # LOE rbp r12 r14 r15 ebx
..B2.4:                         # Preds ..B2.30

### 
###     //remove space in path and replace by underScore
###     char* path_wo_space = removeSpaces(path);

        movq      152(%rbp), %rdi                               #29.27
..___tag_value__ZN8yaskSiteC1EP11MPI_ManagerPciiiiS2_b.27:
#       removeSpaces(char *)
        call      _Z12removeSpacesPc@PLT                        #29.27
..___tag_value__ZN8yaskSiteC1EP11MPI_ManagerPciiiiS2_b.28:
                                # LOE rax rbp r12 r14 r15 ebx
..B2.5:                         # Preds ..B2.4
        movq      %rax, %r13                                    #29.27
                                # LOE rbp r12 r13 r14 r15 ebx
..B2.6:                         # Preds ..B2.5

###     STRINGIFY(localDir, LOCAL_DIR_NAME);

        movq      %r13, %rdi                                    #30.5
        lea       .L_2__STRING.8(%rip), %rsi                    #30.5
..L29:                                                          #30.5
        movb      (%rdi), %dl                                   #30.5
        cmpb      (%rsi), %dl                                   #30.5
        jne       ..L31         # Prob 50%                      #30.5
        testb     %dl, %dl                                      #30.5
        je        ..L30         # Prob 50%                      #30.5
        movb      1(%rdi), %dl                                  #30.5
        cmpb      1(%rsi), %dl                                  #30.5
        jne       ..L31         # Prob 50%                      #30.5
        addq      $2, %rdi                                      #30.5
        addq      $2, %rsi                                      #30.5
        testb     %dl, %dl                                      #30.5
        jne       ..L29         # Prob 50%                      #30.5
..L30:                                                          #
        xorl      %eax, %eax                                    #30.5
        jmp       ..L32         # Prob 100%                     #30.5
..L31:                                                          #
        sbbl      %eax, %eax                                    #30.5
        orl       $1, %eax                                      #30.5
..L32:                                                          #
                                # LOE rbp r12 r13 r14 r15 eax ebx
..B2.32:                        # Preds ..B2.6
        testl     %eax, %eax                                    #30.5
        lea       .L_2__STRING.7(%rip), %r10                    #30.5
        lea       .L_2__STRING.41(%rip), %r11                   #30.5
        lea       40(%rbp), %rdi                                #30.5
        cmovne    %r13, %r10                                    #30.5
        testl     %ebx, %ebx                                    #30.5
        lea       .L_2__STRING.40(%rip), %rbx                   #30.5
        lea       .L_2__STRING.39(%rip), %rsi                   #30.5
        cmovne    %rbx, %r11                                    #30.5
        movq      %r12, %rdx                                    #30.5
        pushq     %r11                                          #30.5
	.cfi_def_cfa_offset 104
	.cfi_escape 0x2e, 0x08
        pushq     %r10                                          #30.5
	.cfi_def_cfa_offset 112
	.cfi_escape 0x2e, 0x10
        movl      64(%rbp), %eax                                #30.5
        pushq     %rax                                          #30.5
	.cfi_def_cfa_offset 120
	.cfi_escape 0x2e, 0x18
        xorl      %eax, %eax                                    #30.5
        movl      68(%rbp), %ecx                                #30.5
        movq      16(%rbp), %r8                                 #30.5
        movl      72(%rbp), %r9d                                #30.5
        pushq     %rcx                                          #30.5
	.cfi_def_cfa_offset 128
	.cfi_escape 0x2e, 0x20
        movq      8(%rbp), %rcx                                 #30.5
..___tag_value__ZN8yaskSiteC1EP11MPI_ManagerPciiiiS2_b.41:
#       asprintf(char **, const char *, ...)
        call      asprintf@PLT                                  #30.5
..___tag_value__ZN8yaskSiteC1EP11MPI_ManagerPciiiiS2_b.42:
                                # LOE rbp r13 r14 r15
..B2.31:                        # Preds ..B2.32
        addq      $32, %rsp                                     #30.5
	.cfi_def_cfa_offset 96
	.cfi_escape 0x2e, 0x00
                                # LOE rbp r13 r14 r15
..B2.7:                         # Preds ..B2.31

###     delete[] path_wo_space;

        testq     %r13, %r13                                    #31.14
        je        ..B2.9        # Prob 32%                      #31.14
                                # LOE rbp r13 r14 r15
..B2.8:                         # Preds ..B2.7
        movq      %r13, %rdi                                    #31.5
#       operator delete[](void *)
        call      _ZdaPv@PLT                                    #31.5
                                # LOE rbp r14 r15
..B2.9:                         # Preds ..B2.7 ..B2.8

### 
###     SYSTEM("mkdir -p %s/bin", localDir);

        lea       .L_2__STRING.42(%rip), %rsi                   #33.5
        lea       8(%rsp), %rdi                                 #33.5
        xorl      %eax, %eax                                    #33.5
        movq      40(%rbp), %rdx                                #33.5
..___tag_value__ZN8yaskSiteC1EP11MPI_ManagerPciiiiS2_b.45:
#       asprintf(char **, const char *, ...)
        call      asprintf@PLT                                  #33.5
..___tag_value__ZN8yaskSiteC1EP11MPI_ManagerPciiiiS2_b.46:
                                # LOE rbp r14 r15
..B2.10:                        # Preds ..B2.9
        lea       .L_2__STRING.18(%rip), %rsi                   #33.5
        lea       16(%rsp), %rdi                                #33.5
        lea       .L_2__STRING.17(%rip), %rcx                   #33.5
        xorl      %eax, %eax                                    #33.5
        movq      -8(%rdi), %rdx                                #33.5
..___tag_value__ZN8yaskSiteC1EP11MPI_ManagerPciiiiS2_b.47:
#       asprintf(char **, const char *, ...)
        call      asprintf@PLT                                  #33.5
..___tag_value__ZN8yaskSiteC1EP11MPI_ManagerPciiiiS2_b.48:
                                # LOE rbp r14 r15
..B2.11:                        # Preds ..B2.10
        movq      %rbp, %rdi                                    #33.5
        movq      16(%rsp), %rsi                                #33.5
..___tag_value__ZN8yaskSiteC1EP11MPI_ManagerPciiiiS2_b.49:
#       yaskSite::systemCall(yaskSite *, char *)
        call      _ZN8yaskSite10systemCallEPc@PLT               #33.5
..___tag_value__ZN8yaskSiteC1EP11MPI_ManagerPciiiiS2_b.50:
                                # LOE rbp r14 r15
..B2.12:                        # Preds ..B2.11
        movq      8(%rsp), %rdi                                 #33.5
#       free(void *)
        call      free@PLT                                      #33.5
                                # LOE rbp r14 r15
..B2.13:                        # Preds ..B2.12
        movq      16(%rsp), %rdi                                #33.5
#       free(void *)
        call      free@PLT                                      #33.5
                                # LOE rbp r14 r15
..B2.14:                        # Preds ..B2.13

### 
###     STRINGIFY(sysLogFileName, "%s/sysCallLog.log", localDir);

        lea       .L_2__STRING.43(%rip), %rsi                   #35.5
        lea       48(%rbp), %rdi                                #35.5
        xorl      %eax, %eax                                    #35.5
        movq      40(%rbp), %rdx                                #35.5
..___tag_value__ZN8yaskSiteC1EP11MPI_ManagerPciiiiS2_b.51:
#       asprintf(char **, const char *, ...)
        call      asprintf@PLT                                  #35.5
..___tag_value__ZN8yaskSiteC1EP11MPI_ManagerPciiiiS2_b.52:
                                # LOE rbp r14 r15
..B2.15:                        # Preds ..B2.14

### 
###     //copy yask.sh; this will be deprecated
###     SYSTEM("cp %s/bin/yask.sh %s/bin/.", yaskDir, localDir);

        lea       .L_2__STRING.44(%rip), %rsi                   #38.5
        lea       24(%rsp), %rdi                                #38.5
        xorl      %eax, %eax                                    #38.5
        movq      24(%rbp), %rdx                                #38.5
        movq      40(%rbp), %rcx                                #38.5
..___tag_value__ZN8yaskSiteC1EP11MPI_ManagerPciiiiS2_b.53:
#       asprintf(char **, const char *, ...)
        call      asprintf@PLT                                  #38.5
..___tag_value__ZN8yaskSiteC1EP11MPI_ManagerPciiiiS2_b.54:
                                # LOE rbp r14 r15
..B2.16:                        # Preds ..B2.15
        lea       .L_2__STRING.18(%rip), %rsi                   #38.5
        lea       32(%rsp), %rdi                                #38.5
        lea       .L_2__STRING.17(%rip), %rcx                   #38.5
        xorl      %eax, %eax                                    #38.5
        movq      -8(%rdi), %rdx                                #38.5
..___tag_value__ZN8yaskSiteC1EP11MPI_ManagerPciiiiS2_b.55:
#       asprintf(char **, const char *, ...)
        call      asprintf@PLT                                  #38.5
..___tag_value__ZN8yaskSiteC1EP11MPI_ManagerPciiiiS2_b.56:
                                # LOE rbp r14 r15
..B2.17:                        # Preds ..B2.16
        movq      %rbp, %rdi                                    #38.5
        movq      32(%rsp), %rsi                                #38.5
..___tag_value__ZN8yaskSiteC1EP11MPI_ManagerPciiiiS2_b.57:
#       yaskSite::systemCall(yaskSite *, char *)
        call      _ZN8yaskSite10systemCallEPc@PLT               #38.5
..___tag_value__ZN8yaskSiteC1EP11MPI_ManagerPciiiiS2_b.58:
                                # LOE rbp r14 r15
..B2.18:                        # Preds ..B2.17
        movq      24(%rsp), %rdi                                #38.5
#       free(void *)
        call      free@PLT                                      #38.5
                                # LOE rbp
..B2.19:                        # Preds ..B2.18
        movq      32(%rsp), %rdi                                #38.5
#       free(void *)
        call      free@PLT                                      #38.5
                                # LOE rbp
..B2.20:                        # Preds ..B2.19

### 
###     //stencil code
###     STRINGIFY(stencilCode,"stencil_%s_%s_%d_%d_%d_%s", stencil, arch, fold_x, fold_y, fold_z, (strcmp(path,"")==0)?"default":path);

        movq      152(%rbp), %rcx                               #41.5
        movq      %rcx, %rdi                                    #41.5
        lea       .L_2__STRING.8(%rip), %rsi                    #41.5
..L59:                                                          #41.5
        movb      (%rdi), %dl                                   #41.5
        cmpb      (%rsi), %dl                                   #41.5
        jne       ..L61         # Prob 50%                      #41.5
        testb     %dl, %dl                                      #41.5
        je        ..L60         # Prob 50%                      #41.5
        movb      1(%rdi), %dl                                  #41.5
        cmpb      1(%rsi), %dl                                  #41.5
        jne       ..L61         # Prob 50%                      #41.5
        addq      $2, %rdi                                      #41.5
        addq      $2, %rsi                                      #41.5
        testb     %dl, %dl                                      #41.5
        jne       ..L59         # Prob 50%                      #41.5
..L60:                                                          #
        xorl      %eax, %eax                                    #41.5
        jmp       ..L62         # Prob 100%                     #41.5
..L61:                                                          #
        sbbl      %eax, %eax                                    #41.5
        orl       $1, %eax                                      #41.5
..L62:                                                          #
                                # LOE rcx rbp eax
..B2.34:                        # Preds ..B2.20
        testl     %eax, %eax                                    #41.5
        lea       .L_2__STRING.7(%rip), %rbx                    #41.5
        lea       .L_2__STRING.45(%rip), %rsi                   #41.5
        lea       32(%rbp), %rdi                                #41.5
        cmove     %rbx, %rcx                                    #41.5
        xorl      %eax, %eax                                    #41.5
        pushq     %rcx                                          #41.5
	.cfi_def_cfa_offset 104
	.cfi_escape 0x2e, 0x08
        movl      72(%rbp), %r9d                                #41.5
        movq      8(%rbp), %rdx                                 #41.5
        movq      16(%rbp), %rcx                                #41.5
        movl      64(%rbp), %r8d                                #41.5
        pushq     %r9                                           #41.5
	.cfi_def_cfa_offset 112
	.cfi_escape 0x2e, 0x10
        movl      68(%rbp), %r9d                                #41.5
..___tag_value__ZN8yaskSiteC1EP11MPI_ManagerPciiiiS2_b.67:
#       asprintf(char **, const char *, ...)
        call      asprintf@PLT                                  #41.5
..___tag_value__ZN8yaskSiteC1EP11MPI_ManagerPciiiiS2_b.68:
                                # LOE
..B2.21:                        # Preds ..B2.34

### 
### }

        addq      $56, %rsp                                     #43.1
	.cfi_def_cfa_offset 56
	.cfi_escape 0x2e, 0x00
	.cfi_restore 6
        popq      %rbp                                          #43.1
	.cfi_def_cfa_offset 48
	.cfi_restore 3
        popq      %rbx                                          #43.1
	.cfi_def_cfa_offset 40
	.cfi_restore 15
        popq      %r15                                          #43.1
	.cfi_def_cfa_offset 32
	.cfi_restore 14
        popq      %r14                                          #43.1
	.cfi_def_cfa_offset 24
	.cfi_restore 13
        popq      %r13                                          #43.1
	.cfi_def_cfa_offset 16
	.cfi_restore 12
        popq      %r12                                          #43.1
	.cfi_def_cfa_offset 8
        ret                                                     #43.1
	.cfi_def_cfa_offset 96
	.cfi_offset 3, -48
	.cfi_offset 6, -56
	.cfi_offset 12, -16
	.cfi_offset 13, -24
	.cfi_offset 14, -32
	.cfi_offset 15, -40
                                # LOE
..___tag_value__ZN8yaskSiteC1EP11MPI_ManagerPciiiiS2_b.5:
..B2.22:                        # Preds ..B2.17 ..B2.11 ..B2.4
        movq      %rax, (%rsp)                                  #23.11
                                # LOE r14 r15
..B2.23:                        # Preds ..B2.22
        movq      %r14, %rdi                                    #23.11
#       std::vector<std::vector<int, std::allocator<int>>, std::allocator<std::vector<int, std::allocator<int>>>>::~vector(std::vector<std::vector<int, std::allocator<int>>, std::allocator<std::vector<int, std::allocator<int>>>> *)
        call      _ZNSt6vectorIS_IiSaIiEESaIS1_EED1Ev@PLT       #23.11
                                # LOE r15
..B2.25:                        # Preds ..B2.23 ..B2.27
        movq      %r15, %rdi                                    #23.11
#       std::vector<const char *, std::allocator<const char *>>::~vector(std::vector<const char *, std::allocator<const char *>> *)
        call      _ZNSt6vectorIPKcSaIS1_EED1Ev@PLT              #23.11
                                # LOE
..B2.26:                        # Preds ..B2.25
        movq      (%rsp), %rdi                                  #23.11
..___tag_value__ZN8yaskSiteC1EP11MPI_ManagerPciiiiS2_b.90:
        call      _Unwind_Resume@PLT                            #23.11
..___tag_value__ZN8yaskSiteC1EP11MPI_ManagerPciiiiS2_b.91:
                                # LOE
..___tag_value__ZN8yaskSiteC1EP11MPI_ManagerPciiiiS2_b.4:
..B2.27:                        # Preds ..B2.2                  # Infreq
        movq      %rax, (%rsp)                                  #23.11
        jmp       ..B2.25       # Prob 100%                     #23.11
        .align    16,0x90
	.cfi_endproc
                                # LOE r15
# mark_end;
	.type	_ZN8yaskSiteC1EP11MPI_ManagerPciiiiS2_b,@function
	.size	_ZN8yaskSiteC1EP11MPI_ManagerPciiiiS2_b,.-_ZN8yaskSiteC1EP11MPI_ManagerPciiiiS2_b
	.section .gcc_except_table, "a"
	.align 4
_ZN8yaskSiteC1EP11MPI_ManagerPciiiiS2_b$$LSDA:
	.byte	255
	.byte	155
	.uleb128	..___tag_value__ZN8yaskSiteC1EP11MPI_ManagerPciiiiS2_b.96 - ..___tag_value__ZN8yaskSiteC1EP11MPI_ManagerPciiiiS2_b.95
..___tag_value__ZN8yaskSiteC1EP11MPI_ManagerPciiiiS2_b.95:
	.byte	1
	.uleb128	..___tag_value__ZN8yaskSiteC1EP11MPI_ManagerPciiiiS2_b.94 - ..___tag_value__ZN8yaskSiteC1EP11MPI_ManagerPciiiiS2_b.93
..___tag_value__ZN8yaskSiteC1EP11MPI_ManagerPciiiiS2_b.93:
	.uleb128	..___tag_value__ZN8yaskSiteC1EP11MPI_ManagerPciiiiS2_b.21 - ..___tag_value__ZN8yaskSiteC1EP11MPI_ManagerPciiiiS2_b.6
	.uleb128	..___tag_value__ZN8yaskSiteC1EP11MPI_ManagerPciiiiS2_b.22 - ..___tag_value__ZN8yaskSiteC1EP11MPI_ManagerPciiiiS2_b.21
	.byte	0
	.byte	0
	.uleb128	..___tag_value__ZN8yaskSiteC1EP11MPI_ManagerPciiiiS2_b.23 - ..___tag_value__ZN8yaskSiteC1EP11MPI_ManagerPciiiiS2_b.6
	.uleb128	..___tag_value__ZN8yaskSiteC1EP11MPI_ManagerPciiiiS2_b.24 - ..___tag_value__ZN8yaskSiteC1EP11MPI_ManagerPciiiiS2_b.23
	.uleb128	..___tag_value__ZN8yaskSiteC1EP11MPI_ManagerPciiiiS2_b.4 - ..___tag_value__ZN8yaskSiteC1EP11MPI_ManagerPciiiiS2_b.6
	.byte	0
	.uleb128	..___tag_value__ZN8yaskSiteC1EP11MPI_ManagerPciiiiS2_b.25 - ..___tag_value__ZN8yaskSiteC1EP11MPI_ManagerPciiiiS2_b.6
	.uleb128	..___tag_value__ZN8yaskSiteC1EP11MPI_ManagerPciiiiS2_b.68 - ..___tag_value__ZN8yaskSiteC1EP11MPI_ManagerPciiiiS2_b.25
	.uleb128	..___tag_value__ZN8yaskSiteC1EP11MPI_ManagerPciiiiS2_b.5 - ..___tag_value__ZN8yaskSiteC1EP11MPI_ManagerPciiiiS2_b.6
	.byte	0
	.uleb128	..___tag_value__ZN8yaskSiteC1EP11MPI_ManagerPciiiiS2_b.90 - ..___tag_value__ZN8yaskSiteC1EP11MPI_ManagerPciiiiS2_b.6
	.uleb128	..___tag_value__ZN8yaskSiteC1EP11MPI_ManagerPciiiiS2_b.91 - ..___tag_value__ZN8yaskSiteC1EP11MPI_ManagerPciiiiS2_b.90
	.byte	0
	.byte	0
..___tag_value__ZN8yaskSiteC1EP11MPI_ManagerPciiiiS2_b.94:
	.long	0
..___tag_value__ZN8yaskSiteC1EP11MPI_ManagerPciiiiS2_b.96:
	.data
# -- End  _ZN8yaskSiteC1EP11MPI_ManagerPciiiiS2_b
	.section .text._ZNSt6vectorIPKcSaIS1_EEC1Ev, "xaG",@progbits,_ZNSt6vectorIPKcSaIS1_EEC1Ev,comdat
..TXTST1:
# -- Begin  _ZNSt6vectorIPKcSaIS1_EEC1Ev
	.section .text._ZNSt6vectorIPKcSaIS1_EEC1Ev, "xaG",@progbits,_ZNSt6vectorIPKcSaIS1_EEC1Ev,comdat
# mark_begin;
       .align    16,0x90
	.weak _ZNSt6vectorIPKcSaIS1_EEC1Ev
# --- std::vector<const char *, std::allocator<const char *>>::vector(std::vector<const char *, std::allocator<const char *>> *)
_ZNSt6vectorIPKcSaIS1_EEC1Ev:
# parameter 1: %rdi
..B3.1:                         # Preds ..B3.0

###       : _Base() { }

	.cfi_startproc
	.cfi_personality 0x93,DW.ref.__gxx_personality_v0
..___tag_value__ZNSt6vectorIPKcSaIS1_EEC1Ev.97:
..L98:
                                                         #257.17
        xorl      %eax, %eax                                    #253.7
        movq      %rax, (%rdi)                                  #253.7
        movq      %rax, 8(%rdi)                                 #253.7
        movq      %rax, 16(%rdi)                                #253.7
        ret                                                     #257.19
        .align    16,0x90
	.cfi_endproc
                                # LOE
# mark_end;
	.type	_ZNSt6vectorIPKcSaIS1_EEC1Ev,@function
	.size	_ZNSt6vectorIPKcSaIS1_EEC1Ev,.-_ZNSt6vectorIPKcSaIS1_EEC1Ev
	.data
# -- End  _ZNSt6vectorIPKcSaIS1_EEC1Ev
	.section .text._ZNSt6vectorIS_IiSaIiEESaIS1_EEC1Ev, "xaG",@progbits,_ZNSt6vectorIS_IiSaIiEESaIS1_EEC1Ev,comdat
..TXTST2:
# -- Begin  _ZNSt6vectorIS_IiSaIiEESaIS1_EEC1Ev
	.section .text._ZNSt6vectorIS_IiSaIiEESaIS1_EEC1Ev, "xaG",@progbits,_ZNSt6vectorIS_IiSaIiEESaIS1_EEC1Ev,comdat
# mark_begin;
       .align    16,0x90
	.weak _ZNSt6vectorIS_IiSaIiEESaIS1_EEC1Ev
# --- std::vector<std::vector<int, std::allocator<int>>, std::allocator<std::vector<int, std::allocator<int>>>>::vector(std::vector<std::vector<int, std::allocator<int>>, std::allocator<std::vector<int, std::allocator<int>>>> *)
_ZNSt6vectorIS_IiSaIiEESaIS1_EEC1Ev:
# parameter 1: %rdi
..B4.1:                         # Preds ..B4.0

###       : _Base() { }

	.cfi_startproc
	.cfi_personality 0x93,DW.ref.__gxx_personality_v0
..___tag_value__ZNSt6vectorIS_IiSaIiEESaIS1_EEC1Ev.100:
..L101:
                                                        #257.17
        xorl      %eax, %eax                                    #253.7
        movq      %rax, (%rdi)                                  #253.7
        movq      %rax, 8(%rdi)                                 #253.7
        movq      %rax, 16(%rdi)                                #253.7
        ret                                                     #257.19
        .align    16,0x90
	.cfi_endproc
                                # LOE
# mark_end;
	.type	_ZNSt6vectorIS_IiSaIiEESaIS1_EEC1Ev,@function
	.size	_ZNSt6vectorIS_IiSaIiEESaIS1_EEC1Ev,.-_ZNSt6vectorIS_IiSaIiEESaIS1_EEC1Ev
	.data
# -- End  _ZNSt6vectorIS_IiSaIiEESaIS1_EEC1Ev
	.section .text._ZNSt6vectorIPKcSaIS1_EED1Ev, "xaG",@progbits,_ZNSt6vectorIPKcSaIS1_EED1Ev,comdat
..TXTST3:
# -- Begin  _ZNSt6vectorIPKcSaIS1_EED1Ev
	.section .text._ZNSt6vectorIPKcSaIS1_EED1Ev, "xaG",@progbits,_ZNSt6vectorIPKcSaIS1_EED1Ev,comdat
# mark_begin;
       .align    16,0x90
	.weak _ZNSt6vectorIPKcSaIS1_EED1Ev
# --- std::vector<const char *, std::allocator<const char *>>::~vector(std::vector<const char *, std::allocator<const char *>> *)
_ZNSt6vectorIPKcSaIS1_EED1Ev:
# parameter 1: %rdi
..B5.1:                         # Preds ..B5.0

###       { std::_Destroy(this->_M_impl._M_start, this->_M_impl._M_finish,

	.cfi_startproc
	.cfi_personality 0x93,DW.ref.__gxx_personality_v0
	.cfi_lsda 0x1b, _ZNSt6vectorIPKcSaIS1_EED1Ev$$LSDA
..___tag_value__ZNSt6vectorIPKcSaIS1_EED1Ev.103:
..L104:
                                                        #424.7

### 		      _M_get_Tp_allocator()); }

        movq      (%rdi), %rdi                                  #425.33
        testq     %rdi, %rdi                                    #425.33
        je        ..B5.3        # Prob 72%                      #425.33
                                # LOE rbx rbp rdi r12 r13 r14 r15
..B5.2:                         # Preds ..B5.1
#       operator delete(void *)
        jmp       _ZdlPv@PLT                                    #425.33
                                # LOE
..B5.3:                         # Preds ..B5.1
        ret                                                     #425.33
        .align    16,0x90
	.cfi_endproc
                                # LOE
# mark_end;
	.type	_ZNSt6vectorIPKcSaIS1_EED1Ev,@function
	.size	_ZNSt6vectorIPKcSaIS1_EED1Ev,.-_ZNSt6vectorIPKcSaIS1_EED1Ev
	.section .gcc_except_table, "a"
	.align 4
_ZNSt6vectorIPKcSaIS1_EED1Ev$$LSDA:
	.byte	255
	.byte	155
	.uleb128	..___tag_value__ZNSt6vectorIPKcSaIS1_EED1Ev.109 - ..___tag_value__ZNSt6vectorIPKcSaIS1_EED1Ev.108
..___tag_value__ZNSt6vectorIPKcSaIS1_EED1Ev.108:
	.byte	1
	.uleb128	..___tag_value__ZNSt6vectorIPKcSaIS1_EED1Ev.107 - ..___tag_value__ZNSt6vectorIPKcSaIS1_EED1Ev.106
..___tag_value__ZNSt6vectorIPKcSaIS1_EED1Ev.106:
..___tag_value__ZNSt6vectorIPKcSaIS1_EED1Ev.107:
	.byte	127
	.byte	0
	.byte	0
	.byte	125
	.long	0
..___tag_value__ZNSt6vectorIPKcSaIS1_EED1Ev.109:
	.byte	0
	.data
# -- End  _ZNSt6vectorIPKcSaIS1_EED1Ev
	.section .text._ZNSt12_Vector_baseIPKcSaIS1_EED2Ev, "xaG",@progbits,_ZNSt12_Vector_baseIPKcSaIS1_EED2Ev,comdat
..TXTST4:
# -- Begin  _ZNSt12_Vector_baseIPKcSaIS1_EED2Ev
	.section .text._ZNSt12_Vector_baseIPKcSaIS1_EED2Ev, "xaG",@progbits,_ZNSt12_Vector_baseIPKcSaIS1_EED2Ev,comdat
# mark_begin;
       .align    16,0x90
	.weak _ZNSt12_Vector_baseIPKcSaIS1_EED2Ev
# --- std::_Vector_base<const char *, std::allocator<const char *>>::~_Vector_base(std::_Vector_base<const char *, std::allocator<const char *>> *const)
_ZNSt12_Vector_baseIPKcSaIS1_EED2Ev:
# parameter 1: %rdi
..B6.1:                         # Preds ..B6.0

###       ~_Vector_base() _GLIBCXX_NOEXCEPT

	.cfi_startproc
	.cfi_personality 0x93,DW.ref.__gxx_personality_v0
..___tag_value__ZNSt12_Vector_baseIPKcSaIS1_EED2Ev.110:
..L111:
                                                        #159.7
        movq      (%rdi), %rdi                                  #159.7
        testq     %rdi, %rdi                                    #159.7
        je        ..B6.3        # Prob 72%                      #159.7
                                # LOE rbx rbp rdi r12 r13 r14 r15
..B6.2:                         # Preds ..B6.1
#       operator delete(void *)
        jmp       _ZdlPv@PLT                                    #159.7
                                # LOE
..B6.3:                         # Preds ..B6.1
        ret                                                     #159.7
        .align    16,0x90
	.cfi_endproc
                                # LOE
# mark_end;
	.type	_ZNSt12_Vector_baseIPKcSaIS1_EED2Ev,@function
	.size	_ZNSt12_Vector_baseIPKcSaIS1_EED2Ev,.-_ZNSt12_Vector_baseIPKcSaIS1_EED2Ev
	.data
# -- End  _ZNSt12_Vector_baseIPKcSaIS1_EED2Ev
	.section .text._ZNSt6vectorIS_IiSaIiEESaIS1_EED1Ev, "xaG",@progbits,_ZNSt6vectorIS_IiSaIiEESaIS1_EED1Ev,comdat
..TXTST5:
# -- Begin  _ZNSt6vectorIS_IiSaIiEESaIS1_EED1Ev
	.section .text._ZNSt6vectorIS_IiSaIiEESaIS1_EED1Ev, "xaG",@progbits,_ZNSt6vectorIS_IiSaIiEESaIS1_EED1Ev,comdat
# mark_begin;
       .align    16,0x90
	.weak _ZNSt6vectorIS_IiSaIiEESaIS1_EED1Ev
# --- std::vector<std::vector<int, std::allocator<int>>, std::allocator<std::vector<int, std::allocator<int>>>>::~vector(std::vector<std::vector<int, std::allocator<int>>, std::allocator<std::vector<int, std::allocator<int>>>> *)
_ZNSt6vectorIS_IiSaIiEESaIS1_EED1Ev:
# parameter 1: %rdi
..B7.1:                         # Preds ..B7.0

###       { std::_Destroy(this->_M_impl._M_start, this->_M_impl._M_finish,

	.cfi_startproc
	.cfi_personality 0x93,DW.ref.__gxx_personality_v0
	.cfi_lsda 0x1b, _ZNSt6vectorIS_IiSaIiEESaIS1_EED1Ev$$LSDA
..___tag_value__ZNSt6vectorIS_IiSaIiEESaIS1_EED1Ev.113:
..L114:
                                                        #424.7
        subq      $24, %rsp                                     #424.7
	.cfi_def_cfa_offset 32
        movq      %rdi, %rdx                                    #424.7
        movq      (%rdx), %rdi                                  #424.23
        movq      8(%rdx), %rax                                 #424.47
        cmpq      %rax, %rdi                                    #424.9
        je        ..B7.7        # Prob 1%                       #424.9
                                # LOE rax rdx rbx rbp rdi r12 r13 r14 r15
..B7.2:                         # Preds ..B7.1
        movq      %r15, (%rsp)                                  #
	.cfi_offset 15, -32
        movq      %rdx, %r15                                    #
        movq      %rbx, 8(%rsp)                                 #
	.cfi_offset 3, -24
        movq      %rax, %rbx                                    #
        movq      %rbp, 16(%rsp)                                #
	.cfi_offset 6, -16
        movq      %rdi, %rbp                                    #
                                # LOE rbx rbp r12 r13 r14 r15
..B7.3:                         # Preds ..B7.5 ..B7.2
        movq      (%rbp), %rdi                                  #424.9
        testq     %rdi, %rdi                                    #424.9
        je        ..B7.5        # Prob 72%                      #424.9
                                # LOE rbx rbp rdi r12 r13 r14 r15
..B7.4:                         # Preds ..B7.3
#       operator delete(void *)
        call      _ZdlPv@PLT                                    #424.9
                                # LOE rbx rbp r12 r13 r14 r15
..B7.5:                         # Preds ..B7.4 ..B7.3
        addq      $24, %rbp                                     #424.9
        cmpq      %rbx, %rbp                                    #424.9
        jne       ..B7.3        # Prob 82%                      #424.9
                                # LOE rbx rbp r12 r13 r14 r15
..B7.6:                         # Preds ..B7.5
        movq      %r15, %rdx                                    #
        movq      (%rsp), %r15                                  #
	.cfi_restore 15
        movq      8(%rsp), %rbx                                 #
	.cfi_restore 3
        movq      16(%rsp), %rbp                                #
	.cfi_restore 6

### 		      _M_get_Tp_allocator()); }

        movq      (%rdx), %rdi                                  #425.33
                                # LOE rbx rbp rdi r12 r13 r14 r15
..B7.7:                         # Preds ..B7.6 ..B7.1
        testq     %rdi, %rdi                                    #425.33
        je        ..B7.9        # Prob 72%                      #425.33
                                # LOE rbx rbp rdi r12 r13 r14 r15
..B7.8:                         # Preds ..B7.7
        addq      $24, %rsp                                     #425.33
	.cfi_def_cfa_offset 8
#       operator delete(void *)
        jmp       _ZdlPv@PLT                                    #425.33
	.cfi_def_cfa_offset 32
                                # LOE
..B7.9:                         # Preds ..B7.7
        addq      $24, %rsp                                     #425.33
	.cfi_def_cfa_offset 8
        ret                                                     #425.33
        .align    16,0x90
	.cfi_endproc
                                # LOE
# mark_end;
	.type	_ZNSt6vectorIS_IiSaIiEESaIS1_EED1Ev,@function
	.size	_ZNSt6vectorIS_IiSaIiEESaIS1_EED1Ev,.-_ZNSt6vectorIS_IiSaIiEESaIS1_EED1Ev
	.section .gcc_except_table, "a"
	.align 4
_ZNSt6vectorIS_IiSaIiEESaIS1_EED1Ev$$LSDA:
	.byte	255
	.byte	155
	.uleb128	..___tag_value__ZNSt6vectorIS_IiSaIiEESaIS1_EED1Ev.129 - ..___tag_value__ZNSt6vectorIS_IiSaIiEESaIS1_EED1Ev.128
..___tag_value__ZNSt6vectorIS_IiSaIiEESaIS1_EED1Ev.128:
	.byte	1
	.uleb128	..___tag_value__ZNSt6vectorIS_IiSaIiEESaIS1_EED1Ev.127 - ..___tag_value__ZNSt6vectorIS_IiSaIiEESaIS1_EED1Ev.126
..___tag_value__ZNSt6vectorIS_IiSaIiEESaIS1_EED1Ev.126:
..___tag_value__ZNSt6vectorIS_IiSaIiEESaIS1_EED1Ev.127:
	.byte	127
	.byte	0
	.byte	0
	.byte	125
	.long	0
..___tag_value__ZNSt6vectorIS_IiSaIiEESaIS1_EED1Ev.129:
	.byte	0
	.data
# -- End  _ZNSt6vectorIS_IiSaIiEESaIS1_EED1Ev
	.section .text._ZNSt12_Vector_baseIiSaIiEED2Ev, "xaG",@progbits,_ZNSt12_Vector_baseIiSaIiEED2Ev,comdat
..TXTST6:
# -- Begin  _ZNSt12_Vector_baseIiSaIiEED2Ev
	.section .text._ZNSt12_Vector_baseIiSaIiEED2Ev, "xaG",@progbits,_ZNSt12_Vector_baseIiSaIiEED2Ev,comdat
# mark_begin;
       .align    16,0x90
	.weak _ZNSt12_Vector_baseIiSaIiEED2Ev
# --- std::_Vector_base<int, std::allocator<int>>::~_Vector_base(std::_Vector_base<int, std::allocator<int>> *const)
_ZNSt12_Vector_baseIiSaIiEED2Ev:
# parameter 1: %rdi
..B8.1:                         # Preds ..B8.0

###       ~_Vector_base() _GLIBCXX_NOEXCEPT

	.cfi_startproc
	.cfi_personality 0x93,DW.ref.__gxx_personality_v0
..___tag_value__ZNSt12_Vector_baseIiSaIiEED2Ev.130:
..L131:
                                                        #159.7
        movq      (%rdi), %rdi                                  #159.7
        testq     %rdi, %rdi                                    #159.7
        je        ..B8.3        # Prob 72%                      #159.7
                                # LOE rbx rbp rdi r12 r13 r14 r15
..B8.2:                         # Preds ..B8.1
#       operator delete(void *)
        jmp       _ZdlPv@PLT                                    #159.7
                                # LOE
..B8.3:                         # Preds ..B8.1
        ret                                                     #159.7
        .align    16,0x90
	.cfi_endproc
                                # LOE
# mark_end;
	.type	_ZNSt12_Vector_baseIiSaIiEED2Ev,@function
	.size	_ZNSt12_Vector_baseIiSaIiEED2Ev,.-_ZNSt12_Vector_baseIiSaIiEED2Ev
	.data
# -- End  _ZNSt12_Vector_baseIiSaIiEED2Ev
	.section .text._ZNSt12_Vector_baseISt6vectorIiSaIiEESaIS2_EED2Ev, "xaG",@progbits,_ZNSt12_Vector_baseISt6vectorIiSaIiEESaIS2_EED2Ev,comdat
..TXTST7:
# -- Begin  _ZNSt12_Vector_baseISt6vectorIiSaIiEESaIS2_EED2Ev
	.section .text._ZNSt12_Vector_baseISt6vectorIiSaIiEESaIS2_EED2Ev, "xaG",@progbits,_ZNSt12_Vector_baseISt6vectorIiSaIiEESaIS2_EED2Ev,comdat
# mark_begin;
       .align    16,0x90
	.weak _ZNSt12_Vector_baseISt6vectorIiSaIiEESaIS2_EED2Ev
# --- std::_Vector_base<std::vector<int, std::allocator<int>>, std::allocator<std::vector<int, std::allocator<int>>>>::~_Vector_base(std::_Vector_base<std::vector<int, std::allocator<int>>, std::allocator<std::vector<int, std::allocator<int>>>> *const)
_ZNSt12_Vector_baseISt6vectorIiSaIiEESaIS2_EED2Ev:
# parameter 1: %rdi
..B9.1:                         # Preds ..B9.0

###       ~_Vector_base() _GLIBCXX_NOEXCEPT

	.cfi_startproc
	.cfi_personality 0x93,DW.ref.__gxx_personality_v0
..___tag_value__ZNSt12_Vector_baseISt6vectorIiSaIiEESaIS2_EED2Ev.133:
..L134:
                                                        #159.7
        movq      (%rdi), %rdi                                  #159.7
        testq     %rdi, %rdi                                    #159.7
        je        ..B9.3        # Prob 72%                      #159.7
                                # LOE rbx rbp rdi r12 r13 r14 r15
..B9.2:                         # Preds ..B9.1
#       operator delete(void *)
        jmp       _ZdlPv@PLT                                    #159.7
                                # LOE
..B9.3:                         # Preds ..B9.1
        ret                                                     #159.7
        .align    16,0x90
	.cfi_endproc
                                # LOE
# mark_end;
	.type	_ZNSt12_Vector_baseISt6vectorIiSaIiEESaIS2_EED2Ev,@function
	.size	_ZNSt12_Vector_baseISt6vectorIiSaIiEESaIS2_EED2Ev,.-_ZNSt12_Vector_baseISt6vectorIiSaIiEESaIS2_EED2Ev
	.data
# -- End  _ZNSt12_Vector_baseISt6vectorIiSaIiEESaIS2_EED2Ev
	.text
# -- Begin  _ZN8yaskSiteD2Ev
	.text
# mark_begin;
       .align    16,0x90
	.globl _ZN8yaskSiteD2Ev
# --- yaskSite::~yaskSite(yaskSite *const)
_ZN8yaskSiteD2Ev:
# parameter 1: %rdi
..B10.1:                        # Preds ..B10.0

### yaskSite::~yaskSite()

	.cfi_startproc
	.cfi_personality 0x93,DW.ref.__gxx_personality_v0
..___tag_value__ZN8yaskSiteD2Ev.136:
..L137:
                                                        #45.11
#       yaskSite::~yaskSite(yaskSite *)
        jmp       _ZN8yaskSiteD1Ev@PLT                          #45.11
        .align    16,0x90
	.cfi_endproc
                                # LOE
# mark_end;
	.type	_ZN8yaskSiteD2Ev,@function
	.size	_ZN8yaskSiteD2Ev,.-_ZN8yaskSiteD2Ev
	.data
# -- End  _ZN8yaskSiteD2Ev
	.text
# -- Begin  _ZN8yaskSiteD1Ev
	.text
# mark_begin;
       .align    16,0x90
	.globl _ZN8yaskSiteD1Ev
# --- yaskSite::~yaskSite(yaskSite *)
_ZN8yaskSiteD1Ev:
# parameter 1: %rdi
..B11.1:                        # Preds ..B11.0

### {

	.cfi_startproc
	.cfi_personality 0x93,DW.ref.__gxx_personality_v0
	.cfi_lsda 0x1b, _ZN8yaskSiteD1Ev$$LSDA
..___tag_value__ZN8yaskSiteD1Ev.140:
..L141:
                                                        #46.1
        pushq     %rbx                                          #46.1
	.cfi_def_cfa_offset 16
	.cfi_offset 3, -16
        pushq     %rbp                                          #46.1
	.cfi_def_cfa_offset 24
	.cfi_offset 6, -24
        subq      $24, %rsp                                     #46.1
	.cfi_def_cfa_offset 48
        movq      %rdi, %rbx                                    #46.1

### #ifndef CACHE_BUILD
###     cleanDir();
### #endif
### 
###     delete[] localDir;

        movq      40(%rbx), %rdi                                #51.14
        testq     %rdi, %rdi                                    #51.14
        je        ..B11.3       # Prob 32%                      #51.14
                                # LOE rbx rdi r12 r13 r14 r15
..B11.2:                        # Preds ..B11.1
#       operator delete[](void *)
        call      _ZdaPv@PLT                                    #51.5
                                # LOE rbx r12 r13 r14 r15
..B11.3:                        # Preds ..B11.2 ..B11.1

###     delete[] sysLogFileName;

        movq      48(%rbx), %rdi                                #52.14
        testq     %rdi, %rdi                                    #52.14
        je        ..B11.5       # Prob 32%                      #52.14
                                # LOE rbx rdi r12 r13 r14 r15
..B11.4:                        # Preds ..B11.3
#       operator delete[](void *)
        call      _ZdaPv@PLT                                    #52.5
                                # LOE rbx r12 r13 r14 r15
..B11.5:                        # Preds ..B11.4 ..B11.3

###     delete[] stencilCode;

        movq      32(%rbx), %rdi                                #53.14
        testq     %rdi, %rdi                                    #53.14
        je        ..B11.7       # Prob 32%                      #53.14
                                # LOE rbx rdi r12 r13 r14 r15
..B11.6:                        # Preds ..B11.5
#       operator delete[](void *)
        call      _ZdaPv@PLT                                    #53.5
                                # LOE rbx r12 r13 r14 r15
..B11.7:                        # Preds ..B11.6 ..B11.5

### 
###     //if there is an active kernel
###     //delete it
###     if(stencilContext)

        cmpq      $0, 208(%rbx)                                 #57.8
        je        ..B11.11      # Prob 32%                      #57.8
                                # LOE rbx r12 r13 r14 r15
..B11.8:                        # Preds ..B11.7

###     {
###         if(dynFinalize(this)<0)

        movq      %rbx, %rdi                                    #59.12
..___tag_value__ZN8yaskSiteD1Ev.147:
        call      *184(%rbx)                                    #59.12
..___tag_value__ZN8yaskSiteD1Ev.148:
                                # LOE rbx r12 r13 r14 r15 eax
..B11.10:                       # Preds ..B11.8
        testl     %eax, %eax                                    #59.30
        jl        ..B11.25      # Prob 16%                      #59.30
                                # LOE rbx r12 r13 r14 r15
..B11.11:                       # Preds ..B11.33 ..B11.10 ..B11.7

###         {
###             ERROR_PRINT("Stencil is not generated");
###         }
###     }
### 
###     if(dl_handle)

        movq      168(%rbx), %rdi                               #65.8
        testq     %rdi, %rdi                                    #65.8
        je        ..B11.14      # Prob 32%                      #65.8
                                # LOE rbx rdi r12 r13 r14 r15
..B11.12:                       # Preds ..B11.11

###     {
###         //close loaded library
###         dlclose(dl_handle);

..___tag_value__ZN8yaskSiteD1Ev.149:
#       dlclose(void *)
        call      dlclose@PLT                                   #68.9
..___tag_value__ZN8yaskSiteD1Ev.150:
                                # LOE rbx r12 r13 r14 r15
..B11.13:                       # Preds ..B11.12

###         dl_handle = NULL;

        movq      $0, 168(%rbx)                                 #69.9
                                # LOE rbx r12 r13 r14 r15
..B11.14:                       # Preds ..B11.11 ..B11.13

###     }
### }

        movq      248(%rbx), %rdi                               #71.1
        movq      256(%rbx), %rbp                               #71.1
        cmpq      %rbp, %rdi                                    #71.1
        je        ..B11.20      # Prob 1%                       #71.1
                                # LOE rbx rbp rdi r12 r13 r14 r15
..B11.15:                       # Preds ..B11.14
        movq      %r15, 16(%rsp)                                #
	.cfi_offset 15, -32
        movq      %rdi, %r15                                    #
                                # LOE rbx rbp r12 r13 r14 r15
..B11.16:                       # Preds ..B11.18 ..B11.15
        movq      (%r15), %rdi                                  #71.1
        testq     %rdi, %rdi                                    #71.1
        je        ..B11.18      # Prob 72%                      #71.1
                                # LOE rbx rbp rdi r12 r13 r14 r15
..B11.17:                       # Preds ..B11.16
#       operator delete(void *)
        call      _ZdlPv@PLT                                    #71.1
                                # LOE rbx rbp r12 r13 r14 r15
..B11.18:                       # Preds ..B11.17 ..B11.16
        addq      $24, %r15                                     #71.1
        cmpq      %rbp, %r15                                    #71.1
        jne       ..B11.16      # Prob 82%                      #71.1
                                # LOE rbx rbp r12 r13 r14 r15
..B11.19:                       # Preds ..B11.18
        movq      16(%rsp), %r15                                #
	.cfi_restore 15
        movq      248(%rbx), %rdi                               #71.1
                                # LOE rbx rdi r12 r13 r14 r15
..B11.20:                       # Preds ..B11.19 ..B11.14
        testq     %rdi, %rdi                                    #71.1
        je        ..B11.22      # Prob 72%                      #71.1
                                # LOE rbx rdi r12 r13 r14 r15
..B11.21:                       # Preds ..B11.20
#       operator delete(void *)
        call      _ZdlPv@PLT                                    #71.1
                                # LOE rbx r12 r13 r14 r15
..B11.22:                       # Preds ..B11.21 ..B11.20
        movq      224(%rbx), %rdi                               #71.1
        testq     %rdi, %rdi                                    #71.1
        je        ..B11.24      # Prob 72%                      #71.1
                                # LOE rdi r12 r13 r14 r15
..B11.23:                       # Preds ..B11.22
#       operator delete(void *)
        call      _ZdlPv@PLT                                    #71.1
                                # LOE r12 r13 r14 r15
..B11.24:                       # Preds ..B11.23 ..B11.22
        addq      $24, %rsp                                     #71.1
	.cfi_def_cfa_offset 24
	.cfi_restore 6
        popq      %rbp                                          #71.1
	.cfi_def_cfa_offset 16
	.cfi_restore 3
        popq      %rbx                                          #71.1
	.cfi_def_cfa_offset 8
        ret                                                     #71.1
	.cfi_def_cfa_offset 48
	.cfi_offset 3, -16
	.cfi_offset 6, -24
                                # LOE
..B11.25:                       # Preds ..B11.10                # Infreq
        movl      $1140850688, %edi                             #61.13
        lea       8(%rsp), %rsi                                 #61.13
..___tag_value__ZN8yaskSiteD1Ev.161:
#       MPI_Comm_rank(MPI_Comm, int *)
        call      MPI_Comm_rank@PLT                             #61.13
..___tag_value__ZN8yaskSiteD1Ev.162:
                                # LOE rbx r12 r13 r14 r15 eax
..B11.27:                       # Preds ..B11.25                # Infreq
        testl     %eax, %eax                                    #61.13
        je        ..B11.29      # Prob 50%                      #61.13
                                # LOE rbx r12 r13 r14 r15
..B11.28:                       # Preds ..B11.27                # Infreq
        movl      $-1, 8(%rsp)                                  #61.13
        movq      stderr@GOTPCREL(%rip), %rbp                   #61.13
        jmp       ..B11.32      # Prob 100%                     #61.13
                                # LOE rbx rbp r12 r13 r14 r15
..B11.29:                       # Preds ..B11.27                # Infreq
        movl      8(%rsp), %r9d                                 #61.13
        testl     %r9d, %r9d                                    #61.13
        jne       ..B11.42      # Prob 50%                      #61.13
                                # LOE rbx r12 r13 r14 r15 r9d
..B11.30:                       # Preds ..B11.29                # Infreq
        lea       .L_2__STRING.1(%rip), %rsi                    #61.13
        movl      $47, %eax                                     #61.13
        movq      %rsi, %rdx                                    #61.13
        movq      %rdx, %rcx                                    #61.13
        movd      %eax, %xmm1                                   #61.13
        andq      $-16, %rdx                                    #61.13
        punpcklbw %xmm1, %xmm1                                  #61.13
        andl      $15, %ecx                                     #61.13
        punpcklbw %xmm1, %xmm1                                  #61.13
        pshufd    $0, %xmm1, %xmm1                              #61.13
        pxor      %xmm0, %xmm0                                  #61.13
        movdqa    (%rdx), %xmm2                                 #61.13
        pcmpeqb   %xmm2, %xmm0                                  #61.13
        pmovmskb  %xmm0, %r10d                                  #61.13
        pcmpeqb   %xmm1, %xmm2                                  #61.13
        shrl      %cl, %r10d                                    #61.13
        lea       -1(%r10), %rax                                #61.13
        xorl      %eax, %r10d                                   #61.13
        pmovmskb  %xmm2, %eax                                   #61.13
        shrl      %cl, %eax                                     #61.13
        andl      %r10d, %eax                                   #61.13
        je        ..L163        # Prob 60%                      #61.13
        bsr       %rax, %rax                                    #61.13
        addq      %rcx, %rax                                    #61.13
        addq      %rdx, %rax                                    #61.13
..L163:                                                         #
        orl       %r10d, %r10d                                  #61.13
        jg        ..L165        # Prob 60%                      #61.13
..L164:                                                         #
        call      __intel_sse2_strrchr@PLT                      #61.13
..L165:                                                         #
                                # LOE rax rbx rsi r12 r13 r14 r15 r9d
..B11.41:                       # Preds ..B11.30                # Infreq
        movq      stderr@GOTPCREL(%rip), %rbp                   #61.13
        testq     %rax, %rax                                    #61.13
        movl      %r9d, %edx                                    #61.13
        lea       1(%rax), %r8                                  #61.13
        cmove     %rsi, %r8                                     #61.13
        lea       .L_2__STRING.46(%rip), %rsi                   #61.13
        lea       __$U1(%rip), %rcx                             #61.13
        movl      $61, %r9d                                     #61.13
        xorl      %eax, %eax                                    #61.13
        movq      (%rbp), %rdi                                  #61.13
#       fprintf(FILE *, const char *, ...)
        call      fprintf@PLT                                   #61.13
                                # LOE rbx rbp r12 r13 r14 r15
..B11.31:                       # Preds ..B11.41                # Infreq
        movq      (%rbp), %rdi                                  #61.13
#       fflush(FILE *)
        call      fflush@PLT                                    #61.13
                                # LOE rbx rbp r12 r13 r14 r15
..B11.32:                       # Preds ..B11.31 ..B11.42 ..B11.28 # Infreq
        movl      $10, %edi                                     #61.13
        movq      (%rbp), %rsi                                  #61.13
        call      fputc@PLT                                     #61.13
                                # LOE rbx rbp r12 r13 r14 r15
..B11.33:                       # Preds ..B11.32                # Infreq
        movq      (%rbp), %rdi                                  #61.13
#       fflush(FILE *)
        call      fflush@PLT                                    #61.13
        jmp       ..B11.11      # Prob 100%                     #61.13
                                # LOE rbx r12 r13 r14 r15
..___tag_value__ZN8yaskSiteD1Ev.139:
..B11.34:                       # Preds ..B11.25 ..B11.8        # Infreq
        movq      %rax, (%rsp)                                  #46.1
                                # LOE rbx r12 r13 r14 r15
..B11.35:                       # Preds ..B11.34                # Infreq
        lea       248(%rbx), %rdi                               #46.1
#       std::vector<std::vector<int, std::allocator<int>>, std::allocator<std::vector<int, std::allocator<int>>>>::~vector(std::vector<std::vector<int, std::allocator<int>>, std::allocator<std::vector<int, std::allocator<int>>>> *)
        call      _ZNSt6vectorIS_IiSaIiEESaIS1_EED1Ev@PLT       #46.1
                                # LOE rbx r12 r13 r14 r15
..B11.36:                       # Preds ..B11.35                # Infreq
        addq      $224, %rbx                                    #46.1
        movq      %rbx, %rdi                                    #46.1
#       std::vector<const char *, std::allocator<const char *>>::~vector(std::vector<const char *, std::allocator<const char *>> *)
        call      _ZNSt6vectorIPKcSaIS1_EED1Ev@PLT              #46.1
                                # LOE r12 r13 r14 r15
..B11.37:                       # Preds ..B11.36                # Infreq
        xorl      %eax, %eax                                    #46.1
        movq      (%rsp), %rdi                                  #46.1
..___tag_value__ZN8yaskSiteD1Ev.166:
        call      __cxa_call_unexpected@PLT                     #46.1
..___tag_value__ZN8yaskSiteD1Ev.167:
                                # LOE r12 r13 r14 r15
..B11.38:                       # Preds ..B11.37                # Infreq
        movq      (%rsp), %rdi                                  #46.1
..___tag_value__ZN8yaskSiteD1Ev.168:
        call      _Unwind_Resume@PLT                            #46.1
..___tag_value__ZN8yaskSiteD1Ev.169:
                                # LOE
..B11.42:                       # Preds ..B11.29                # Infreq
        movq      stderr@GOTPCREL(%rip), %rbp                   #61.13
        jmp       ..B11.32      # Prob 100%                     #61.13
        .align    16,0x90
	.cfi_endproc
                                # LOE rbx rbp r12 r13 r14 r15
# mark_end;
	.type	_ZN8yaskSiteD1Ev,@function
	.size	_ZN8yaskSiteD1Ev,.-_ZN8yaskSiteD1Ev
	.section .gcc_except_table, "a"
	.align 4
_ZN8yaskSiteD1Ev$$LSDA:
	.byte	255
	.byte	155
	.uleb128	..___tag_value__ZN8yaskSiteD1Ev.174 - ..___tag_value__ZN8yaskSiteD1Ev.173
..___tag_value__ZN8yaskSiteD1Ev.173:
	.byte	1
	.uleb128	..___tag_value__ZN8yaskSiteD1Ev.172 - ..___tag_value__ZN8yaskSiteD1Ev.171
..___tag_value__ZN8yaskSiteD1Ev.171:
	.uleb128	..___tag_value__ZN8yaskSiteD1Ev.147 - ..___tag_value__ZN8yaskSiteD1Ev.140
	.uleb128	..___tag_value__ZN8yaskSiteD1Ev.162 - ..___tag_value__ZN8yaskSiteD1Ev.147
	.uleb128	..___tag_value__ZN8yaskSiteD1Ev.139 - ..___tag_value__ZN8yaskSiteD1Ev.140
	.byte	3
	.uleb128	..___tag_value__ZN8yaskSiteD1Ev.166 - ..___tag_value__ZN8yaskSiteD1Ev.140
	.uleb128	..___tag_value__ZN8yaskSiteD1Ev.169 - ..___tag_value__ZN8yaskSiteD1Ev.166
	.byte	0
	.byte	0
..___tag_value__ZN8yaskSiteD1Ev.172:
	.byte	127
	.byte	0
	.byte	0
	.byte	125
	.long	0
..___tag_value__ZN8yaskSiteD1Ev.174:
	.byte	0
	.data
# -- End  _ZN8yaskSiteD1Ev
	.text
# -- Begin  _ZN8yaskSite8cleanDirEv
	.text
# mark_begin;
       .align    16,0x90
	.globl _ZN8yaskSite8cleanDirEv
# --- yaskSite::cleanDir(yaskSite *)
_ZN8yaskSite8cleanDirEv:
# parameter 1: %rdi
..B12.1:                        # Preds ..B12.0

### {

	.cfi_startproc
	.cfi_personality 0x93,DW.ref.__gxx_personality_v0
..___tag_value__ZN8yaskSite8cleanDirEv.175:
..L176:
                                                        #80.1
        pushq     %r12                                          #80.1
	.cfi_def_cfa_offset 16
	.cfi_offset 12, -16
        subq      $16, %rsp                                     #80.1
	.cfi_def_cfa_offset 32
        movq      %rdi, %r12                                    #80.1

###     //remove the localDir
###     SYSTEM("rm -r -f %s", localDir);

        lea       .L_2__STRING.47(%rip), %rsi                   #82.5
        lea       (%rsp), %rdi                                  #82.5
        xorl      %eax, %eax                                    #82.5
        movq      40(%r12), %rdx                                #82.5
..___tag_value__ZN8yaskSite8cleanDirEv.180:
#       asprintf(char **, const char *, ...)
        call      asprintf@PLT                                  #82.5
..___tag_value__ZN8yaskSite8cleanDirEv.181:
                                # LOE rbx rbp r12 r13 r14 r15
..B12.2:                        # Preds ..B12.1
        lea       .L_2__STRING.18(%rip), %rsi                   #82.5
        lea       8(%rsp), %rdi                                 #82.5
        lea       .L_2__STRING.17(%rip), %rcx                   #82.5
        xorl      %eax, %eax                                    #82.5
        movq      (%rsp), %rdx                                  #82.5
..___tag_value__ZN8yaskSite8cleanDirEv.182:
#       asprintf(char **, const char *, ...)
        call      asprintf@PLT                                  #82.5
..___tag_value__ZN8yaskSite8cleanDirEv.183:
                                # LOE rbx rbp r12 r13 r14 r15
..B12.3:                        # Preds ..B12.2
        movq      %r12, %rdi                                    #82.5
        movq      8(%rsp), %rsi                                 #82.5
..___tag_value__ZN8yaskSite8cleanDirEv.184:
#       yaskSite::systemCall(yaskSite *, char *)
        call      _ZN8yaskSite10systemCallEPc@PLT               #82.5
..___tag_value__ZN8yaskSite8cleanDirEv.185:
                                # LOE rbx rbp r13 r14 r15
..B12.4:                        # Preds ..B12.3
        movq      (%rsp), %rdi                                  #82.5
#       free(void *)
        call      free@PLT                                      #82.5
                                # LOE rbx rbp r13 r14 r15
..B12.5:                        # Preds ..B12.4
        movq      8(%rsp), %rdi                                 #82.5
#       free(void *)
        call      free@PLT                                      #82.5
                                # LOE rbx rbp r13 r14 r15
..B12.6:                        # Preds ..B12.5

### }

        addq      $16, %rsp                                     #83.1
	.cfi_def_cfa_offset 16
	.cfi_restore 12
        popq      %r12                                          #83.1
	.cfi_def_cfa_offset 8
        ret                                                     #83.1
        .align    16,0x90
	.cfi_endproc
                                # LOE
# mark_end;
	.type	_ZN8yaskSite8cleanDirEv,@function
	.size	_ZN8yaskSite8cleanDirEv,.-_ZN8yaskSite8cleanDirEv
	.data
# -- End  _ZN8yaskSite8cleanDirEv
	.text
# -- Begin  _ZN8yaskSite11setSubBlockEiii
	.text
# mark_begin;
       .align    16,0x90
	.globl _ZN8yaskSite11setSubBlockEiii
# --- yaskSite::setSubBlock(yaskSite *, int, int, int)
_ZN8yaskSite11setSubBlockEiii:
# parameter 1: %rdi
# parameter 2: %esi
# parameter 3: %edx
# parameter 4: %ecx
..B13.1:                        # Preds ..B13.0

### {

	.cfi_startproc
	.cfi_personality 0x93,DW.ref.__gxx_personality_v0
..___tag_value__ZN8yaskSite11setSubBlockEiii.190:
..L191:
                                                        #179.1
        pushq     %r12                                          #179.1
	.cfi_def_cfa_offset 16
	.cfi_offset 12, -16
        pushq     %r13                                          #179.1
	.cfi_def_cfa_offset 24
	.cfi_offset 13, -24
        pushq     %r14                                          #179.1
	.cfi_def_cfa_offset 32
	.cfi_offset 14, -32
        pushq     %r15                                          #179.1
	.cfi_def_cfa_offset 40
	.cfi_offset 15, -40
        pushq     %rbx                                          #179.1
	.cfi_def_cfa_offset 48
	.cfi_offset 3, -48
        subq      $16, %rsp                                     #179.1
	.cfi_def_cfa_offset 64
        movq      %rdi, %r12                                    #179.1
        movl      %ecx, %ebx                                    #179.1
        movl      %edx, %r14d                                   #179.1
        movl      %esi, %r13d                                   #179.1

###     SYNC_WITH_DIM(z, y, x, "subBlock");

        movl      140(%r12), %eax                               #180.5
        cmpl      $1, %eax                                      #180.5
        je        ..B13.14      # Prob 16%                      #180.5
                                # LOE rbp r12 eax ebx r13d r14d
..B13.2:                        # Preds ..B13.33 ..B13.34 ..B13.1
        cmpl      $2, %eax                                      #180.5
        je        ..B13.4       # Prob 16%                      #180.5
                                # LOE rbp r12 ebx r13d r14d
..B13.3:                        # Preds ..B13.13 ..B13.4 ..B13.2

###     sbx=x;

        movl      %ebx, 76(%r12)                                #181.5

###     sby=y;

        movl      %r14d, 80(%r12)                               #182.5

###     sbz=z;

        movl      %r13d, 84(%r12)                               #183.5

###     subBlockUpdated = true;

        movb      $1, 161(%r12)                                 #184.5

### }

        addq      $16, %rsp                                     #185.1
	.cfi_def_cfa_offset 48
	.cfi_restore 3
        popq      %rbx                                          #185.1
	.cfi_def_cfa_offset 40
	.cfi_restore 15
        popq      %r15                                          #185.1
	.cfi_def_cfa_offset 32
	.cfi_restore 14
        popq      %r14                                          #185.1
	.cfi_def_cfa_offset 24
	.cfi_restore 13
        popq      %r13                                          #185.1
	.cfi_def_cfa_offset 16
	.cfi_restore 12
        popq      %r12                                          #185.1
	.cfi_def_cfa_offset 8
        ret                                                     #185.1
	.cfi_def_cfa_offset 64
	.cfi_offset 3, -48
	.cfi_offset 12, -16
	.cfi_offset 13, -24
	.cfi_offset 14, -32
	.cfi_offset 15, -40
                                # LOE
..B13.4:                        # Preds ..B13.2                 # Infreq
        cmpl      $1, %ebx                                      #180.5
        je        ..B13.3       # Prob 16%                      #180.5
                                # LOE rbp r12 ebx r13d r14d
..B13.5:                        # Preds ..B13.4                 # Infreq
        movl      $1140850688, %edi                             #180.5
        lea       8(%rsp), %rsi                                 #180.5
..___tag_value__ZN8yaskSite11setSubBlockEiii.220:
#       MPI_Comm_rank(MPI_Comm, int *)
        call      MPI_Comm_rank@PLT                             #180.5
..___tag_value__ZN8yaskSite11setSubBlockEiii.221:
                                # LOE rbp r12 eax ebx r13d r14d
..B13.6:                        # Preds ..B13.5                 # Infreq
        testl     %eax, %eax                                    #180.5
        je        ..B13.8       # Prob 50%                      #180.5
                                # LOE rbp r12 ebx r13d r14d
..B13.7:                        # Preds ..B13.6                 # Infreq
        movl      $-1, 8(%rsp)                                  #180.5
        movq      stderr@GOTPCREL(%rip), %r15                   #180.5
        jmp       ..B13.11      # Prob 100%                     #180.5
                                # LOE rbp r12 r15 r13d r14d
..B13.8:                        # Preds ..B13.6                 # Infreq
        movl      8(%rsp), %r9d                                 #180.5
        testl     %r9d, %r9d                                    #180.5
        jne       ..B13.48      # Prob 50%                      #180.5
                                # LOE rbp r12 ebx r9d r13d r14d
..B13.9:                        # Preds ..B13.8                 # Infreq
        lea       .L_2__STRING.1(%rip), %rsi                    #180.5
        movl      $47, %eax                                     #180.5
        movq      %rsi, %rdx                                    #180.5
        movq      %rdx, %rcx                                    #180.5
        movd      %eax, %xmm1                                   #180.5
        andq      $-16, %rdx                                    #180.5
        punpcklbw %xmm1, %xmm1                                  #180.5
        andl      $15, %ecx                                     #180.5
        punpcklbw %xmm1, %xmm1                                  #180.5
        pshufd    $0, %xmm1, %xmm1                              #180.5
        pxor      %xmm0, %xmm0                                  #180.5
        movdqa    (%rdx), %xmm2                                 #180.5
        pcmpeqb   %xmm2, %xmm0                                  #180.5
        pmovmskb  %xmm0, %r10d                                  #180.5
        pcmpeqb   %xmm1, %xmm2                                  #180.5
        shrl      %cl, %r10d                                    #180.5
        lea       -1(%r10), %rax                                #180.5
        xorl      %eax, %r10d                                   #180.5
        pmovmskb  %xmm2, %eax                                   #180.5
        shrl      %cl, %eax                                     #180.5
        andl      %r10d, %eax                                   #180.5
        je        ..L222        # Prob 60%                      #180.5
        bsr       %rax, %rax                                    #180.5
        addq      %rcx, %rax                                    #180.5
        addq      %rdx, %rax                                    #180.5
..L222:                                                         #
        orl       %r10d, %r10d                                  #180.5
        jg        ..L224        # Prob 60%                      #180.5
..L223:                                                         #
        call      __intel_sse2_strrchr@PLT                      #180.5
..L224:                                                         #
                                # LOE rax rbp rsi r12 ebx r9d r13d r14d
..B13.39:                       # Preds ..B13.9                 # Infreq
        addq      $-32, %rsp                                    #180.5
	.cfi_def_cfa_offset 96
        testq     %rax, %rax                                    #180.5
        movq      stderr@GOTPCREL(%rip), %r15                   #180.5
        lea       1(%rax), %r8                                  #180.5
        lea       .L_2__STRING.48(%rip), %r10                   #180.5
        cmove     %rsi, %r8                                     #180.5
        lea       .L_2__STRING.0(%rip), %rsi                    #180.5
        movl      %r9d, %edx                                    #180.5
        movq      %r10, (%rsp)                                  #180.5
        lea       __$U2(%rip), %rcx                             #180.5
        movl      %ebx, 8(%rsp)                                 #180.5
        movl      $180, %r9d                                    #180.5
        movl      140(%r12), %ebx                               #180.5
        xorl      %eax, %eax                                    #180.5
        movq      (%r15), %rdi                                  #180.5
        movl      %ebx, 16(%rsp)                                #180.5
#       fprintf(FILE *, const char *, ...)
        call      fprintf@PLT                                   #180.5
                                # LOE rbp r12 r15 r13d r14d
..B13.38:                       # Preds ..B13.39                # Infreq
        addq      $32, %rsp                                     #180.5
	.cfi_def_cfa_offset 64
                                # LOE rbp r12 r15 r13d r14d
..B13.10:                       # Preds ..B13.38                # Infreq
        movq      (%r15), %rdi                                  #180.5
#       fflush(FILE *)
        call      fflush@PLT                                    #180.5
                                # LOE rbp r12 r15 r13d r14d
..B13.11:                       # Preds ..B13.7 ..B13.10 ..B13.48 # Infreq
        movl      $10, %edi                                     #180.5
        movq      (%r15), %rsi                                  #180.5
        call      fputc@PLT                                     #180.5
                                # LOE rbp r12 r15 r13d r14d
..B13.12:                       # Preds ..B13.11                # Infreq
        movq      (%r15), %rdi                                  #180.5
#       fflush(FILE *)
        call      fflush@PLT                                    #180.5
                                # LOE rbp r12 r13d r14d
..B13.13:                       # Preds ..B13.12                # Infreq
        movl      $1, %ebx                                      #180.5
        jmp       ..B13.3       # Prob 100%                     #180.5
                                # LOE rbp r12 ebx r13d r14d
..B13.14:                       # Preds ..B13.1                 # Infreq
        cmpl      $1, %ebx                                      #180.5
        je        ..B13.24      # Prob 16%                      #180.5
                                # LOE rbp r12 ebx r13d r14d
..B13.15:                       # Preds ..B13.14                # Infreq
        movl      $1140850688, %edi                             #180.5
        lea       (%rsp), %rsi                                  #180.5
..___tag_value__ZN8yaskSite11setSubBlockEiii.227:
#       MPI_Comm_rank(MPI_Comm, int *)
        call      MPI_Comm_rank@PLT                             #180.5
..___tag_value__ZN8yaskSite11setSubBlockEiii.228:
                                # LOE rbp r12 eax ebx r13d r14d
..B13.16:                       # Preds ..B13.15                # Infreq
        testl     %eax, %eax                                    #180.5
        je        ..B13.18      # Prob 50%                      #180.5
                                # LOE rbp r12 ebx r13d r14d
..B13.17:                       # Preds ..B13.16                # Infreq
        movl      $-1, (%rsp)                                   #180.5
        movq      stderr@GOTPCREL(%rip), %r15                   #180.5
        jmp       ..B13.21      # Prob 100%                     #180.5
                                # LOE rbp r12 r15 r13d r14d
..B13.18:                       # Preds ..B13.16                # Infreq
        movl      (%rsp), %r9d                                  #180.5
        testl     %r9d, %r9d                                    #180.5
        jne       ..B13.47      # Prob 50%                      #180.5
                                # LOE rbp r12 ebx r9d r13d r14d
..B13.19:                       # Preds ..B13.18                # Infreq
        lea       .L_2__STRING.1(%rip), %rsi                    #180.5
        movl      $47, %eax                                     #180.5
        movq      %rsi, %rdx                                    #180.5
        movq      %rdx, %rcx                                    #180.5
        movd      %eax, %xmm1                                   #180.5
        andq      $-16, %rdx                                    #180.5
        punpcklbw %xmm1, %xmm1                                  #180.5
        andl      $15, %ecx                                     #180.5
        punpcklbw %xmm1, %xmm1                                  #180.5
        pshufd    $0, %xmm1, %xmm1                              #180.5
        pxor      %xmm0, %xmm0                                  #180.5
        movdqa    (%rdx), %xmm2                                 #180.5
        pcmpeqb   %xmm2, %xmm0                                  #180.5
        pmovmskb  %xmm0, %r10d                                  #180.5
        pcmpeqb   %xmm1, %xmm2                                  #180.5
        shrl      %cl, %r10d                                    #180.5
        lea       -1(%r10), %rax                                #180.5
        xorl      %eax, %r10d                                   #180.5
        pmovmskb  %xmm2, %eax                                   #180.5
        shrl      %cl, %eax                                     #180.5
        andl      %r10d, %eax                                   #180.5
        je        ..L229        # Prob 60%                      #180.5
        bsr       %rax, %rax                                    #180.5
        addq      %rcx, %rax                                    #180.5
        addq      %rdx, %rax                                    #180.5
..L229:                                                         #
        orl       %r10d, %r10d                                  #180.5
        jg        ..L231        # Prob 60%                      #180.5
..L230:                                                         #
        call      __intel_sse2_strrchr@PLT                      #180.5
..L231:                                                         #
                                # LOE rax rbp rsi r12 ebx r9d r13d r14d
..B13.42:                       # Preds ..B13.19                # Infreq
        addq      $-32, %rsp                                    #180.5
	.cfi_def_cfa_offset 96
        testq     %rax, %rax                                    #180.5
        movq      stderr@GOTPCREL(%rip), %r15                   #180.5
        lea       1(%rax), %r8                                  #180.5
        lea       .L_2__STRING.48(%rip), %r10                   #180.5
        cmove     %rsi, %r8                                     #180.5
        lea       .L_2__STRING.0(%rip), %rsi                    #180.5
        movl      %r9d, %edx                                    #180.5
        movq      %r10, (%rsp)                                  #180.5
        lea       __$U2(%rip), %rcx                             #180.5
        movl      %ebx, 8(%rsp)                                 #180.5
        movl      $180, %r9d                                    #180.5
        movl      140(%r12), %ebx                               #180.5
        xorl      %eax, %eax                                    #180.5
        movq      (%r15), %rdi                                  #180.5
        movl      %ebx, 16(%rsp)                                #180.5
#       fprintf(FILE *, const char *, ...)
        call      fprintf@PLT                                   #180.5
                                # LOE rbp r12 r15 r13d r14d
..B13.41:                       # Preds ..B13.42                # Infreq
        addq      $32, %rsp                                     #180.5
	.cfi_def_cfa_offset 64
                                # LOE rbp r12 r15 r13d r14d
..B13.20:                       # Preds ..B13.41                # Infreq
        movq      (%r15), %rdi                                  #180.5
#       fflush(FILE *)
        call      fflush@PLT                                    #180.5
                                # LOE rbp r12 r15 r13d r14d
..B13.21:                       # Preds ..B13.17 ..B13.20 ..B13.47 # Infreq
        movl      $10, %edi                                     #180.5
        movq      (%r15), %rsi                                  #180.5
        call      fputc@PLT                                     #180.5
                                # LOE rbp r12 r15 r13d r14d
..B13.22:                       # Preds ..B13.21                # Infreq
        movq      (%r15), %rdi                                  #180.5
#       fflush(FILE *)
        call      fflush@PLT                                    #180.5
                                # LOE rbp r12 r13d r14d
..B13.23:                       # Preds ..B13.22                # Infreq
        movl      $1, %ebx                                      #180.5
                                # LOE rbp r12 ebx r13d r14d
..B13.24:                       # Preds ..B13.23 ..B13.14       # Infreq
        cmpl      $1, %r14d                                     #180.5
        je        ..B13.34      # Prob 16%                      #180.5
                                # LOE rbp r12 ebx r13d r14d
..B13.25:                       # Preds ..B13.24                # Infreq
        movl      $1140850688, %edi                             #180.5
        lea       4(%rsp), %rsi                                 #180.5
..___tag_value__ZN8yaskSite11setSubBlockEiii.234:
#       MPI_Comm_rank(MPI_Comm, int *)
        call      MPI_Comm_rank@PLT                             #180.5
..___tag_value__ZN8yaskSite11setSubBlockEiii.235:
                                # LOE rbp r12 eax ebx r13d
..B13.26:                       # Preds ..B13.25                # Infreq
        testl     %eax, %eax                                    #180.5
        je        ..B13.28      # Prob 50%                      #180.5
                                # LOE rbp r12 ebx r13d
..B13.27:                       # Preds ..B13.26                # Infreq
        movl      $-1, 4(%rsp)                                  #180.5
        movq      stderr@GOTPCREL(%rip), %r14                   #180.5
        jmp       ..B13.31      # Prob 100%                     #180.5
                                # LOE rbp r12 r14 ebx r13d
..B13.28:                       # Preds ..B13.26                # Infreq
        movl      4(%rsp), %r9d                                 #180.5
        testl     %r9d, %r9d                                    #180.5
        jne       ..B13.46      # Prob 50%                      #180.5
                                # LOE rbp r12 ebx r9d r13d
..B13.29:                       # Preds ..B13.28                # Infreq
        lea       .L_2__STRING.1(%rip), %rsi                    #180.5
        movl      $47, %eax                                     #180.5
        movq      %rsi, %rdx                                    #180.5
        movq      %rdx, %rcx                                    #180.5
        movd      %eax, %xmm1                                   #180.5
        andq      $-16, %rdx                                    #180.5
        punpcklbw %xmm1, %xmm1                                  #180.5
        andl      $15, %ecx                                     #180.5
        punpcklbw %xmm1, %xmm1                                  #180.5
        pshufd    $0, %xmm1, %xmm1                              #180.5
        pxor      %xmm0, %xmm0                                  #180.5
        movdqa    (%rdx), %xmm2                                 #180.5
        pcmpeqb   %xmm2, %xmm0                                  #180.5
        pmovmskb  %xmm0, %r10d                                  #180.5
        pcmpeqb   %xmm1, %xmm2                                  #180.5
        shrl      %cl, %r10d                                    #180.5
        lea       -1(%r10), %rax                                #180.5
        xorl      %eax, %r10d                                   #180.5
        pmovmskb  %xmm2, %eax                                   #180.5
        shrl      %cl, %eax                                     #180.5
        andl      %r10d, %eax                                   #180.5
        je        ..L236        # Prob 60%                      #180.5
        bsr       %rax, %rax                                    #180.5
        addq      %rcx, %rax                                    #180.5
        addq      %rdx, %rax                                    #180.5
..L236:                                                         #
        orl       %r10d, %r10d                                  #180.5
        jg        ..L238        # Prob 60%                      #180.5
..L237:                                                         #
        call      __intel_sse2_strrchr@PLT                      #180.5
..L238:                                                         #
                                # LOE rax rbp rsi r12 ebx r9d r13d
..B13.45:                       # Preds ..B13.29                # Infreq
        addq      $-32, %rsp                                    #180.5
	.cfi_def_cfa_offset 96
        testq     %rax, %rax                                    #180.5
        movq      stderr@GOTPCREL(%rip), %r14                   #180.5
        lea       1(%rax), %r8                                  #180.5
        movl      140(%r12), %r11d                              #180.5
        cmove     %rsi, %r8                                     #180.5
        lea       .L_2__STRING.4(%rip), %rsi                    #180.5
        movl      %r9d, %edx                                    #180.5
        lea       __$U2(%rip), %rcx                             #180.5
        movl      $180, %r9d                                    #180.5
        xorl      %eax, %eax                                    #180.5
        lea       .L_2__STRING.48(%rip), %r10                   #180.5
        movq      %r10, (%rsp)                                  #180.5
        movl      %ebx, 8(%rsp)                                 #180.5
        movq      (%r14), %rdi                                  #180.5
        movl      %r11d, 16(%rsp)                               #180.5
#       fprintf(FILE *, const char *, ...)
        call      fprintf@PLT                                   #180.5
                                # LOE rbp r12 r14 ebx r13d
..B13.44:                       # Preds ..B13.45                # Infreq
        addq      $32, %rsp                                     #180.5
	.cfi_def_cfa_offset 64
                                # LOE rbp r12 r14 ebx r13d
..B13.30:                       # Preds ..B13.44                # Infreq
        movq      (%r14), %rdi                                  #180.5
#       fflush(FILE *)
        call      fflush@PLT                                    #180.5
                                # LOE rbp r12 r14 ebx r13d
..B13.31:                       # Preds ..B13.27 ..B13.30 ..B13.46 # Infreq
        movl      $10, %edi                                     #180.5
        movq      (%r14), %rsi                                  #180.5
        call      fputc@PLT                                     #180.5
                                # LOE rbp r12 r14 ebx r13d
..B13.32:                       # Preds ..B13.31                # Infreq
        movq      (%r14), %rdi                                  #180.5
#       fflush(FILE *)
        call      fflush@PLT                                    #180.5
                                # LOE rbp r12 ebx r13d
..B13.33:                       # Preds ..B13.32                # Infreq
        movl      140(%r12), %eax                               #180.5
        movl      $1, %r14d                                     #180.5
        jmp       ..B13.2       # Prob 100%                     #180.5
                                # LOE rbp r12 eax ebx r13d r14d
..B13.34:                       # Preds ..B13.24                # Infreq
        movl      140(%r12), %eax                               #180.5
        jmp       ..B13.2       # Prob 100%                     #180.5
                                # LOE rbp r12 eax ebx r13d r14d
..B13.46:                       # Preds ..B13.28                # Infreq
        movq      stderr@GOTPCREL(%rip), %r14                   #180.5
        jmp       ..B13.31      # Prob 100%                     #180.5
                                # LOE rbp r12 r14 ebx r13d
..B13.47:                       # Preds ..B13.18                # Infreq
        movq      stderr@GOTPCREL(%rip), %r15                   #180.5
        jmp       ..B13.21      # Prob 100%                     #180.5
                                # LOE rbp r12 r15 r13d r14d
..B13.48:                       # Preds ..B13.8                 # Infreq
        movq      stderr@GOTPCREL(%rip), %r15                   #180.5
        jmp       ..B13.11      # Prob 100%                     #180.5
        .align    16,0x90
	.cfi_endproc
                                # LOE rbp r12 r15 r13d r14d
# mark_end;
	.type	_ZN8yaskSite11setSubBlockEiii,@function
	.size	_ZN8yaskSite11setSubBlockEiii,.-_ZN8yaskSite11setSubBlockEiii
	.data
# -- End  _ZN8yaskSite11setSubBlockEiii
	.text
# -- Begin  _ZN8yaskSite8setBlockEiiib
	.text
# mark_begin;
       .align    16,0x90
	.globl _ZN8yaskSite8setBlockEiiib
# --- yaskSite::setBlock(yaskSite *, int, int, int, bool)
_ZN8yaskSite8setBlockEiiib:
# parameter 1: %rdi
# parameter 2: %esi
# parameter 3: %edx
# parameter 4: %ecx
# parameter 5: %r8d
..B14.1:                        # Preds ..B14.0

### {

	.cfi_startproc
	.cfi_personality 0x93,DW.ref.__gxx_personality_v0
..___tag_value__ZN8yaskSite8setBlockEiiib.242:
..L243:
                                                        #189.1
        pushq     %r12                                          #189.1
	.cfi_def_cfa_offset 16
	.cfi_offset 12, -16
        pushq     %r13                                          #189.1
	.cfi_def_cfa_offset 24
	.cfi_offset 13, -24
        pushq     %r14                                          #189.1
	.cfi_def_cfa_offset 32
	.cfi_offset 14, -32
        pushq     %r15                                          #189.1
	.cfi_def_cfa_offset 40
	.cfi_offset 15, -40
        pushq     %rbx                                          #189.1
	.cfi_def_cfa_offset 48
	.cfi_offset 3, -48
        pushq     %rbp                                          #189.1
	.cfi_def_cfa_offset 56
	.cfi_offset 6, -56
        subq      $24, %rsp                                     #189.1
	.cfi_def_cfa_offset 80
        movq      %rdi, %rbp                                    #189.1
        movl      %r8d, %r14d                                   #189.1
        movl      %ecx, %ebx                                    #189.1
        movl      %edx, %r13d                                   #189.1
        movl      %esi, %r12d                                   #189.1

###     SYNC_WITH_DIM(z, y, x, "block");

        movl      140(%rbp), %eax                               #190.5
        cmpl      $1, %eax                                      #190.5
        je        ..B14.16      # Prob 16%                      #190.5
                                # LOE rbp eax ebx r12d r13d r14d
..B14.2:                        # Preds ..B14.35 ..B14.36 ..B14.1
        cmpl      $2, %eax                                      #190.5
        je        ..B14.6       # Prob 16%                      #190.5
                                # LOE rbp ebx r12d r13d r14d
..B14.3:                        # Preds ..B14.15 ..B14.6 ..B14.2

###     bx=x;

        movl      %ebx, 88(%rbp)                                #191.5

###     by=y;
###     bz=z;
###     blockUpdated = true;
### 
###     if(resetOthers)

        testb     %r14b, %r14b                                  #196.8
        movl      %r13d, 92(%rbp)                               #192.5
        movl      %r12d, 96(%rbp)                               #193.5
        movb      $1, 162(%rbp)                                 #194.5
        jne       ..B14.5       # Prob 5%                       #196.8
                                # LOE rbp
..B14.4:                        # Preds ..B14.3

###     {
###         setDefaultSubBlock();
###     }
### }

        addq      $24, %rsp                                     #200.1
	.cfi_def_cfa_offset 56
	.cfi_restore 6
        popq      %rbp                                          #200.1
	.cfi_def_cfa_offset 48
	.cfi_restore 3
        popq      %rbx                                          #200.1
	.cfi_def_cfa_offset 40
	.cfi_restore 15
        popq      %r15                                          #200.1
	.cfi_def_cfa_offset 32
	.cfi_restore 14
        popq      %r14                                          #200.1
	.cfi_def_cfa_offset 24
	.cfi_restore 13
        popq      %r13                                          #200.1
	.cfi_def_cfa_offset 16
	.cfi_restore 12
        popq      %r12                                          #200.1
	.cfi_def_cfa_offset 8
        ret                                                     #200.1
	.cfi_def_cfa_offset 80
	.cfi_offset 3, -48
	.cfi_offset 6, -56
	.cfi_offset 12, -16
	.cfi_offset 13, -24
	.cfi_offset 14, -32
	.cfi_offset 15, -40
                                # LOE
..B14.5:                        # Preds ..B14.3                 # Infreq
        movq      %rbp, %rdi                                    #198.9
..___tag_value__ZN8yaskSite8setBlockEiiib.277:
#       yaskSite::setDefaultSubBlock(yaskSite *)
        call      _ZN8yaskSite18setDefaultSubBlockEv@PLT        #198.9
..___tag_value__ZN8yaskSite8setBlockEiiib.278:
        addq      $24, %rsp                                     #198.9
	.cfi_def_cfa_offset 56
	.cfi_restore 6
        popq      %rbp                                          #198.9
	.cfi_def_cfa_offset 48
	.cfi_restore 3
        popq      %rbx                                          #198.9
	.cfi_def_cfa_offset 40
	.cfi_restore 15
        popq      %r15                                          #198.9
	.cfi_def_cfa_offset 32
	.cfi_restore 14
        popq      %r14                                          #198.9
	.cfi_def_cfa_offset 24
	.cfi_restore 13
        popq      %r13                                          #198.9
	.cfi_def_cfa_offset 16
	.cfi_restore 12
        popq      %r12                                          #198.9
	.cfi_def_cfa_offset 8
        ret                                                     #198.9
	.cfi_def_cfa_offset 80
	.cfi_offset 3, -48
	.cfi_offset 6, -56
	.cfi_offset 12, -16
	.cfi_offset 13, -24
	.cfi_offset 14, -32
	.cfi_offset 15, -40
                                # LOE
..B14.6:                        # Preds ..B14.2                 # Infreq
        cmpl      $1, %ebx                                      #190.5
        je        ..B14.3       # Prob 16%                      #190.5
                                # LOE rbp ebx r12d r13d r14d
..B14.7:                        # Preds ..B14.6                 # Infreq
        movl      $1140850688, %edi                             #190.5
        lea       8(%rsp), %rsi                                 #190.5
..___tag_value__ZN8yaskSite8setBlockEiiib.299:
#       MPI_Comm_rank(MPI_Comm, int *)
        call      MPI_Comm_rank@PLT                             #190.5
..___tag_value__ZN8yaskSite8setBlockEiiib.300:
                                # LOE rbp eax ebx r12d r13d r14d
..B14.8:                        # Preds ..B14.7                 # Infreq
        testl     %eax, %eax                                    #190.5
        je        ..B14.10      # Prob 50%                      #190.5
                                # LOE rbp ebx r12d r13d r14d
..B14.9:                        # Preds ..B14.8                 # Infreq
        movl      $-1, 8(%rsp)                                  #190.5
        movq      stderr@GOTPCREL(%rip), %r15                   #190.5
        jmp       ..B14.13      # Prob 100%                     #190.5
                                # LOE rbp r15 r12d r13d r14d
..B14.10:                       # Preds ..B14.8                 # Infreq
        movl      8(%rsp), %r9d                                 #190.5
        testl     %r9d, %r9d                                    #190.5
        jne       ..B14.50      # Prob 50%                      #190.5
                                # LOE rbp ebx r9d r12d r13d r14d
..B14.11:                       # Preds ..B14.10                # Infreq
        lea       .L_2__STRING.1(%rip), %rsi                    #190.5
        movl      $47, %eax                                     #190.5
        movq      %rsi, %rdx                                    #190.5
        movq      %rdx, %rcx                                    #190.5
        movd      %eax, %xmm1                                   #190.5
        andq      $-16, %rdx                                    #190.5
        punpcklbw %xmm1, %xmm1                                  #190.5
        andl      $15, %ecx                                     #190.5
        punpcklbw %xmm1, %xmm1                                  #190.5
        pshufd    $0, %xmm1, %xmm1                              #190.5
        pxor      %xmm0, %xmm0                                  #190.5
        movdqa    (%rdx), %xmm2                                 #190.5
        pcmpeqb   %xmm2, %xmm0                                  #190.5
        pmovmskb  %xmm0, %r10d                                  #190.5
        pcmpeqb   %xmm1, %xmm2                                  #190.5
        shrl      %cl, %r10d                                    #190.5
        lea       -1(%r10), %rax                                #190.5
        xorl      %eax, %r10d                                   #190.5
        pmovmskb  %xmm2, %eax                                   #190.5
        shrl      %cl, %eax                                     #190.5
        andl      %r10d, %eax                                   #190.5
        je        ..L301        # Prob 60%                      #190.5
        bsr       %rax, %rax                                    #190.5
        addq      %rcx, %rax                                    #190.5
        addq      %rdx, %rax                                    #190.5
..L301:                                                         #
        orl       %r10d, %r10d                                  #190.5
        jg        ..L303        # Prob 60%                      #190.5
..L302:                                                         #
        call      __intel_sse2_strrchr@PLT                      #190.5
..L303:                                                         #
                                # LOE rax rbp rsi ebx r9d r12d r13d r14d
..B14.41:                       # Preds ..B14.11                # Infreq
        addq      $-32, %rsp                                    #190.5
	.cfi_def_cfa_offset 112
        testq     %rax, %rax                                    #190.5
        movq      stderr@GOTPCREL(%rip), %r15                   #190.5
        lea       1(%rax), %r8                                  #190.5
        lea       .L_2__STRING.49(%rip), %r10                   #190.5
        cmove     %rsi, %r8                                     #190.5
        lea       .L_2__STRING.0(%rip), %rsi                    #190.5
        movl      %r9d, %edx                                    #190.5
        movq      %r10, (%rsp)                                  #190.5
        lea       __$U3(%rip), %rcx                             #190.5
        movl      %ebx, 8(%rsp)                                 #190.5
        movl      $190, %r9d                                    #190.5
        movl      140(%rbp), %ebx                               #190.5
        xorl      %eax, %eax                                    #190.5
        movq      (%r15), %rdi                                  #190.5
        movl      %ebx, 16(%rsp)                                #190.5
#       fprintf(FILE *, const char *, ...)
        call      fprintf@PLT                                   #190.5
                                # LOE rbp r15 r12d r13d r14d
..B14.40:                       # Preds ..B14.41                # Infreq
        addq      $32, %rsp                                     #190.5
	.cfi_def_cfa_offset 80
                                # LOE rbp r15 r12d r13d r14d
..B14.12:                       # Preds ..B14.40                # Infreq
        movq      (%r15), %rdi                                  #190.5
#       fflush(FILE *)
        call      fflush@PLT                                    #190.5
                                # LOE rbp r15 r12d r13d r14d
..B14.13:                       # Preds ..B14.9 ..B14.12 ..B14.50 # Infreq
        movl      $10, %edi                                     #190.5
        movq      (%r15), %rsi                                  #190.5
        call      fputc@PLT                                     #190.5
                                # LOE rbp r15 r12d r13d r14d
..B14.14:                       # Preds ..B14.13                # Infreq
        movq      (%r15), %rdi                                  #190.5
#       fflush(FILE *)
        call      fflush@PLT                                    #190.5
                                # LOE rbp r12d r13d r14d
..B14.15:                       # Preds ..B14.14                # Infreq
        movl      $1, %ebx                                      #190.5
        jmp       ..B14.3       # Prob 100%                     #190.5
                                # LOE rbp ebx r12d r13d r14d
..B14.16:                       # Preds ..B14.1                 # Infreq
        cmpl      $1, %ebx                                      #190.5
        je        ..B14.26      # Prob 16%                      #190.5
                                # LOE rbp ebx r12d r13d r14d
..B14.17:                       # Preds ..B14.16                # Infreq
        movl      $1140850688, %edi                             #190.5
        lea       (%rsp), %rsi                                  #190.5
..___tag_value__ZN8yaskSite8setBlockEiiib.306:
#       MPI_Comm_rank(MPI_Comm, int *)
        call      MPI_Comm_rank@PLT                             #190.5
..___tag_value__ZN8yaskSite8setBlockEiiib.307:
                                # LOE rbp eax ebx r12d r13d r14d
..B14.18:                       # Preds ..B14.17                # Infreq
        testl     %eax, %eax                                    #190.5
        je        ..B14.20      # Prob 50%                      #190.5
                                # LOE rbp ebx r12d r13d r14d
..B14.19:                       # Preds ..B14.18                # Infreq
        movl      $-1, (%rsp)                                   #190.5
        movq      stderr@GOTPCREL(%rip), %r15                   #190.5
        jmp       ..B14.23      # Prob 100%                     #190.5
                                # LOE rbp r15 r12d r13d r14d
..B14.20:                       # Preds ..B14.18                # Infreq
        movl      (%rsp), %r9d                                  #190.5
        testl     %r9d, %r9d                                    #190.5
        jne       ..B14.49      # Prob 50%                      #190.5
                                # LOE rbp ebx r9d r12d r13d r14d
..B14.21:                       # Preds ..B14.20                # Infreq
        lea       .L_2__STRING.1(%rip), %rsi                    #190.5
        movl      $47, %eax                                     #190.5
        movq      %rsi, %rdx                                    #190.5
        movq      %rdx, %rcx                                    #190.5
        movd      %eax, %xmm1                                   #190.5
        andq      $-16, %rdx                                    #190.5
        punpcklbw %xmm1, %xmm1                                  #190.5
        andl      $15, %ecx                                     #190.5
        punpcklbw %xmm1, %xmm1                                  #190.5
        pshufd    $0, %xmm1, %xmm1                              #190.5
        pxor      %xmm0, %xmm0                                  #190.5
        movdqa    (%rdx), %xmm2                                 #190.5
        pcmpeqb   %xmm2, %xmm0                                  #190.5
        pmovmskb  %xmm0, %r10d                                  #190.5
        pcmpeqb   %xmm1, %xmm2                                  #190.5
        shrl      %cl, %r10d                                    #190.5
        lea       -1(%r10), %rax                                #190.5
        xorl      %eax, %r10d                                   #190.5
        pmovmskb  %xmm2, %eax                                   #190.5
        shrl      %cl, %eax                                     #190.5
        andl      %r10d, %eax                                   #190.5
        je        ..L308        # Prob 60%                      #190.5
        bsr       %rax, %rax                                    #190.5
        addq      %rcx, %rax                                    #190.5
        addq      %rdx, %rax                                    #190.5
..L308:                                                         #
        orl       %r10d, %r10d                                  #190.5
        jg        ..L310        # Prob 60%                      #190.5
..L309:                                                         #
        call      __intel_sse2_strrchr@PLT                      #190.5
..L310:                                                         #
                                # LOE rax rbp rsi ebx r9d r12d r13d r14d
..B14.44:                       # Preds ..B14.21                # Infreq
        addq      $-32, %rsp                                    #190.5
	.cfi_def_cfa_offset 112
        testq     %rax, %rax                                    #190.5
        movq      stderr@GOTPCREL(%rip), %r15                   #190.5
        lea       1(%rax), %r8                                  #190.5
        lea       .L_2__STRING.49(%rip), %r10                   #190.5
        cmove     %rsi, %r8                                     #190.5
        lea       .L_2__STRING.0(%rip), %rsi                    #190.5
        movl      %r9d, %edx                                    #190.5
        movq      %r10, (%rsp)                                  #190.5
        lea       __$U3(%rip), %rcx                             #190.5
        movl      %ebx, 8(%rsp)                                 #190.5
        movl      $190, %r9d                                    #190.5
        movl      140(%rbp), %ebx                               #190.5
        xorl      %eax, %eax                                    #190.5
        movq      (%r15), %rdi                                  #190.5
        movl      %ebx, 16(%rsp)                                #190.5
#       fprintf(FILE *, const char *, ...)
        call      fprintf@PLT                                   #190.5
                                # LOE rbp r15 r12d r13d r14d
..B14.43:                       # Preds ..B14.44                # Infreq
        addq      $32, %rsp                                     #190.5
	.cfi_def_cfa_offset 80
                                # LOE rbp r15 r12d r13d r14d
..B14.22:                       # Preds ..B14.43                # Infreq
        movq      (%r15), %rdi                                  #190.5
#       fflush(FILE *)
        call      fflush@PLT                                    #190.5
                                # LOE rbp r15 r12d r13d r14d
..B14.23:                       # Preds ..B14.19 ..B14.22 ..B14.49 # Infreq
        movl      $10, %edi                                     #190.5
        movq      (%r15), %rsi                                  #190.5
        call      fputc@PLT                                     #190.5
                                # LOE rbp r15 r12d r13d r14d
..B14.24:                       # Preds ..B14.23                # Infreq
        movq      (%r15), %rdi                                  #190.5
#       fflush(FILE *)
        call      fflush@PLT                                    #190.5
                                # LOE rbp r12d r13d r14d
..B14.25:                       # Preds ..B14.24                # Infreq
        movl      $1, %ebx                                      #190.5
                                # LOE rbp ebx r12d r13d r14d
..B14.26:                       # Preds ..B14.25 ..B14.16       # Infreq
        cmpl      $1, %r13d                                     #190.5
        je        ..B14.36      # Prob 16%                      #190.5
                                # LOE rbp ebx r12d r13d r14d
..B14.27:                       # Preds ..B14.26                # Infreq
        movl      $1140850688, %edi                             #190.5
        lea       4(%rsp), %rsi                                 #190.5
..___tag_value__ZN8yaskSite8setBlockEiiib.313:
#       MPI_Comm_rank(MPI_Comm, int *)
        call      MPI_Comm_rank@PLT                             #190.5
..___tag_value__ZN8yaskSite8setBlockEiiib.314:
                                # LOE rbp eax ebx r12d r14d
..B14.28:                       # Preds ..B14.27                # Infreq
        testl     %eax, %eax                                    #190.5
        je        ..B14.30      # Prob 50%                      #190.5
                                # LOE rbp ebx r12d r14d
..B14.29:                       # Preds ..B14.28                # Infreq
        movl      $-1, 4(%rsp)                                  #190.5
        movq      stderr@GOTPCREL(%rip), %r13                   #190.5
        jmp       ..B14.33      # Prob 100%                     #190.5
                                # LOE rbp r13 ebx r12d r14d
..B14.30:                       # Preds ..B14.28                # Infreq
        movl      4(%rsp), %r9d                                 #190.5
        testl     %r9d, %r9d                                    #190.5
        jne       ..B14.48      # Prob 50%                      #190.5
                                # LOE rbp ebx r9d r12d r14d
..B14.31:                       # Preds ..B14.30                # Infreq
        lea       .L_2__STRING.1(%rip), %rsi                    #190.5
        movl      $47, %eax                                     #190.5
        movq      %rsi, %rdx                                    #190.5
        movq      %rdx, %rcx                                    #190.5
        movd      %eax, %xmm1                                   #190.5
        andq      $-16, %rdx                                    #190.5
        punpcklbw %xmm1, %xmm1                                  #190.5
        andl      $15, %ecx                                     #190.5
        punpcklbw %xmm1, %xmm1                                  #190.5
        pshufd    $0, %xmm1, %xmm1                              #190.5
        pxor      %xmm0, %xmm0                                  #190.5
        movdqa    (%rdx), %xmm2                                 #190.5
        pcmpeqb   %xmm2, %xmm0                                  #190.5
        pmovmskb  %xmm0, %r10d                                  #190.5
        pcmpeqb   %xmm1, %xmm2                                  #190.5
        shrl      %cl, %r10d                                    #190.5
        lea       -1(%r10), %rax                                #190.5
        xorl      %eax, %r10d                                   #190.5
        pmovmskb  %xmm2, %eax                                   #190.5
        shrl      %cl, %eax                                     #190.5
        andl      %r10d, %eax                                   #190.5
        je        ..L315        # Prob 60%                      #190.5
        bsr       %rax, %rax                                    #190.5
        addq      %rcx, %rax                                    #190.5
        addq      %rdx, %rax                                    #190.5
..L315:                                                         #
        orl       %r10d, %r10d                                  #190.5
        jg        ..L317        # Prob 60%                      #190.5
..L316:                                                         #
        call      __intel_sse2_strrchr@PLT                      #190.5
..L317:                                                         #
                                # LOE rax rbp rsi ebx r9d r12d r14d
..B14.47:                       # Preds ..B14.31                # Infreq
        addq      $-32, %rsp                                    #190.5
	.cfi_def_cfa_offset 112
        testq     %rax, %rax                                    #190.5
        movq      stderr@GOTPCREL(%rip), %r13                   #190.5
        lea       1(%rax), %r8                                  #190.5
        movl      140(%rbp), %r11d                              #190.5
        cmove     %rsi, %r8                                     #190.5
        lea       .L_2__STRING.4(%rip), %rsi                    #190.5
        movl      %r9d, %edx                                    #190.5
        lea       __$U3(%rip), %rcx                             #190.5
        movl      $190, %r9d                                    #190.5
        xorl      %eax, %eax                                    #190.5
        lea       .L_2__STRING.49(%rip), %r10                   #190.5
        movq      %r10, (%rsp)                                  #190.5
        movl      %ebx, 8(%rsp)                                 #190.5
        movq      (%r13), %rdi                                  #190.5
        movl      %r11d, 16(%rsp)                               #190.5
#       fprintf(FILE *, const char *, ...)
        call      fprintf@PLT                                   #190.5
                                # LOE rbp r13 ebx r12d r14d
..B14.46:                       # Preds ..B14.47                # Infreq
        addq      $32, %rsp                                     #190.5
	.cfi_def_cfa_offset 80
                                # LOE rbp r13 ebx r12d r14d
..B14.32:                       # Preds ..B14.46                # Infreq
        movq      (%r13), %rdi                                  #190.5
#       fflush(FILE *)
        call      fflush@PLT                                    #190.5
                                # LOE rbp r13 ebx r12d r14d
..B14.33:                       # Preds ..B14.29 ..B14.32 ..B14.48 # Infreq
        movl      $10, %edi                                     #190.5
        movq      (%r13), %rsi                                  #190.5
        call      fputc@PLT                                     #190.5
                                # LOE rbp r13 ebx r12d r14d
..B14.34:                       # Preds ..B14.33                # Infreq
        movq      (%r13), %rdi                                  #190.5
#       fflush(FILE *)
        call      fflush@PLT                                    #190.5
                                # LOE rbp ebx r12d r14d
..B14.35:                       # Preds ..B14.34                # Infreq
        movl      140(%rbp), %eax                               #190.5
        movl      $1, %r13d                                     #190.5
        jmp       ..B14.2       # Prob 100%                     #190.5
                                # LOE rbp eax ebx r12d r13d r14d
..B14.36:                       # Preds ..B14.26                # Infreq
        movl      140(%rbp), %eax                               #190.5
        jmp       ..B14.2       # Prob 100%                     #190.5
                                # LOE rbp eax ebx r12d r13d r14d
..B14.48:                       # Preds ..B14.30                # Infreq
        movq      stderr@GOTPCREL(%rip), %r13                   #190.5
        jmp       ..B14.33      # Prob 100%                     #190.5
                                # LOE rbp r13 ebx r12d r14d
..B14.49:                       # Preds ..B14.20                # Infreq
        movq      stderr@GOTPCREL(%rip), %r15                   #190.5
        jmp       ..B14.23      # Prob 100%                     #190.5
                                # LOE rbp r15 r12d r13d r14d
..B14.50:                       # Preds ..B14.10                # Infreq
        movq      stderr@GOTPCREL(%rip), %r15                   #190.5
        jmp       ..B14.13      # Prob 100%                     #190.5
        .align    16,0x90
	.cfi_endproc
                                # LOE rbp r15 r12d r13d r14d
# mark_end;
	.type	_ZN8yaskSite8setBlockEiiib,@function
	.size	_ZN8yaskSite8setBlockEiiib,.-_ZN8yaskSite8setBlockEiiib
	.data
# -- End  _ZN8yaskSite8setBlockEiiib
	.text
# -- Begin  _ZN8yaskSite9setRegionEiiiib
	.text
# mark_begin;
       .align    16,0x90
	.globl _ZN8yaskSite9setRegionEiiiib
# --- yaskSite::setRegion(yaskSite *, int, int, int, int, bool)
_ZN8yaskSite9setRegionEiiiib:
# parameter 1: %rdi
# parameter 2: %esi
# parameter 3: %edx
# parameter 4: %ecx
# parameter 5: %r8d
# parameter 6: %r9d
..B15.1:                        # Preds ..B15.0

### {

	.cfi_startproc
	.cfi_personality 0x93,DW.ref.__gxx_personality_v0
..___tag_value__ZN8yaskSite9setRegionEiiiib.321:
..L322:
                                                        #203.1
        pushq     %r12                                          #203.1
	.cfi_def_cfa_offset 16
	.cfi_offset 12, -16
        pushq     %r13                                          #203.1
	.cfi_def_cfa_offset 24
	.cfi_offset 13, -24
        pushq     %r14                                          #203.1
	.cfi_def_cfa_offset 32
	.cfi_offset 14, -32
        pushq     %r15                                          #203.1
	.cfi_def_cfa_offset 40
	.cfi_offset 15, -40
        pushq     %rbx                                          #203.1
	.cfi_def_cfa_offset 48
	.cfi_offset 3, -48
        pushq     %rbp                                          #203.1
	.cfi_def_cfa_offset 56
	.cfi_offset 6, -56
        subq      $24, %rsp                                     #203.1
	.cfi_def_cfa_offset 80
        movq      %rdi, %rbx                                    #203.1
        movl      %r9d, %r15d                                   #203.1
        movl      %r8d, %r14d                                   #203.1
        movl      %ecx, %r13d                                   #203.1
        movl      %edx, %r12d                                   #203.1
        movl      %esi, %ebp                                    #203.1

###     SYNC_WITH_DIM(z, y, x, "region");

        movl      140(%rbx), %eax                               #204.5
        cmpl      $1, %eax                                      #204.5
        je        ..B15.17      # Prob 16%                      #204.5
                                # LOE rbx eax ebp r12d r13d r14d r15d
..B15.2:                        # Preds ..B15.36 ..B15.37 ..B15.1
        cmpl      $2, %eax                                      #204.5
        je        ..B15.7       # Prob 16%                      #204.5
                                # LOE rbx ebp r12d r13d r14d r15d
..B15.3:                        # Preds ..B15.16 ..B15.7 ..B15.2

###     rt=t;

        movl      %r14d, 100(%rbx)                              #205.5

###     rx=x;
###     ry=y;
###     rz=z;
###     regionUpdated = true;
### 
###     if(resetOthers)

        testb     %r15b, %r15b                                  #211.8
        movl      %r13d, 104(%rbx)                              #206.5
        movl      %r12d, 108(%rbx)                              #207.5
        movl      %ebp, 112(%rbx)                               #208.5
        movb      $1, 163(%rbx)                                 #209.5
        jne       ..B15.5       # Prob 5%                       #211.8
                                # LOE rbx
..B15.4:                        # Preds ..B15.3

###     {
###         setDefaultBlock();
###         setDefaultSubBlock();
###     }
### }

        addq      $24, %rsp                                     #216.1
	.cfi_def_cfa_offset 56
	.cfi_restore 6
        popq      %rbp                                          #216.1
	.cfi_def_cfa_offset 48
	.cfi_restore 3
        popq      %rbx                                          #216.1
	.cfi_def_cfa_offset 40
	.cfi_restore 15
        popq      %r15                                          #216.1
	.cfi_def_cfa_offset 32
	.cfi_restore 14
        popq      %r14                                          #216.1
	.cfi_def_cfa_offset 24
	.cfi_restore 13
        popq      %r13                                          #216.1
	.cfi_def_cfa_offset 16
	.cfi_restore 12
        popq      %r12                                          #216.1
	.cfi_def_cfa_offset 8
        ret                                                     #216.1
	.cfi_def_cfa_offset 80
	.cfi_offset 3, -48
	.cfi_offset 6, -56
	.cfi_offset 12, -16
	.cfi_offset 13, -24
	.cfi_offset 14, -32
	.cfi_offset 15, -40
                                # LOE
..B15.5:                        # Preds ..B15.3                 # Infreq
        movq      %rbx, %rdi                                    #213.9
..___tag_value__ZN8yaskSite9setRegionEiiiib.356:
#       yaskSite::setDefaultBlock(yaskSite *)
        call      _ZN8yaskSite15setDefaultBlockEv@PLT           #213.9
..___tag_value__ZN8yaskSite9setRegionEiiiib.357:
                                # LOE rbx
..B15.6:                        # Preds ..B15.5                 # Infreq
        movq      %rbx, %rdi                                    #214.9
..___tag_value__ZN8yaskSite9setRegionEiiiib.358:
#       yaskSite::setDefaultSubBlock(yaskSite *)
        call      _ZN8yaskSite18setDefaultSubBlockEv@PLT        #214.9
..___tag_value__ZN8yaskSite9setRegionEiiiib.359:
        addq      $24, %rsp                                     #214.9
	.cfi_def_cfa_offset 56
	.cfi_restore 6
        popq      %rbp                                          #214.9
	.cfi_def_cfa_offset 48
	.cfi_restore 3
        popq      %rbx                                          #214.9
	.cfi_def_cfa_offset 40
	.cfi_restore 15
        popq      %r15                                          #214.9
	.cfi_def_cfa_offset 32
	.cfi_restore 14
        popq      %r14                                          #214.9
	.cfi_def_cfa_offset 24
	.cfi_restore 13
        popq      %r13                                          #214.9
	.cfi_def_cfa_offset 16
	.cfi_restore 12
        popq      %r12                                          #214.9
	.cfi_def_cfa_offset 8
        ret                                                     #214.9
	.cfi_def_cfa_offset 80
	.cfi_offset 3, -48
	.cfi_offset 6, -56
	.cfi_offset 12, -16
	.cfi_offset 13, -24
	.cfi_offset 14, -32
	.cfi_offset 15, -40
                                # LOE
..B15.7:                        # Preds ..B15.2                 # Infreq
        cmpl      $1, %r13d                                     #204.5
        je        ..B15.3       # Prob 16%                      #204.5
                                # LOE rbx ebp r12d r13d r14d r15d
..B15.8:                        # Preds ..B15.7                 # Infreq
        movl      $1140850688, %edi                             #204.5
        lea       16(%rsp), %rsi                                #204.5
..___tag_value__ZN8yaskSite9setRegionEiiiib.380:
#       MPI_Comm_rank(MPI_Comm, int *)
        call      MPI_Comm_rank@PLT                             #204.5
..___tag_value__ZN8yaskSite9setRegionEiiiib.381:
                                # LOE rbx eax ebp r12d r13d r14d r15d
..B15.9:                        # Preds ..B15.8                 # Infreq
        testl     %eax, %eax                                    #204.5
        je        ..B15.11      # Prob 50%                      #204.5
                                # LOE rbx ebp r12d r13d r14d r15d
..B15.10:                       # Preds ..B15.9                 # Infreq
        movq      stderr@GOTPCREL(%rip), %rax                   #204.5
        movl      $-1, 16(%rsp)                                 #204.5
        movq      %rax, (%rsp)                                  #204.5
        jmp       ..B15.14      # Prob 100%                     #204.5
                                # LOE rbx ebp r12d r14d r15d
..B15.11:                       # Preds ..B15.9                 # Infreq
        movl      16(%rsp), %r9d                                #204.5
        testl     %r9d, %r9d                                    #204.5
        jne       ..B15.51      # Prob 50%                      #204.5
                                # LOE rbx ebp r9d r12d r13d r14d r15d
..B15.12:                       # Preds ..B15.11                # Infreq
        lea       .L_2__STRING.1(%rip), %rsi                    #204.5
        movl      $47, %eax                                     #204.5
        movq      %rsi, %rdx                                    #204.5
        movq      %rdx, %rcx                                    #204.5
        movd      %eax, %xmm1                                   #204.5
        andq      $-16, %rdx                                    #204.5
        punpcklbw %xmm1, %xmm1                                  #204.5
        andl      $15, %ecx                                     #204.5
        punpcklbw %xmm1, %xmm1                                  #204.5
        pshufd    $0, %xmm1, %xmm1                              #204.5
        pxor      %xmm0, %xmm0                                  #204.5
        movdqa    (%rdx), %xmm2                                 #204.5
        pcmpeqb   %xmm2, %xmm0                                  #204.5
        pmovmskb  %xmm0, %r10d                                  #204.5
        pcmpeqb   %xmm1, %xmm2                                  #204.5
        shrl      %cl, %r10d                                    #204.5
        lea       -1(%r10), %rax                                #204.5
        xorl      %eax, %r10d                                   #204.5
        pmovmskb  %xmm2, %eax                                   #204.5
        shrl      %cl, %eax                                     #204.5
        andl      %r10d, %eax                                   #204.5
        je        ..L382        # Prob 60%                      #204.5
        bsr       %rax, %rax                                    #204.5
        addq      %rcx, %rax                                    #204.5
        addq      %rdx, %rax                                    #204.5
..L382:                                                         #
        orl       %r10d, %r10d                                  #204.5
        jg        ..L384        # Prob 60%                      #204.5
..L383:                                                         #
        call      __intel_sse2_strrchr@PLT                      #204.5
..L384:                                                         #
                                # LOE rax rbx rsi ebp r9d r12d r13d r14d r15d
..B15.42:                       # Preds ..B15.12                # Infreq
        addq      $-32, %rsp                                    #204.5
	.cfi_def_cfa_offset 112
        testq     %rax, %rax                                    #204.5
        movq      stderr@GOTPCREL(%rip), %r11                   #204.5
        lea       1(%rax), %r8                                  #204.5
        movq      %r11, 32(%rsp)                                #204.5
        lea       .L_2__STRING.50(%rip), %r10                   #204.5
        cmove     %rsi, %r8                                     #204.5
        lea       .L_2__STRING.0(%rip), %rsi                    #204.5
        movq      %r10, (%rsp)                                  #204.5
        movl      %r9d, %edx                                    #204.5
        movl      %r13d, 8(%rsp)                                #204.5
        lea       __$U4(%rip), %rcx                             #204.5
        movl      140(%rbx), %r13d                              #204.5
        movl      $204, %r9d                                    #204.5
        xorl      %eax, %eax                                    #204.5
        movq      (%r11), %rdi                                  #204.5
        movl      %r13d, 16(%rsp)                               #204.5
#       fprintf(FILE *, const char *, ...)
        call      fprintf@PLT                                   #204.5
                                # LOE rbx ebp r12d r14d r15d
..B15.41:                       # Preds ..B15.42                # Infreq
        addq      $32, %rsp                                     #204.5
	.cfi_def_cfa_offset 80
                                # LOE rbx ebp r12d r14d r15d
..B15.13:                       # Preds ..B15.41                # Infreq
        movq      (%rsp), %rax                                  #204.5
        movq      (%rax), %rdi                                  #204.5
#       fflush(FILE *)
        call      fflush@PLT                                    #204.5
                                # LOE rbx ebp r12d r14d r15d
..B15.14:                       # Preds ..B15.10 ..B15.13 ..B15.51 # Infreq
        movq      (%rsp), %rax                                  #204.5
        movl      $10, %edi                                     #204.5
        movq      (%rax), %rsi                                  #204.5
        call      fputc@PLT                                     #204.5
                                # LOE rbx ebp r12d r14d r15d
..B15.15:                       # Preds ..B15.14                # Infreq
        movq      (%rsp), %rax                                  #204.5
        movq      (%rax), %rdi                                  #204.5
#       fflush(FILE *)
        call      fflush@PLT                                    #204.5
                                # LOE rbx ebp r12d r14d r15d
..B15.16:                       # Preds ..B15.15                # Infreq
        movl      $1, %r13d                                     #204.5
        jmp       ..B15.3       # Prob 100%                     #204.5
                                # LOE rbx ebp r12d r13d r14d r15d
..B15.17:                       # Preds ..B15.1                 # Infreq
        cmpl      $1, %r13d                                     #204.5
        je        ..B15.27      # Prob 16%                      #204.5
                                # LOE rbx ebp r12d r13d r14d r15d
..B15.18:                       # Preds ..B15.17                # Infreq
        movl      $1140850688, %edi                             #204.5
        lea       8(%rsp), %rsi                                 #204.5
..___tag_value__ZN8yaskSite9setRegionEiiiib.387:
#       MPI_Comm_rank(MPI_Comm, int *)
        call      MPI_Comm_rank@PLT                             #204.5
..___tag_value__ZN8yaskSite9setRegionEiiiib.388:
                                # LOE rbx eax ebp r12d r13d r14d r15d
..B15.19:                       # Preds ..B15.18                # Infreq
        testl     %eax, %eax                                    #204.5
        je        ..B15.21      # Prob 50%                      #204.5
                                # LOE rbx ebp r12d r13d r14d r15d
..B15.20:                       # Preds ..B15.19                # Infreq
        movq      stderr@GOTPCREL(%rip), %rax                   #204.5
        movl      $-1, 8(%rsp)                                  #204.5
        movq      %rax, (%rsp)                                  #204.5
        jmp       ..B15.24      # Prob 100%                     #204.5
                                # LOE rbx ebp r12d r14d r15d
..B15.21:                       # Preds ..B15.19                # Infreq
        movl      8(%rsp), %r9d                                 #204.5
        testl     %r9d, %r9d                                    #204.5
        jne       ..B15.50      # Prob 50%                      #204.5
                                # LOE rbx ebp r9d r12d r13d r14d r15d
..B15.22:                       # Preds ..B15.21                # Infreq
        lea       .L_2__STRING.1(%rip), %rsi                    #204.5
        movl      $47, %eax                                     #204.5
        movq      %rsi, %rdx                                    #204.5
        movq      %rdx, %rcx                                    #204.5
        movd      %eax, %xmm1                                   #204.5
        andq      $-16, %rdx                                    #204.5
        punpcklbw %xmm1, %xmm1                                  #204.5
        andl      $15, %ecx                                     #204.5
        punpcklbw %xmm1, %xmm1                                  #204.5
        pshufd    $0, %xmm1, %xmm1                              #204.5
        pxor      %xmm0, %xmm0                                  #204.5
        movdqa    (%rdx), %xmm2                                 #204.5
        pcmpeqb   %xmm2, %xmm0                                  #204.5
        pmovmskb  %xmm0, %r10d                                  #204.5
        pcmpeqb   %xmm1, %xmm2                                  #204.5
        shrl      %cl, %r10d                                    #204.5
        lea       -1(%r10), %rax                                #204.5
        xorl      %eax, %r10d                                   #204.5
        pmovmskb  %xmm2, %eax                                   #204.5
        shrl      %cl, %eax                                     #204.5
        andl      %r10d, %eax                                   #204.5
        je        ..L389        # Prob 60%                      #204.5
        bsr       %rax, %rax                                    #204.5
        addq      %rcx, %rax                                    #204.5
        addq      %rdx, %rax                                    #204.5
..L389:                                                         #
        orl       %r10d, %r10d                                  #204.5
        jg        ..L391        # Prob 60%                      #204.5
..L390:                                                         #
        call      __intel_sse2_strrchr@PLT                      #204.5
..L391:                                                         #
                                # LOE rax rbx rsi ebp r9d r12d r13d r14d r15d
..B15.45:                       # Preds ..B15.22                # Infreq
        addq      $-32, %rsp                                    #204.5
	.cfi_def_cfa_offset 112
        testq     %rax, %rax                                    #204.5
        movq      stderr@GOTPCREL(%rip), %r11                   #204.5
        lea       1(%rax), %r8                                  #204.5
        movq      %r11, 32(%rsp)                                #204.5
        lea       .L_2__STRING.50(%rip), %r10                   #204.5
        cmove     %rsi, %r8                                     #204.5
        lea       .L_2__STRING.0(%rip), %rsi                    #204.5
        movq      %r10, (%rsp)                                  #204.5
        movl      %r9d, %edx                                    #204.5
        movl      %r13d, 8(%rsp)                                #204.5
        lea       __$U4(%rip), %rcx                             #204.5
        movl      140(%rbx), %r13d                              #204.5
        movl      $204, %r9d                                    #204.5
        xorl      %eax, %eax                                    #204.5
        movq      (%r11), %rdi                                  #204.5
        movl      %r13d, 16(%rsp)                               #204.5
#       fprintf(FILE *, const char *, ...)
        call      fprintf@PLT                                   #204.5
                                # LOE rbx ebp r12d r14d r15d
..B15.44:                       # Preds ..B15.45                # Infreq
        addq      $32, %rsp                                     #204.5
	.cfi_def_cfa_offset 80
                                # LOE rbx ebp r12d r14d r15d
..B15.23:                       # Preds ..B15.44                # Infreq
        movq      (%rsp), %rax                                  #204.5
        movq      (%rax), %rdi                                  #204.5
#       fflush(FILE *)
        call      fflush@PLT                                    #204.5
                                # LOE rbx ebp r12d r14d r15d
..B15.24:                       # Preds ..B15.20 ..B15.23 ..B15.50 # Infreq
        movq      (%rsp), %rax                                  #204.5
        movl      $10, %edi                                     #204.5
        movq      (%rax), %rsi                                  #204.5
        call      fputc@PLT                                     #204.5
                                # LOE rbx ebp r12d r14d r15d
..B15.25:                       # Preds ..B15.24                # Infreq
        movq      (%rsp), %rax                                  #204.5
        movq      (%rax), %rdi                                  #204.5
#       fflush(FILE *)
        call      fflush@PLT                                    #204.5
                                # LOE rbx ebp r12d r14d r15d
..B15.26:                       # Preds ..B15.25                # Infreq
        movl      $1, %r13d                                     #204.5
                                # LOE rbx ebp r12d r13d r14d r15d
..B15.27:                       # Preds ..B15.26 ..B15.17       # Infreq
        cmpl      $1, %r12d                                     #204.5
        je        ..B15.37      # Prob 16%                      #204.5
                                # LOE rbx ebp r12d r13d r14d r15d
..B15.28:                       # Preds ..B15.27                # Infreq
        movl      $1140850688, %edi                             #204.5
        lea       12(%rsp), %rsi                                #204.5
..___tag_value__ZN8yaskSite9setRegionEiiiib.394:
#       MPI_Comm_rank(MPI_Comm, int *)
        call      MPI_Comm_rank@PLT                             #204.5
..___tag_value__ZN8yaskSite9setRegionEiiiib.395:
                                # LOE rbx eax ebp r13d r14d r15d
..B15.29:                       # Preds ..B15.28                # Infreq
        testl     %eax, %eax                                    #204.5
        je        ..B15.31      # Prob 50%                      #204.5
                                # LOE rbx ebp r13d r14d r15d
..B15.30:                       # Preds ..B15.29                # Infreq
        movl      $-1, 12(%rsp)                                 #204.5
        movq      stderr@GOTPCREL(%rip), %r12                   #204.5
        jmp       ..B15.34      # Prob 100%                     #204.5
                                # LOE rbx r12 ebp r13d r14d r15d
..B15.31:                       # Preds ..B15.29                # Infreq
        movl      12(%rsp), %r9d                                #204.5
        testl     %r9d, %r9d                                    #204.5
        jne       ..B15.49      # Prob 50%                      #204.5
                                # LOE rbx ebp r9d r13d r14d r15d
..B15.32:                       # Preds ..B15.31                # Infreq
        lea       .L_2__STRING.1(%rip), %rsi                    #204.5
        movl      $47, %eax                                     #204.5
        movq      %rsi, %rdx                                    #204.5
        movq      %rdx, %rcx                                    #204.5
        movd      %eax, %xmm1                                   #204.5
        andq      $-16, %rdx                                    #204.5
        punpcklbw %xmm1, %xmm1                                  #204.5
        andl      $15, %ecx                                     #204.5
        punpcklbw %xmm1, %xmm1                                  #204.5
        pshufd    $0, %xmm1, %xmm1                              #204.5
        pxor      %xmm0, %xmm0                                  #204.5
        movdqa    (%rdx), %xmm2                                 #204.5
        pcmpeqb   %xmm2, %xmm0                                  #204.5
        pmovmskb  %xmm0, %r10d                                  #204.5
        pcmpeqb   %xmm1, %xmm2                                  #204.5
        shrl      %cl, %r10d                                    #204.5
        lea       -1(%r10), %rax                                #204.5
        xorl      %eax, %r10d                                   #204.5
        pmovmskb  %xmm2, %eax                                   #204.5
        shrl      %cl, %eax                                     #204.5
        andl      %r10d, %eax                                   #204.5
        je        ..L396        # Prob 60%                      #204.5
        bsr       %rax, %rax                                    #204.5
        addq      %rcx, %rax                                    #204.5
        addq      %rdx, %rax                                    #204.5
..L396:                                                         #
        orl       %r10d, %r10d                                  #204.5
        jg        ..L398        # Prob 60%                      #204.5
..L397:                                                         #
        call      __intel_sse2_strrchr@PLT                      #204.5
..L398:                                                         #
                                # LOE rax rbx rsi ebp r9d r13d r14d r15d
..B15.48:                       # Preds ..B15.32                # Infreq
        addq      $-32, %rsp                                    #204.5
	.cfi_def_cfa_offset 112
        testq     %rax, %rax                                    #204.5
        movq      stderr@GOTPCREL(%rip), %r12                   #204.5
        lea       1(%rax), %r8                                  #204.5
        movl      140(%rbx), %r11d                              #204.5
        cmove     %rsi, %r8                                     #204.5
        lea       .L_2__STRING.4(%rip), %rsi                    #204.5
        movl      %r9d, %edx                                    #204.5
        lea       __$U4(%rip), %rcx                             #204.5
        movl      $204, %r9d                                    #204.5
        xorl      %eax, %eax                                    #204.5
        lea       .L_2__STRING.50(%rip), %r10                   #204.5
        movq      %r10, (%rsp)                                  #204.5
        movl      %r13d, 8(%rsp)                                #204.5
        movq      (%r12), %rdi                                  #204.5
        movl      %r11d, 16(%rsp)                               #204.5
#       fprintf(FILE *, const char *, ...)
        call      fprintf@PLT                                   #204.5
                                # LOE rbx r12 ebp r13d r14d r15d
..B15.47:                       # Preds ..B15.48                # Infreq
        addq      $32, %rsp                                     #204.5
	.cfi_def_cfa_offset 80
                                # LOE rbx r12 ebp r13d r14d r15d
..B15.33:                       # Preds ..B15.47                # Infreq
        movq      (%r12), %rdi                                  #204.5
#       fflush(FILE *)
        call      fflush@PLT                                    #204.5
                                # LOE rbx r12 ebp r13d r14d r15d
..B15.34:                       # Preds ..B15.30 ..B15.33 ..B15.49 # Infreq
        movl      $10, %edi                                     #204.5
        movq      (%r12), %rsi                                  #204.5
        call      fputc@PLT                                     #204.5
                                # LOE rbx r12 ebp r13d r14d r15d
..B15.35:                       # Preds ..B15.34                # Infreq
        movq      (%r12), %rdi                                  #204.5
#       fflush(FILE *)
        call      fflush@PLT                                    #204.5
                                # LOE rbx ebp r13d r14d r15d
..B15.36:                       # Preds ..B15.35                # Infreq
        movl      140(%rbx), %eax                               #204.5
        movl      $1, %r12d                                     #204.5
        jmp       ..B15.2       # Prob 100%                     #204.5
                                # LOE rbx eax ebp r12d r13d r14d r15d
..B15.37:                       # Preds ..B15.27                # Infreq
        movl      140(%rbx), %eax                               #204.5
        jmp       ..B15.2       # Prob 100%                     #204.5
                                # LOE rbx eax ebp r12d r13d r14d r15d
..B15.49:                       # Preds ..B15.31                # Infreq
        movq      stderr@GOTPCREL(%rip), %r12                   #204.5
        jmp       ..B15.34      # Prob 100%                     #204.5
                                # LOE rbx r12 ebp r13d r14d r15d
..B15.50:                       # Preds ..B15.21                # Infreq
        movq      stderr@GOTPCREL(%rip), %rax                   #204.5
        movq      %rax, (%rsp)                                  #204.5
        jmp       ..B15.24      # Prob 100%                     #204.5
                                # LOE rbx ebp r12d r14d r15d
..B15.51:                       # Preds ..B15.11                # Infreq
        movq      stderr@GOTPCREL(%rip), %rax                   #204.5
        movq      %rax, (%rsp)                                  #204.5
        jmp       ..B15.14      # Prob 100%                     #204.5
        .align    16,0x90
	.cfi_endproc
                                # LOE rbx ebp r12d r14d r15d
# mark_end;
	.type	_ZN8yaskSite9setRegionEiiiib,@function
	.size	_ZN8yaskSite9setRegionEiiiib,.-_ZN8yaskSite9setRegionEiiiib
	.data
# -- End  _ZN8yaskSite9setRegionEiiiib
	.text
# -- Begin  _ZN8yaskSite6setDimEiiiib
	.text
# mark_begin;
       .align    16,0x90
	.globl _ZN8yaskSite6setDimEiiiib
# --- yaskSite::setDim(yaskSite *, int, int, int, int, bool)
_ZN8yaskSite6setDimEiiiib:
# parameter 1: %rdi
# parameter 2: %esi
# parameter 3: %edx
# parameter 4: %ecx
# parameter 5: %r8d
# parameter 6: %r9d
..B16.1:                        # Preds ..B16.0

### {

	.cfi_startproc
	.cfi_personality 0x93,DW.ref.__gxx_personality_v0
..___tag_value__ZN8yaskSite6setDimEiiiib.402:
..L403:
                                                        #219.1
        pushq     %r12                                          #219.1
	.cfi_def_cfa_offset 16
	.cfi_offset 12, -16
        pushq     %r13                                          #219.1
	.cfi_def_cfa_offset 24
	.cfi_offset 13, -24
        pushq     %r14                                          #219.1
	.cfi_def_cfa_offset 32
	.cfi_offset 14, -32
        pushq     %r15                                          #219.1
	.cfi_def_cfa_offset 40
	.cfi_offset 15, -40
        pushq     %rbx                                          #219.1
	.cfi_def_cfa_offset 48
	.cfi_offset 3, -48
        pushq     %rbp                                          #219.1
	.cfi_def_cfa_offset 56
	.cfi_offset 6, -56
        subq      $24, %rsp                                     #219.1
	.cfi_def_cfa_offset 80
        movq      %rdi, %rbx                                    #219.1
        movl      %r9d, %r15d                                   #219.1
        movl      %r8d, %r14d                                   #219.1
        movl      %ecx, %r13d                                   #219.1
        movl      %edx, %r12d                                   #219.1
        movl      %esi, %ebp                                    #219.1

###     SYNC_WITH_DIM(z, y, x, "dim");

        movl      140(%rbx), %eax                               #220.5
        cmpl      $1, %eax                                      #220.5
        je        ..B16.18      # Prob 16%                      #220.5
                                # LOE rbx eax ebp r12d r13d r14d r15d
..B16.2:                        # Preds ..B16.37 ..B16.38 ..B16.1
        cmpl      $2, %eax                                      #220.5
        je        ..B16.8       # Prob 16%                      #220.5
                                # LOE rbx ebp r12d r13d r14d r15d
..B16.3:                        # Preds ..B16.17 ..B16.8 ..B16.2

###     dt=t;

        movl      %r14d, 116(%rbx)                              #221.5

###     dx=x;
###     dy=y;
###     dz=z;
### 
###     if(resetOthers)

        testb     %r15b, %r15b                                  #226.8
        movl      %r13d, 120(%rbx)                              #222.5
        movl      %r12d, 124(%rbx)                              #223.5
        movl      %ebp, 128(%rbx)                               #224.5
        jne       ..B16.5       # Prob 5%                       #226.8
                                # LOE rbx
..B16.4:                        # Preds ..B16.7 ..B16.3

###     {
###         setDefaultRegion();
###         setDefaultBlock();
###         setDefaultSubBlock();
###     }
### 
###     dimUpdated = true;

        movb      $1, 164(%rbx)                                 #233.5

### }

        addq      $24, %rsp                                     #234.1
	.cfi_def_cfa_offset 56
	.cfi_restore 6
        popq      %rbp                                          #234.1
	.cfi_def_cfa_offset 48
	.cfi_restore 3
        popq      %rbx                                          #234.1
	.cfi_def_cfa_offset 40
	.cfi_restore 15
        popq      %r15                                          #234.1
	.cfi_def_cfa_offset 32
	.cfi_restore 14
        popq      %r14                                          #234.1
	.cfi_def_cfa_offset 24
	.cfi_restore 13
        popq      %r13                                          #234.1
	.cfi_def_cfa_offset 16
	.cfi_restore 12
        popq      %r12                                          #234.1
	.cfi_def_cfa_offset 8
        ret                                                     #234.1
	.cfi_def_cfa_offset 80
	.cfi_offset 3, -48
	.cfi_offset 6, -56
	.cfi_offset 12, -16
	.cfi_offset 13, -24
	.cfi_offset 14, -32
	.cfi_offset 15, -40
                                # LOE
..B16.5:                        # Preds ..B16.3                 # Infreq
        movq      %rbx, %rdi                                    #228.9
..___tag_value__ZN8yaskSite6setDimEiiiib.437:
#       yaskSite::setDefaultRegion(yaskSite *)
        call      _ZN8yaskSite16setDefaultRegionEv@PLT          #228.9
..___tag_value__ZN8yaskSite6setDimEiiiib.438:
                                # LOE rbx
..B16.6:                        # Preds ..B16.5                 # Infreq
        movq      %rbx, %rdi                                    #229.9
..___tag_value__ZN8yaskSite6setDimEiiiib.439:
#       yaskSite::setDefaultBlock(yaskSite *)
        call      _ZN8yaskSite15setDefaultBlockEv@PLT           #229.9
..___tag_value__ZN8yaskSite6setDimEiiiib.440:
                                # LOE rbx
..B16.7:                        # Preds ..B16.6                 # Infreq
        movq      %rbx, %rdi                                    #230.9
..___tag_value__ZN8yaskSite6setDimEiiiib.441:
#       yaskSite::setDefaultSubBlock(yaskSite *)
        call      _ZN8yaskSite18setDefaultSubBlockEv@PLT        #230.9
..___tag_value__ZN8yaskSite6setDimEiiiib.442:
        jmp       ..B16.4       # Prob 100%                     #230.9
                                # LOE rbx
..B16.8:                        # Preds ..B16.2                 # Infreq
        cmpl      $1, %r13d                                     #220.5
        je        ..B16.3       # Prob 16%                      #220.5
                                # LOE rbx ebp r12d r13d r14d r15d
..B16.9:                        # Preds ..B16.8                 # Infreq
        movl      $1140850688, %edi                             #220.5
        lea       16(%rsp), %rsi                                #220.5
..___tag_value__ZN8yaskSite6setDimEiiiib.443:
#       MPI_Comm_rank(MPI_Comm, int *)
        call      MPI_Comm_rank@PLT                             #220.5
..___tag_value__ZN8yaskSite6setDimEiiiib.444:
                                # LOE rbx eax ebp r12d r13d r14d r15d
..B16.10:                       # Preds ..B16.9                 # Infreq
        testl     %eax, %eax                                    #220.5
        je        ..B16.12      # Prob 50%                      #220.5
                                # LOE rbx ebp r12d r13d r14d r15d
..B16.11:                       # Preds ..B16.10                # Infreq
        movq      stderr@GOTPCREL(%rip), %rax                   #220.5
        movl      $-1, 16(%rsp)                                 #220.5
        movq      %rax, (%rsp)                                  #220.5
        jmp       ..B16.15      # Prob 100%                     #220.5
                                # LOE rbx ebp r12d r14d r15d
..B16.12:                       # Preds ..B16.10                # Infreq
        movl      16(%rsp), %r9d                                #220.5
        testl     %r9d, %r9d                                    #220.5
        jne       ..B16.52      # Prob 50%                      #220.5
                                # LOE rbx ebp r9d r12d r13d r14d r15d
..B16.13:                       # Preds ..B16.12                # Infreq
        lea       .L_2__STRING.1(%rip), %rsi                    #220.5
        movl      $47, %eax                                     #220.5
        movq      %rsi, %rdx                                    #220.5
        movq      %rdx, %rcx                                    #220.5
        movd      %eax, %xmm1                                   #220.5
        andq      $-16, %rdx                                    #220.5
        punpcklbw %xmm1, %xmm1                                  #220.5
        andl      $15, %ecx                                     #220.5
        punpcklbw %xmm1, %xmm1                                  #220.5
        pshufd    $0, %xmm1, %xmm1                              #220.5
        pxor      %xmm0, %xmm0                                  #220.5
        movdqa    (%rdx), %xmm2                                 #220.5
        pcmpeqb   %xmm2, %xmm0                                  #220.5
        pmovmskb  %xmm0, %r10d                                  #220.5
        pcmpeqb   %xmm1, %xmm2                                  #220.5
        shrl      %cl, %r10d                                    #220.5
        lea       -1(%r10), %rax                                #220.5
        xorl      %eax, %r10d                                   #220.5
        pmovmskb  %xmm2, %eax                                   #220.5
        shrl      %cl, %eax                                     #220.5
        andl      %r10d, %eax                                   #220.5
        je        ..L445        # Prob 60%                      #220.5
        bsr       %rax, %rax                                    #220.5
        addq      %rcx, %rax                                    #220.5
        addq      %rdx, %rax                                    #220.5
..L445:                                                         #
        orl       %r10d, %r10d                                  #220.5
        jg        ..L447        # Prob 60%                      #220.5
..L446:                                                         #
        call      __intel_sse2_strrchr@PLT                      #220.5
..L447:                                                         #
                                # LOE rax rbx rsi ebp r9d r12d r13d r14d r15d
..B16.43:                       # Preds ..B16.13                # Infreq
        addq      $-32, %rsp                                    #220.5
	.cfi_def_cfa_offset 112
        testq     %rax, %rax                                    #220.5
        movq      stderr@GOTPCREL(%rip), %r11                   #220.5
        lea       1(%rax), %r8                                  #220.5
        movq      %r11, 32(%rsp)                                #220.5
        lea       .L_2__STRING.51(%rip), %r10                   #220.5
        cmove     %rsi, %r8                                     #220.5
        lea       .L_2__STRING.0(%rip), %rsi                    #220.5
        movq      %r10, (%rsp)                                  #220.5
        movl      %r9d, %edx                                    #220.5
        movl      %r13d, 8(%rsp)                                #220.5
        lea       __$U5(%rip), %rcx                             #220.5
        movl      140(%rbx), %r13d                              #220.5
        movl      $220, %r9d                                    #220.5
        xorl      %eax, %eax                                    #220.5
        movq      (%r11), %rdi                                  #220.5
        movl      %r13d, 16(%rsp)                               #220.5
#       fprintf(FILE *, const char *, ...)
        call      fprintf@PLT                                   #220.5
                                # LOE rbx ebp r12d r14d r15d
..B16.42:                       # Preds ..B16.43                # Infreq
        addq      $32, %rsp                                     #220.5
	.cfi_def_cfa_offset 80
                                # LOE rbx ebp r12d r14d r15d
..B16.14:                       # Preds ..B16.42                # Infreq
        movq      (%rsp), %rax                                  #220.5
        movq      (%rax), %rdi                                  #220.5
#       fflush(FILE *)
        call      fflush@PLT                                    #220.5
                                # LOE rbx ebp r12d r14d r15d
..B16.15:                       # Preds ..B16.11 ..B16.14 ..B16.52 # Infreq
        movq      (%rsp), %rax                                  #220.5
        movl      $10, %edi                                     #220.5
        movq      (%rax), %rsi                                  #220.5
        call      fputc@PLT                                     #220.5
                                # LOE rbx ebp r12d r14d r15d
..B16.16:                       # Preds ..B16.15                # Infreq
        movq      (%rsp), %rax                                  #220.5
        movq      (%rax), %rdi                                  #220.5
#       fflush(FILE *)
        call      fflush@PLT                                    #220.5
                                # LOE rbx ebp r12d r14d r15d
..B16.17:                       # Preds ..B16.16                # Infreq
        movl      $1, %r13d                                     #220.5
        jmp       ..B16.3       # Prob 100%                     #220.5
                                # LOE rbx ebp r12d r13d r14d r15d
..B16.18:                       # Preds ..B16.1                 # Infreq
        cmpl      $1, %r13d                                     #220.5
        je        ..B16.28      # Prob 16%                      #220.5
                                # LOE rbx ebp r12d r13d r14d r15d
..B16.19:                       # Preds ..B16.18                # Infreq
        movl      $1140850688, %edi                             #220.5
        lea       8(%rsp), %rsi                                 #220.5
..___tag_value__ZN8yaskSite6setDimEiiiib.450:
#       MPI_Comm_rank(MPI_Comm, int *)
        call      MPI_Comm_rank@PLT                             #220.5
..___tag_value__ZN8yaskSite6setDimEiiiib.451:
                                # LOE rbx eax ebp r12d r13d r14d r15d
..B16.20:                       # Preds ..B16.19                # Infreq
        testl     %eax, %eax                                    #220.5
        je        ..B16.22      # Prob 50%                      #220.5
                                # LOE rbx ebp r12d r13d r14d r15d
..B16.21:                       # Preds ..B16.20                # Infreq
        movq      stderr@GOTPCREL(%rip), %rax                   #220.5
        movl      $-1, 8(%rsp)                                  #220.5
        movq      %rax, (%rsp)                                  #220.5
        jmp       ..B16.25      # Prob 100%                     #220.5
                                # LOE rbx ebp r12d r14d r15d
..B16.22:                       # Preds ..B16.20                # Infreq
        movl      8(%rsp), %r9d                                 #220.5
        testl     %r9d, %r9d                                    #220.5
        jne       ..B16.51      # Prob 50%                      #220.5
                                # LOE rbx ebp r9d r12d r13d r14d r15d
..B16.23:                       # Preds ..B16.22                # Infreq
        lea       .L_2__STRING.1(%rip), %rsi                    #220.5
        movl      $47, %eax                                     #220.5
        movq      %rsi, %rdx                                    #220.5
        movq      %rdx, %rcx                                    #220.5
        movd      %eax, %xmm1                                   #220.5
        andq      $-16, %rdx                                    #220.5
        punpcklbw %xmm1, %xmm1                                  #220.5
        andl      $15, %ecx                                     #220.5
        punpcklbw %xmm1, %xmm1                                  #220.5
        pshufd    $0, %xmm1, %xmm1                              #220.5
        pxor      %xmm0, %xmm0                                  #220.5
        movdqa    (%rdx), %xmm2                                 #220.5
        pcmpeqb   %xmm2, %xmm0                                  #220.5
        pmovmskb  %xmm0, %r10d                                  #220.5
        pcmpeqb   %xmm1, %xmm2                                  #220.5
        shrl      %cl, %r10d                                    #220.5
        lea       -1(%r10), %rax                                #220.5
        xorl      %eax, %r10d                                   #220.5
        pmovmskb  %xmm2, %eax                                   #220.5
        shrl      %cl, %eax                                     #220.5
        andl      %r10d, %eax                                   #220.5
        je        ..L452        # Prob 60%                      #220.5
        bsr       %rax, %rax                                    #220.5
        addq      %rcx, %rax                                    #220.5
        addq      %rdx, %rax                                    #220.5
..L452:                                                         #
        orl       %r10d, %r10d                                  #220.5
        jg        ..L454        # Prob 60%                      #220.5
..L453:                                                         #
        call      __intel_sse2_strrchr@PLT                      #220.5
..L454:                                                         #
                                # LOE rax rbx rsi ebp r9d r12d r13d r14d r15d
..B16.46:                       # Preds ..B16.23                # Infreq
        addq      $-32, %rsp                                    #220.5
	.cfi_def_cfa_offset 112
        testq     %rax, %rax                                    #220.5
        movq      stderr@GOTPCREL(%rip), %r11                   #220.5
        lea       1(%rax), %r8                                  #220.5
        movq      %r11, 32(%rsp)                                #220.5
        lea       .L_2__STRING.51(%rip), %r10                   #220.5
        cmove     %rsi, %r8                                     #220.5
        lea       .L_2__STRING.0(%rip), %rsi                    #220.5
        movq      %r10, (%rsp)                                  #220.5
        movl      %r9d, %edx                                    #220.5
        movl      %r13d, 8(%rsp)                                #220.5
        lea       __$U5(%rip), %rcx                             #220.5
        movl      140(%rbx), %r13d                              #220.5
        movl      $220, %r9d                                    #220.5
        xorl      %eax, %eax                                    #220.5
        movq      (%r11), %rdi                                  #220.5
        movl      %r13d, 16(%rsp)                               #220.5
#       fprintf(FILE *, const char *, ...)
        call      fprintf@PLT                                   #220.5
                                # LOE rbx ebp r12d r14d r15d
..B16.45:                       # Preds ..B16.46                # Infreq
        addq      $32, %rsp                                     #220.5
	.cfi_def_cfa_offset 80
                                # LOE rbx ebp r12d r14d r15d
..B16.24:                       # Preds ..B16.45                # Infreq
        movq      (%rsp), %rax                                  #220.5
        movq      (%rax), %rdi                                  #220.5
#       fflush(FILE *)
        call      fflush@PLT                                    #220.5
                                # LOE rbx ebp r12d r14d r15d
..B16.25:                       # Preds ..B16.21 ..B16.24 ..B16.51 # Infreq
        movq      (%rsp), %rax                                  #220.5
        movl      $10, %edi                                     #220.5
        movq      (%rax), %rsi                                  #220.5
        call      fputc@PLT                                     #220.5
                                # LOE rbx ebp r12d r14d r15d
..B16.26:                       # Preds ..B16.25                # Infreq
        movq      (%rsp), %rax                                  #220.5
        movq      (%rax), %rdi                                  #220.5
#       fflush(FILE *)
        call      fflush@PLT                                    #220.5
                                # LOE rbx ebp r12d r14d r15d
..B16.27:                       # Preds ..B16.26                # Infreq
        movl      $1, %r13d                                     #220.5
                                # LOE rbx ebp r12d r13d r14d r15d
..B16.28:                       # Preds ..B16.27 ..B16.18       # Infreq
        cmpl      $1, %r12d                                     #220.5
        je        ..B16.38      # Prob 16%                      #220.5
                                # LOE rbx ebp r12d r13d r14d r15d
..B16.29:                       # Preds ..B16.28                # Infreq
        movl      $1140850688, %edi                             #220.5
        lea       12(%rsp), %rsi                                #220.5
..___tag_value__ZN8yaskSite6setDimEiiiib.457:
#       MPI_Comm_rank(MPI_Comm, int *)
        call      MPI_Comm_rank@PLT                             #220.5
..___tag_value__ZN8yaskSite6setDimEiiiib.458:
                                # LOE rbx eax ebp r13d r14d r15d
..B16.30:                       # Preds ..B16.29                # Infreq
        testl     %eax, %eax                                    #220.5
        je        ..B16.32      # Prob 50%                      #220.5
                                # LOE rbx ebp r13d r14d r15d
..B16.31:                       # Preds ..B16.30                # Infreq
        movl      $-1, 12(%rsp)                                 #220.5
        movq      stderr@GOTPCREL(%rip), %r12                   #220.5
        jmp       ..B16.35      # Prob 100%                     #220.5
                                # LOE rbx r12 ebp r13d r14d r15d
..B16.32:                       # Preds ..B16.30                # Infreq
        movl      12(%rsp), %r9d                                #220.5
        testl     %r9d, %r9d                                    #220.5
        jne       ..B16.50      # Prob 50%                      #220.5
                                # LOE rbx ebp r9d r13d r14d r15d
..B16.33:                       # Preds ..B16.32                # Infreq
        lea       .L_2__STRING.1(%rip), %rsi                    #220.5
        movl      $47, %eax                                     #220.5
        movq      %rsi, %rdx                                    #220.5
        movq      %rdx, %rcx                                    #220.5
        movd      %eax, %xmm1                                   #220.5
        andq      $-16, %rdx                                    #220.5
        punpcklbw %xmm1, %xmm1                                  #220.5
        andl      $15, %ecx                                     #220.5
        punpcklbw %xmm1, %xmm1                                  #220.5
        pshufd    $0, %xmm1, %xmm1                              #220.5
        pxor      %xmm0, %xmm0                                  #220.5
        movdqa    (%rdx), %xmm2                                 #220.5
        pcmpeqb   %xmm2, %xmm0                                  #220.5
        pmovmskb  %xmm0, %r10d                                  #220.5
        pcmpeqb   %xmm1, %xmm2                                  #220.5
        shrl      %cl, %r10d                                    #220.5
        lea       -1(%r10), %rax                                #220.5
        xorl      %eax, %r10d                                   #220.5
        pmovmskb  %xmm2, %eax                                   #220.5
        shrl      %cl, %eax                                     #220.5
        andl      %r10d, %eax                                   #220.5
        je        ..L459        # Prob 60%                      #220.5
        bsr       %rax, %rax                                    #220.5
        addq      %rcx, %rax                                    #220.5
        addq      %rdx, %rax                                    #220.5
..L459:                                                         #
        orl       %r10d, %r10d                                  #220.5
        jg        ..L461        # Prob 60%                      #220.5
..L460:                                                         #
        call      __intel_sse2_strrchr@PLT                      #220.5
..L461:                                                         #
                                # LOE rax rbx rsi ebp r9d r13d r14d r15d
..B16.49:                       # Preds ..B16.33                # Infreq
        addq      $-32, %rsp                                    #220.5
	.cfi_def_cfa_offset 112
        testq     %rax, %rax                                    #220.5
        movq      stderr@GOTPCREL(%rip), %r12                   #220.5
        lea       1(%rax), %r8                                  #220.5
        movl      140(%rbx), %r11d                              #220.5
        cmove     %rsi, %r8                                     #220.5
        lea       .L_2__STRING.4(%rip), %rsi                    #220.5
        movl      %r9d, %edx                                    #220.5
        lea       __$U5(%rip), %rcx                             #220.5
        movl      $220, %r9d                                    #220.5
        xorl      %eax, %eax                                    #220.5
        lea       .L_2__STRING.51(%rip), %r10                   #220.5
        movq      %r10, (%rsp)                                  #220.5
        movl      %r13d, 8(%rsp)                                #220.5
        movq      (%r12), %rdi                                  #220.5
        movl      %r11d, 16(%rsp)                               #220.5
#       fprintf(FILE *, const char *, ...)
        call      fprintf@PLT                                   #220.5
                                # LOE rbx r12 ebp r13d r14d r15d
..B16.48:                       # Preds ..B16.49                # Infreq
        addq      $32, %rsp                                     #220.5
	.cfi_def_cfa_offset 80
                                # LOE rbx r12 ebp r13d r14d r15d
..B16.34:                       # Preds ..B16.48                # Infreq
        movq      (%r12), %rdi                                  #220.5
#       fflush(FILE *)
        call      fflush@PLT                                    #220.5
                                # LOE rbx r12 ebp r13d r14d r15d
..B16.35:                       # Preds ..B16.31 ..B16.34 ..B16.50 # Infreq
        movl      $10, %edi                                     #220.5
        movq      (%r12), %rsi                                  #220.5
        call      fputc@PLT                                     #220.5
                                # LOE rbx r12 ebp r13d r14d r15d
..B16.36:                       # Preds ..B16.35                # Infreq
        movq      (%r12), %rdi                                  #220.5
#       fflush(FILE *)
        call      fflush@PLT                                    #220.5
                                # LOE rbx ebp r13d r14d r15d
..B16.37:                       # Preds ..B16.36                # Infreq
        movl      140(%rbx), %eax                               #220.5
        movl      $1, %r12d                                     #220.5
        jmp       ..B16.2       # Prob 100%                     #220.5
                                # LOE rbx eax ebp r12d r13d r14d r15d
..B16.38:                       # Preds ..B16.28                # Infreq
        movl      140(%rbx), %eax                               #220.5
        jmp       ..B16.2       # Prob 100%                     #220.5
                                # LOE rbx eax ebp r12d r13d r14d r15d
..B16.50:                       # Preds ..B16.32                # Infreq
        movq      stderr@GOTPCREL(%rip), %r12                   #220.5
        jmp       ..B16.35      # Prob 100%                     #220.5
                                # LOE rbx r12 ebp r13d r14d r15d
..B16.51:                       # Preds ..B16.22                # Infreq
        movq      stderr@GOTPCREL(%rip), %rax                   #220.5
        movq      %rax, (%rsp)                                  #220.5
        jmp       ..B16.25      # Prob 100%                     #220.5
                                # LOE rbx ebp r12d r14d r15d
..B16.52:                       # Preds ..B16.12                # Infreq
        movq      stderr@GOTPCREL(%rip), %rax                   #220.5
        movq      %rax, (%rsp)                                  #220.5
        jmp       ..B16.15      # Prob 100%                     #220.5
        .align    16,0x90
	.cfi_endproc
                                # LOE rbx ebp r12d r14d r15d
# mark_end;
	.type	_ZN8yaskSite6setDimEiiiib,@function
	.size	_ZN8yaskSite6setDimEiiiib,.-_ZN8yaskSite6setDimEiiiib
	.data
# -- End  _ZN8yaskSite6setDimEiiiib
	.text
# -- Begin  _ZN8yaskSite9setThreadEiib
	.text
# mark_begin;
       .align    16,0x90
	.globl _ZN8yaskSite9setThreadEiib
# --- yaskSite::setThread(yaskSite *, int, int, bool)
_ZN8yaskSite9setThreadEiib:
# parameter 1: %rdi
# parameter 2: %esi
# parameter 3: %edx
# parameter 4: %ecx
..B17.1:                        # Preds ..B17.0

### {

	.cfi_startproc
	.cfi_personality 0x93,DW.ref.__gxx_personality_v0
..___tag_value__ZN8yaskSite9setThreadEiib.465:
..L466:
                                                        #237.1
        pushq     %r14                                          #237.1
	.cfi_def_cfa_offset 16
	.cfi_offset 14, -16
        movq      %rdi, %r14                                    #237.1

###     nthreads = nthreads_;
###     threadPerBlock = threadPerBlock_;
###     if(resetOthers)

        testb     %cl, %cl                                      #240.8
        movl      %esi, 56(%r14)                                #238.5
        movl      %edx, 60(%r14)                                #239.5
        jne       ..B17.3       # Prob 5%                       #240.8
                                # LOE rbx rbp r12 r13 r14 r15
..B17.2:                        # Preds ..B17.4 ..B17.1

###     {
###         //again reset default
###         setDefaultBlock();
###         setDefaultSubBlock();
###     }
### 
###     threadUpdated = true;

        movb      $1, 165(%r14)                                 #247.5

### }

	.cfi_restore 14
        popq      %r14                                          #248.1
	.cfi_def_cfa_offset 8
        ret                                                     #248.1
	.cfi_def_cfa_offset 16
	.cfi_offset 14, -16
                                # LOE
..B17.3:                        # Preds ..B17.1                 # Infreq
        movq      %r14, %rdi                                    #243.9
..___tag_value__ZN8yaskSite9setThreadEiib.473:
#       yaskSite::setDefaultBlock(yaskSite *)
        call      _ZN8yaskSite15setDefaultBlockEv@PLT           #243.9
..___tag_value__ZN8yaskSite9setThreadEiib.474:
                                # LOE rbx rbp r12 r13 r14 r15
..B17.4:                        # Preds ..B17.3                 # Infreq
        movq      %r14, %rdi                                    #244.9
..___tag_value__ZN8yaskSite9setThreadEiib.475:
#       yaskSite::setDefaultSubBlock(yaskSite *)
        call      _ZN8yaskSite18setDefaultSubBlockEv@PLT        #244.9
..___tag_value__ZN8yaskSite9setThreadEiib.476:
        jmp       ..B17.2       # Prob 100%                     #244.9
        .align    16,0x90
	.cfi_endproc
                                # LOE rbx rbp r12 r13 r14 r15
# mark_end;
	.type	_ZN8yaskSite9setThreadEiib,@function
	.size	_ZN8yaskSite9setThreadEiib,.-_ZN8yaskSite9setThreadEiib
	.data
# -- End  _ZN8yaskSite9setThreadEiib
	.text
# -- Begin  _ZN8yaskSite10blockTunerEPcS0_S0_ddd
	.text
# mark_begin;
       .align    16,0x90
	.globl _ZN8yaskSite10blockTunerEPcS0_S0_ddd
# --- yaskSite::blockTuner(yaskSite *, char *, char *, char *, double, double, double)
_ZN8yaskSite10blockTunerEPcS0_S0_ddd:
# parameter 1: %rdi
# parameter 2: %rsi
# parameter 3: %rdx
# parameter 4: %rcx
# parameter 5: %xmm0
# parameter 6: %xmm1
# parameter 7: %xmm2
..B18.1:                        # Preds ..B18.0

### {

	.cfi_startproc
	.cfi_personality 0x93,DW.ref.__gxx_personality_v0
..___tag_value__ZN8yaskSite10blockTunerEPcS0_S0_ddd.478:
..L479:
                                                        #561.1
        pushq     %r15                                          #561.1
	.cfi_def_cfa_offset 16
	.cfi_offset 15, -16
        pushq     %rbx                                          #561.1
	.cfi_def_cfa_offset 24
	.cfi_offset 3, -24
        pushq     %rbp                                          #561.1
	.cfi_def_cfa_offset 32
	.cfi_offset 6, -32
        subq      $16, %rsp                                     #561.1
	.cfi_def_cfa_offset 48
        movq      %rcx, %rbp                                    #561.1
        movsd     %xmm2, 8(%rsp)                                #561.1
        movq      %rdx, %rbx                                    #561.1
        movsd     %xmm1, (%rsp)                                 #561.1
        movq      %rdi, %r15                                    #561.1

###     if(temporalTuner(temporalCache, sf_temporal))

..___tag_value__ZN8yaskSite10blockTunerEPcS0_S0_ddd.487:
#       yaskSite::temporalTuner(yaskSite *, char *, double)
        call      _ZN8yaskSite13temporalTunerEPcd@PLT           #562.8
..___tag_value__ZN8yaskSite10blockTunerEPcS0_S0_ddd.488:
                                # LOE rbx rbp r12 r13 r14 r15 eax
..B18.2:                        # Preds ..B18.1
        testb     %al, %al                                      #562.8
        je        ..B18.6       # Prob 57%                      #562.8
                                # LOE rbx rbp r12 r13 r14 r15
..B18.3:                        # Preds ..B18.2

###     {
###         if(spatialTuner(spatialOBC, spatialIBC, sf_OBC, sf_IBC))

        movsd     (%rsp), %xmm0                                 #564.12
        movq      %r15, %rdi                                    #564.12
        movsd     8(%rsp), %xmm1                                #564.12
        movq      %rbx, %rsi                                    #564.12
        movq      %rbp, %rdx                                    #564.12
..___tag_value__ZN8yaskSite10blockTunerEPcS0_S0_ddd.489:
#       yaskSite::spatialTuner(yaskSite *, char *, char *, double, double)
        call      _ZN8yaskSite12spatialTunerEPcS0_dd@PLT        #564.12
..___tag_value__ZN8yaskSite10blockTunerEPcS0_S0_ddd.490:
                                # LOE r12 r13 r14 eax
..B18.4:                        # Preds ..B18.3
        testb     %al, %al                                      #564.12
        je        ..B18.6       # Prob 50%                      #564.12
                                # LOE r12 r13 r14
..B18.5:                        # Preds ..B18.4

###         {
###             return true;

        movl      $1, %eax                                      #566.20
        addq      $16, %rsp                                     #566.20
	.cfi_def_cfa_offset 32
	.cfi_restore 6
        popq      %rbp                                          #566.20
	.cfi_def_cfa_offset 24
	.cfi_restore 3
        popq      %rbx                                          #566.20
	.cfi_def_cfa_offset 16
	.cfi_restore 15
        popq      %r15                                          #566.20
	.cfi_def_cfa_offset 8
        ret                                                     #566.20
	.cfi_def_cfa_offset 48
	.cfi_offset 3, -24
	.cfi_offset 6, -32
	.cfi_offset 15, -16
                                # LOE
..B18.6:                        # Preds ..B18.4 ..B18.2

###         }
###     }
###     return false;

        xorl      %eax, %eax                                    #569.12
        addq      $16, %rsp                                     #569.12
	.cfi_def_cfa_offset 32
	.cfi_restore 6
        popq      %rbp                                          #569.12
	.cfi_def_cfa_offset 24
	.cfi_restore 3
        popq      %rbx                                          #569.12
	.cfi_def_cfa_offset 16
	.cfi_restore 15
        popq      %r15                                          #569.12
	.cfi_def_cfa_offset 8
        ret                                                     #569.12
        .align    16,0x90
	.cfi_endproc
                                # LOE
# mark_end;
	.type	_ZN8yaskSite10blockTunerEPcS0_S0_ddd,@function
	.size	_ZN8yaskSite10blockTunerEPcS0_S0_ddd,.-_ZN8yaskSite10blockTunerEPcS0_S0_ddd
	.data
# -- End  _ZN8yaskSite10blockTunerEPcS0_S0_ddd
	.text
# -- Begin  _ZN8yaskSite13temporalTunerEPcd
	.text
# mark_begin;
       .align    16,0x90
	.globl _ZN8yaskSite13temporalTunerEPcd
# --- yaskSite::temporalTuner(yaskSite *, char *, double)
_ZN8yaskSite13temporalTunerEPcd:
# parameter 1: %rdi
# parameter 2: %rsi
# parameter 3: %xmm0
..B19.1:                        # Preds ..B19.0

### {

	.cfi_startproc
	.cfi_personality 0x93,DW.ref.__gxx_personality_v0
..___tag_value__ZN8yaskSite13temporalTunerEPcd.510:
..L511:
                                                        #461.1
        pushq     %r12                                          #461.1
	.cfi_def_cfa_offset 16
	.cfi_offset 12, -16
        pushq     %r13                                          #461.1
	.cfi_def_cfa_offset 24
	.cfi_offset 13, -24
        pushq     %r14                                          #461.1
	.cfi_def_cfa_offset 32
	.cfi_offset 14, -32
        pushq     %r15                                          #461.1
	.cfi_def_cfa_offset 40
	.cfi_offset 15, -40
        subq      $104, %rsp                                    #461.1
	.cfi_def_cfa_offset 144
        movq      %rdi, %r15                                    #461.1
        movsd     %xmm0, 64(%rsp)                               #461.1

###     int rx_min = 30;
###     int ry_min = 10;
###     int rz_min = 128;
### 
###     if(dim<3)
###     {
###         ry_min = 128;
###         rz_min = 512;
###     }
### 
###     cache_info blockCache = cache(cacheStr);

        lea       8(%rsp), %rdi                                 #472.35
        movq      %rsi, %r12                                    #461.1
        movl      140(%r15), %r13d                              #466.8
..___tag_value__ZN8yaskSite13temporalTunerEPcd.521:
#       cache(char *)
        call      _Z5cachePc@PLT                                #472.35
..___tag_value__ZN8yaskSite13temporalTunerEPcd.522:
                                # LOE rbx rbp r12 r15 r13d
..B19.2:                        # Preds ..B19.1

###     if(!blockCache.shared)

        cmpb      $0, 32(%rsp)                                  #473.9
        jne       ..B19.56      # Prob 50%                      #473.9
                                # LOE rbx rbp r12 r15 r13d
..B19.3:                        # Preds ..B19.2

###     {
###         WARNING_PRINT("Will not do any tuning for temporal blocking; because %s is not a shared cache", cacheStr);

        movl      $1140850688, %edi                             #475.9
        lea       56(%rsp), %rsi                                #475.9
..___tag_value__ZN8yaskSite13temporalTunerEPcd.523:
#       MPI_Comm_rank(MPI_Comm, int *)
        call      MPI_Comm_rank@PLT                             #475.9
..___tag_value__ZN8yaskSite13temporalTunerEPcd.524:
                                # LOE rbx rbp r12 r15 eax r13d
..B19.4:                        # Preds ..B19.3
        testl     %eax, %eax                                    #475.9
        je        ..B19.6       # Prob 50%                      #475.9
                                # LOE rbx rbp r12 r15 r13d
..B19.5:                        # Preds ..B19.4
        movl      $-1, 56(%rsp)                                 #475.9
        movq      stderr@GOTPCREL(%rip), %r14                   #475.9
        jmp       ..B19.9       # Prob 100%                     #475.9
                                # LOE rbx rbp r14 r15 r13d
..B19.6:                        # Preds ..B19.4
        movl      56(%rsp), %r9d                                #475.9
        testl     %r9d, %r9d                                    #475.9
        jne       ..B19.55      # Prob 50%                      #475.9
                                # LOE rbx rbp r12 r15 r9d r13d
..B19.7:                        # Preds ..B19.6
        lea       .L_2__STRING.1(%rip), %rdi                    #475.9
        movl      $47, %eax                                     #475.9
        movq      %rdi, %rdx                                    #475.9
        movq      %rdx, %rcx                                    #475.9
        movd      %eax, %xmm1                                   #475.9
        andq      $-16, %rdx                                    #475.9
        punpcklbw %xmm1, %xmm1                                  #475.9
        andl      $15, %ecx                                     #475.9
        punpcklbw %xmm1, %xmm1                                  #475.9
        pshufd    $0, %xmm1, %xmm1                              #475.9
        pxor      %xmm0, %xmm0                                  #475.9
        movdqa    (%rdx), %xmm2                                 #475.9
        pcmpeqb   %xmm2, %xmm0                                  #475.9
        pmovmskb  %xmm0, %r10d                                  #475.9
        pcmpeqb   %xmm1, %xmm2                                  #475.9
        shrl      %cl, %r10d                                    #475.9
        lea       -1(%r10), %rax                                #475.9
        xorl      %eax, %r10d                                   #475.9
        pmovmskb  %xmm2, %eax                                   #475.9
        shrl      %cl, %eax                                     #475.9
        andl      %r10d, %eax                                   #475.9
        je        ..L525        # Prob 60%                      #475.9
        bsr       %rax, %rax                                    #475.9
        addq      %rcx, %rax                                    #475.9
        addq      %rdx, %rax                                    #475.9
..L525:                                                         #
        orl       %r10d, %r10d                                  #475.9
        jg        ..L527        # Prob 60%                      #475.9
..L526:                                                         #
        call      __intel_sse2_strrchr@PLT                      #475.9
..L527:                                                         #
                                # LOE rax rbx rbp rdi r12 r15 r9d r13d
..B19.44:                       # Preds ..B19.7
        addq      $-16, %rsp                                    #475.9
	.cfi_def_cfa_offset 160
        testq     %rax, %rax                                    #475.9
        movq      stderr@GOTPCREL(%rip), %r14                   #475.9
        lea       1(%rax), %r8                                  #475.9
        cmove     %rdi, %r8                                     #475.9
        lea       .L_2__STRING.55(%rip), %rsi                   #475.9
        movl      %r9d, %edx                                    #475.9
        lea       __$U7(%rip), %rcx                             #475.9
        movl      $475, %r9d                                    #475.9
        xorl      %eax, %eax                                    #475.9
        movq      (%r14), %rdi                                  #475.9
        movq      %r12, (%rsp)                                  #475.9
#       fprintf(FILE *, const char *, ...)
        call      fprintf@PLT                                   #475.9
                                # LOE rbx rbp r14 r15 r13d
..B19.43:                       # Preds ..B19.44
        addq      $16, %rsp                                     #475.9
	.cfi_def_cfa_offset 144
                                # LOE rbx rbp r14 r15 r13d
..B19.8:                        # Preds ..B19.43
        movq      (%r14), %rdi                                  #475.9
#       fflush(FILE *)
        call      fflush@PLT                                    #475.9
                                # LOE rbx rbp r14 r15 r13d
..B19.9:                        # Preds ..B19.5 ..B19.8 ..B19.55
        movl      $10, %edi                                     #475.9
        movq      (%r14), %rsi                                  #475.9
        call      fputc@PLT                                     #475.9
                                # LOE rbx rbp r14 r15 r13d
..B19.10:                       # Preds ..B19.9
        movq      (%r14), %rdi                                  #475.9
#       fflush(FILE *)
        call      fflush@PLT                                    #475.9
                                # LOE rbx rbp r14 r15 r13d
..B19.11:                       # Preds ..B19.10 ..B19.56

###     }
### 
###     //TODO: determine how many threads share the cache
###     //maybe use hwloc
###     double cacheWords = sf*blockCache.words;
### 
###     //2 because 2 arrays; TODO if more arrays are there
###     double ryInit = cacheWords/((double)(2.0*rx*rz));

        pxor      %xmm2, %xmm2                                  #483.46
        pxor      %xmm1, %xmm1                                  #483.49
        cvtsi2sd  104(%r15), %xmm2                              #483.46
        cvtsi2sd  112(%r15), %xmm1                              #483.49
        mulsd     .L_2il0floatpacket.10(%rip), %xmm2            #483.46
        movsd     64(%rsp), %xmm3                               #480.28
        movaps    %xmm2, %xmm4                                  #483.49
        mulsd     16(%rsp), %xmm3                               #480.28

###     //now set ry : ry is a proper multiple of dy; used ceil to absorb
###     //if possible all the required decomposition here
###     int factor_y = static_cast<int>(ceil(dy/ryInit));

        pxor      %xmm0, %xmm0                                  #486.42
        cvtsi2sd  124(%r15), %xmm0                              #486.42
        mulsd     %xmm1, %xmm4                                  #483.49
        movsd     %xmm3, 64(%rsp)                               #480.28
        divsd     %xmm4, %xmm3                                  #483.49
        movsd     %xmm0, (%rsp)                                 #486.42
        divsd     %xmm3, %xmm0                                  #486.37
        movsd     %xmm1, 88(%rsp)                               #483.49
        movsd     %xmm3, 96(%rsp)                               #483.49
        movsd     %xmm2, 72(%rsp)                               #486.37
        call      ceil@PLT                                      #486.37
                                # LOE rbx rbp r14 r15 r13d xmm0
..B19.45:                       # Preds ..B19.11

### 
### 
###     //reminders at regions might affect performance; since blocks at reminder
###     //region cannot be distributed to threads properly
###     if(ryInit < ry_min)

        movl      $128, %r12d                                   #491.5
        movl      $10, %eax                                     #491.5
        cmpl      $3, %r13d                                     #491.5
        pxor      %xmm1, %xmm1                                  #491.17
        cmovl     %r12d, %eax                                   #491.5
        cvtsi2sd  %eax, %xmm1                                   #491.17
        cvttsd2si %xmm0, %edx                                   #486.37
        comisd    96(%rsp), %xmm1                               #491.17
        movsd     72(%rsp), %xmm2                               #
        movsd     %xmm1, 80(%rsp)                               #491.17
        jbe       ..B19.13      # Prob 38%                      #491.17
                                # LOE rbx rbp r14 r15 edx r12d r13d xmm1 xmm2 ymm1 ymm2 zmm1 zmm2
..B19.12:                       # Preds ..B19.45

###     {
###         ryInit = ry_min;
###         factor_y = static_cast<int>(floor(dy/ryInit));

        movsd     (%rsp), %xmm0                                 #494.37
        divsd     %xmm1, %xmm0                                  #494.37
        movsd     %xmm1, 96(%rsp)                               #493.9
        movsd     %xmm2, 72(%rsp)                               #494.37
        call      floor@PLT                                     #494.37
                                # LOE rbx rbp r14 r15 r12d r13d xmm0
..B19.46:                       # Preds ..B19.12
        movsd     72(%rsp), %xmm2                               #
        cvttsd2si %xmm0, %edx                                   #494.37
                                # LOE rbx rbp r14 r15 edx r12d r13d xmm2 ymm2 zmm2
..B19.13:                       # Preds ..B19.46 ..B19.45

###     }
### 
###     ry = static_cast<int>(round(dy/((double)factor_y)));

        pxor      %xmm1, %xmm1                                  #497.27
        cvtsi2sd  %edx, %xmm1                                   #497.27
        movsd     (%rsp), %xmm3                                 #497.27
        pxor      %xmm0, %xmm0                                  #497.27
        divsd     %xmm1, %xmm3                                  #497.27
        comisd    %xmm0, %xmm3                                  #497.27
        movsd     .L_2il0floatpacket.12(%rip), %xmm4            #497.27

### 
###     double words = 2.0*rx*ry*rz;

        pxor      %xmm1, %xmm1                                  #499.27
        jae       ..L530        # Prob 50%                      #497.27
        movsd     .L_2il0floatpacket.13(%rip), %xmm4            #497.27
..L530:                                                         #
        movsd     88(%rsp), %xmm5                               #499.30
        addsd     %xmm3, %xmm4                                  #497.27
        cvttsd2si %xmm4, %eax                                   #497.27
        cvtsi2sd  %eax, %xmm1                                   #499.27
        mulsd     %xmm1, %xmm2                                  #499.27
        mulsd     %xmm2, %xmm5                                  #499.30
        movl      %eax, 108(%r15)                               #497.5

### 
### 
###     if(words > cacheWords)

        comisd    64(%rsp), %xmm5                               #502.16
        jbe       ..B19.31      # Prob 50%                      #502.16
                                # LOE rbx rbp r14 r15 r12d r13d xmm1 xmm2
..B19.14:                       # Preds ..B19.13

###     {
###         if(dim>2)

        cmpl      $2, 140(%r15)                                 #504.16
        jle       ..B19.18      # Prob 50%                      #504.16
                                # LOE rbx rbp r14 r15 r12d r13d xmm1 xmm2
..B19.15:                       # Preds ..B19.14

###         {
###             //need to adjust rx or rz
###             //first preference rx since rz is inner dimension
###             double rxInit = cacheWords/(2.0*ry*rz);

        movsd     .L_2il0floatpacket.10(%rip), %xmm2            #508.45

### 
###             //Used ceil so if possible to avoid decomposing z direction
###             int factor_x = static_cast<int>(ceil(dx/rxInit));

        pxor      %xmm0, %xmm0                                  #511.50
        mulsd     %xmm1, %xmm2                                  #508.45
        cvtsi2sd  120(%r15), %xmm0                              #511.50
        mulsd     88(%rsp), %xmm2                               #508.48
        movsd     64(%rsp), %xmm3                               #508.48
        divsd     %xmm2, %xmm3                                  #508.48
        movsd     %xmm0, 40(%rsp)                               #511.50
        divsd     %xmm3, %xmm0                                  #511.45
        movsd     %xmm3, (%rsp)                                 #508.48
        movsd     %xmm1, 48(%rsp)                               #511.45
        call      ceil@PLT                                      #511.45
                                # LOE rbx rbp r14 r15 r12d r13d xmm0
..B19.47:                       # Preds ..B19.15
        movsd     .L_2il0floatpacket.11(%rip), %xmm2            #462.16
        movsd     48(%rsp), %xmm1                               #
        cvttsd2si %xmm0, %eax                                   #511.45

### 
###             if(rxInit < rx_min)

        comisd    (%rsp), %xmm2                                 #513.25
        jbe       ..B19.17      # Prob 38%                      #513.25
                                # LOE rbx rbp r14 r15 eax r12d r13d xmm1 xmm2 ymm1 zmm1
..B19.16:                       # Preds ..B19.47

###             {
###                 rxInit = rx_min;
###                 factor_x = static_cast<int>(floor(dx/rxInit));

        movsd     40(%rsp), %xmm0                               #516.45
        divsd     %xmm2, %xmm0                                  #516.45
        movsd     %xmm1, 48(%rsp)                               #516.45
        call      floor@PLT                                     #516.45
                                # LOE rbx rbp r14 r15 r12d r13d xmm0
..B19.48:                       # Preds ..B19.16
        movsd     48(%rsp), %xmm1                               #
        cvttsd2si %xmm0, %eax                                   #516.45
                                # LOE rbx rbp r14 r15 eax r12d r13d xmm1 ymm1 zmm1
..B19.17:                       # Preds ..B19.48 ..B19.47

###             }
### 
###             //Rounding it to get lower reminder
###             rx = static_cast<int>(round(dx/((double)factor_x)));

        pxor      %xmm2, %xmm2                                  #520.35

### 
### 
###             words = 2.0*rx*ry*rz;

        pxor      %xmm5, %xmm5                                  #523.25
        cvtsi2sd  %eax, %xmm2                                   #520.35
        movsd     40(%rsp), %xmm3                               #520.35
        pxor      %xmm0, %xmm0                                  #520.35
        divsd     %xmm2, %xmm3                                  #520.35
        comisd    %xmm0, %xmm3                                  #520.35
        movsd     .L_2il0floatpacket.12(%rip), %xmm4            #520.35
        jae       ..L531        # Prob 50%                      #520.35
        movsd     .L_2il0floatpacket.13(%rip), %xmm4            #520.35
..L531:                                                         #
        movsd     .L_2il0floatpacket.10(%rip), %xmm2            #523.25
        addsd     %xmm3, %xmm4                                  #520.35
        cvttsd2si %xmm4, %eax                                   #520.35
        cvtsi2sd  %eax, %xmm5                                   #523.25
        mulsd     %xmm5, %xmm2                                  #523.25
        mulsd     %xmm1, %xmm2                                  #523.28
        movsd     88(%rsp), %xmm1                               #523.31
        mulsd     %xmm2, %xmm1                                  #523.31
        movl      %eax, 104(%r15)                               #520.13

###         }
### 
###         //now adjust ry if required
###         if(words > cacheWords)

        comisd    64(%rsp), %xmm1                               #527.20
        jbe       ..B19.31      # Prob 50%                      #527.20
                                # LOE rbx rbp r14 r15 r12d r13d xmm2
..B19.18:                       # Preds ..B19.14 ..B19.17

###         {
###             double rzInit = cacheWords/(2.0*rx*ry);
### 
###             if(ryInit < ry_min)

        movsd     80(%rsp), %xmm0                               #531.25
        comisd    96(%rsp), %xmm0                               #531.25
        jbe       ..B19.20      # Prob 50%                      #531.25
                                # LOE rbx rbp r14 r15 r12d r13d xmm2
..B19.19:                       # Preds ..B19.18

###             {
###                 rzInit = rz_min;

        movl      $512, %eax                                    #533.17
        cmpl      $3, %r13d                                     #533.17
        pxor      %xmm1, %xmm1                                  #533.26
        cmovl     %eax, %r12d                                   #533.17
        cvtsi2sd  %r12d, %xmm1                                  #533.26
        jmp       ..B19.21      # Prob 100%                     #533.26
                                # LOE rbx rbp r14 r15 xmm1 xmm2
..B19.20:                       # Preds ..B19.18
        movsd     64(%rsp), %xmm1                               #529.48
        divsd     %xmm2, %xmm1                                  #529.48
                                # LOE rbx rbp r14 r15 xmm1 xmm2
..B19.21:                       # Preds ..B19.19 ..B19.20

###             }
### 
###             //Here used ceil; since now I can't do much
###             int factor_z = static_cast<int>(ceil(dz/rzInit));

        pxor      %xmm0, %xmm0                                  #537.50
        cvtsi2sd  128(%r15), %xmm0                              #537.50
        movsd     %xmm0, (%rsp)                                 #537.50
        divsd     %xmm1, %xmm0                                  #537.45
        movsd     %xmm2, 72(%rsp)                               #537.45
        call      ceil@PLT                                      #537.45
                                # LOE rbx rbp r14 r15 xmm0
..B19.49:                       # Preds ..B19.21

### 
###             rz = static_cast<int>(round(dz/((double)factor_z)));

        cvttsd2si %xmm0, %eax                                   #539.35
        pxor      %xmm1, %xmm1                                  #539.35
        pxor      %xmm3, %xmm3                                  #539.35
        cvtsi2sd  %eax, %xmm1                                   #539.35
        movsd     (%rsp), %xmm4                                 #539.35

### 
###             words = 2.0*rx*ry*rz;

        pxor      %xmm6, %xmm6                                  #541.31
        divsd     %xmm1, %xmm4                                  #539.35
        comisd    %xmm3, %xmm4                                  #539.35
        movsd     .L_2il0floatpacket.12(%rip), %xmm5            #539.35
        jae       ..L532        # Prob 50%                      #539.35
        movsd     .L_2il0floatpacket.13(%rip), %xmm5            #539.35
..L532:                                                         #
        movsd     72(%rsp), %xmm2                               #
        addsd     %xmm4, %xmm5                                  #539.35
        cvttsd2si %xmm5, %edx                                   #539.35
        cvtsi2sd  %edx, %xmm6                                   #541.31
        mulsd     %xmm2, %xmm6                                  #541.31
        movl      %edx, 112(%r15)                               #539.13

### 
###             if(words > cacheWords)

        comisd    64(%rsp), %xmm6                               #543.24
        jbe       ..B19.31      # Prob 50%                      #543.24
                                # LOE rbx rbp r14 r15
..B19.22:                       # Preds ..B19.49

###             {
###                 WARNING_PRINT("Temporal blocking might not be helpful please do it manually if required");

        movl      $1140850688, %edi                             #545.17
        lea       (%rsp), %rsi                                  #545.17
..___tag_value__ZN8yaskSite13temporalTunerEPcd.533:
#       MPI_Comm_rank(MPI_Comm, int *)
        call      MPI_Comm_rank@PLT                             #545.17
..___tag_value__ZN8yaskSite13temporalTunerEPcd.534:
                                # LOE rbx rbp r14 eax
..B19.23:                       # Preds ..B19.22
        testl     %eax, %eax                                    #545.17
        je        ..B19.25      # Prob 50%                      #545.17
                                # LOE rbx rbp r14
..B19.24:                       # Preds ..B19.23
        movl      $-1, (%rsp)                                   #545.17
        jmp       ..B19.28      # Prob 100%                     #545.17
                                # LOE rbx rbp r14
..B19.25:                       # Preds ..B19.23
        movl      (%rsp), %r9d                                  #545.17
        testl     %r9d, %r9d                                    #545.17
        jne       ..B19.28      # Prob 50%                      #545.17
                                # LOE rbx rbp r14 r9d
..B19.26:                       # Preds ..B19.25
        lea       .L_2__STRING.1(%rip), %rsi                    #545.17
        movl      $47, %eax                                     #545.17
        movq      %rsi, %rdx                                    #545.17
        movq      %rdx, %rcx                                    #545.17
        movd      %eax, %xmm1                                   #545.17
        andq      $-16, %rdx                                    #545.17
        punpcklbw %xmm1, %xmm1                                  #545.17
        andl      $15, %ecx                                     #545.17
        punpcklbw %xmm1, %xmm1                                  #545.17
        pshufd    $0, %xmm1, %xmm1                              #545.17
        pxor      %xmm0, %xmm0                                  #545.17
        movdqa    (%rdx), %xmm2                                 #545.17
        pcmpeqb   %xmm2, %xmm0                                  #545.17
        pmovmskb  %xmm0, %r10d                                  #545.17
        pcmpeqb   %xmm1, %xmm2                                  #545.17
        shrl      %cl, %r10d                                    #545.17
        lea       -1(%r10), %rax                                #545.17
        xorl      %eax, %r10d                                   #545.17
        pmovmskb  %xmm2, %eax                                   #545.17
        shrl      %cl, %eax                                     #545.17
        andl      %r10d, %eax                                   #545.17
        je        ..L535        # Prob 60%                      #545.17
        bsr       %rax, %rax                                    #545.17
        addq      %rcx, %rax                                    #545.17
        addq      %rdx, %rax                                    #545.17
..L535:                                                         #
        orl       %r10d, %r10d                                  #545.17
        jg        ..L537        # Prob 60%                      #545.17
..L536:                                                         #
        call      __intel_sse2_strrchr@PLT                      #545.17
..L537:                                                         #
                                # LOE rax rbx rbp rsi r14 r9d
..B19.51:                       # Preds ..B19.26
        testq     %rax, %rax                                    #545.17
        lea       1(%rax), %r8                                  #545.17
        movl      %r9d, %edx                                    #545.17
        lea       __$U7(%rip), %rcx                             #545.17
        cmove     %rsi, %r8                                     #545.17
        lea       .L_2__STRING.56(%rip), %rsi                   #545.17
        movl      $545, %r9d                                    #545.17
        xorl      %eax, %eax                                    #545.17
        movq      (%r14), %rdi                                  #545.17
#       fprintf(FILE *, const char *, ...)
        call      fprintf@PLT                                   #545.17
                                # LOE rbx rbp r14
..B19.27:                       # Preds ..B19.51
        movq      (%r14), %rdi                                  #545.17
#       fflush(FILE *)
        call      fflush@PLT                                    #545.17
                                # LOE rbx rbp r14
..B19.28:                       # Preds ..B19.24 ..B19.27 ..B19.25
        movl      $10, %edi                                     #545.17
        movq      (%r14), %rsi                                  #545.17
        call      fputc@PLT                                     #545.17
                                # LOE rbx rbp r14
..B19.29:                       # Preds ..B19.28
        movq      (%r14), %rdi                                  #545.17
#       fflush(FILE *)
        call      fflush@PLT                                    #545.17
                                # LOE rbx rbp
..B19.30:                       # Preds ..B19.29

###                 return false;

        xorl      %eax, %eax                                    #546.24
        addq      $104, %rsp                                    #546.24
	.cfi_def_cfa_offset 40
	.cfi_restore 15
        popq      %r15                                          #546.24
	.cfi_def_cfa_offset 32
	.cfi_restore 14
        popq      %r14                                          #546.24
	.cfi_def_cfa_offset 24
	.cfi_restore 13
        popq      %r13                                          #546.24
	.cfi_def_cfa_offset 16
	.cfi_restore 12
        popq      %r12                                          #546.24
	.cfi_def_cfa_offset 8
        ret                                                     #546.24
	.cfi_def_cfa_offset 144
	.cfi_offset 12, -16
	.cfi_offset 13, -24
	.cfi_offset 14, -32
	.cfi_offset 15, -40
                                # LOE
..B19.31:                       # Preds ..B19.49 ..B19.17 ..B19.13

###             }
###         }
###     }
### 
###     //Right now we use all the time available for 
###     //blocking; might need to restrict it;
###     //to say max 50;
###     rt = dt;

        movl      116(%r15), %eax                               #554.10

### 
###     INFO_PRINT("Found: rt=%d rx=%d ry=%d, rz=%d", rt, rx, ry, rz);

        movl      $1140850688, %edi                             #556.5
        movl      %eax, 100(%r15)                               #554.5
        lea       (%rsp), %rsi                                  #556.5
..___tag_value__ZN8yaskSite13temporalTunerEPcd.552:
#       MPI_Comm_rank(MPI_Comm, int *)
        call      MPI_Comm_rank@PLT                             #556.5
..___tag_value__ZN8yaskSite13temporalTunerEPcd.553:
                                # LOE rbx rbp r14 r15 eax
..B19.32:                       # Preds ..B19.31
        testl     %eax, %eax                                    #556.5
        je        ..B19.34      # Prob 50%                      #556.5
                                # LOE rbx rbp r14 r15
..B19.33:                       # Preds ..B19.32
        movl      $-1, (%rsp)                                   #556.5
        jmp       ..B19.37      # Prob 100%                     #556.5
                                # LOE rbx rbp r14
..B19.34:                       # Preds ..B19.32
        movl      (%rsp), %r9d                                  #556.5
        testl     %r9d, %r9d                                    #556.5
        jne       ..B19.37      # Prob 50%                      #556.5
                                # LOE rbx rbp r14 r15 r9d
..B19.35:                       # Preds ..B19.34
        lea       .L_2__STRING.1(%rip), %rsi                    #556.5
        movl      $47, %eax                                     #556.5
        movq      %rsi, %rdx                                    #556.5
        movq      %rdx, %rcx                                    #556.5
        movd      %eax, %xmm1                                   #556.5
        andq      $-16, %rdx                                    #556.5
        punpcklbw %xmm1, %xmm1                                  #556.5
        andl      $15, %ecx                                     #556.5
        punpcklbw %xmm1, %xmm1                                  #556.5
        pshufd    $0, %xmm1, %xmm1                              #556.5
        pxor      %xmm0, %xmm0                                  #556.5
        movdqa    (%rdx), %xmm2                                 #556.5
        pcmpeqb   %xmm2, %xmm0                                  #556.5
        pmovmskb  %xmm0, %r10d                                  #556.5
        pcmpeqb   %xmm1, %xmm2                                  #556.5
        shrl      %cl, %r10d                                    #556.5
        lea       -1(%r10), %rax                                #556.5
        xorl      %eax, %r10d                                   #556.5
        pmovmskb  %xmm2, %eax                                   #556.5
        shrl      %cl, %eax                                     #556.5
        andl      %r10d, %eax                                   #556.5
        je        ..L554        # Prob 60%                      #556.5
        bsr       %rax, %rax                                    #556.5
        addq      %rcx, %rax                                    #556.5
        addq      %rdx, %rax                                    #556.5
..L554:                                                         #
        orl       %r10d, %r10d                                  #556.5
        jg        ..L556        # Prob 60%                      #556.5
..L555:                                                         #
        call      __intel_sse2_strrchr@PLT                      #556.5
..L556:                                                         #
                                # LOE rax rbx rbp rsi r14 r15 r9d
..B19.54:                       # Preds ..B19.35
        movl      112(%r15), %r10d                              #556.5
        testq     %rax, %rax                                    #556.5
        pushq     %r10                                          #556.5
	.cfi_def_cfa_offset 152
        movl      108(%r15), %r11d                              #556.5
        lea       1(%rax), %r8                                  #556.5
        pushq     %r11                                          #556.5
	.cfi_def_cfa_offset 160
        movl      104(%r15), %r12d                              #556.5
        cmove     %rsi, %r8                                     #556.5
        pushq     %r12                                          #556.5
	.cfi_def_cfa_offset 168
        lea       .L_2__STRING.57(%rip), %rsi                   #556.5
        movl      %r9d, %edx                                    #556.5
        lea       __$U7(%rip), %rcx                             #556.5
        movl      $556, %r9d                                    #556.5
        xorl      %eax, %eax                                    #556.5
        movl      100(%r15), %r15d                              #556.5
        pushq     %r15                                          #556.5
	.cfi_def_cfa_offset 176
        movq      (%r14), %rdi                                  #556.5
#       fprintf(FILE *, const char *, ...)
        call      fprintf@PLT                                   #556.5
                                # LOE rbx rbp r14
..B19.53:                       # Preds ..B19.54
        addq      $32, %rsp                                     #556.5
	.cfi_def_cfa_offset 144
                                # LOE rbx rbp r14
..B19.36:                       # Preds ..B19.53
        movq      (%r14), %rdi                                  #556.5
#       fflush(FILE *)
        call      fflush@PLT                                    #556.5
                                # LOE rbx rbp r14
..B19.37:                       # Preds ..B19.33 ..B19.36 ..B19.34
        movl      $10, %edi                                     #556.5
        movq      (%r14), %rsi                                  #556.5
        call      fputc@PLT                                     #556.5
                                # LOE rbx rbp r14
..B19.38:                       # Preds ..B19.37
        movq      (%r14), %rdi                                  #556.5
#       fflush(FILE *)
        call      fflush@PLT                                    #556.5
                                # LOE rbx rbp
..B19.39:                       # Preds ..B19.38

###     return true;

        movl      $1, %eax                                      #557.12
        addq      $104, %rsp                                    #557.12
	.cfi_def_cfa_offset 40
	.cfi_restore 15
        popq      %r15                                          #557.12
	.cfi_def_cfa_offset 32
	.cfi_restore 14
        popq      %r14                                          #557.12
	.cfi_def_cfa_offset 24
	.cfi_restore 13
        popq      %r13                                          #557.12
	.cfi_def_cfa_offset 16
	.cfi_restore 12
        popq      %r12                                          #557.12
	.cfi_def_cfa_offset 8
        ret                                                     #557.12
	.cfi_def_cfa_offset 144
	.cfi_offset 12, -16
	.cfi_offset 13, -24
	.cfi_offset 14, -32
	.cfi_offset 15, -40
                                # LOE
..B19.55:                       # Preds ..B19.6
        movq      stderr@GOTPCREL(%rip), %r14                   #475.9
        jmp       ..B19.9       # Prob 100%                     #475.9
                                # LOE rbx rbp r14 r15 r13d
..B19.56:                       # Preds ..B19.2
        movq      stderr@GOTPCREL(%rip), %r14                   #475.9
        jmp       ..B19.11      # Prob 100%                     #475.9
        .align    16,0x90
	.cfi_endproc
                                # LOE rbx rbp r14 r15 r13d
# mark_end;
	.type	_ZN8yaskSite13temporalTunerEPcd,@function
	.size	_ZN8yaskSite13temporalTunerEPcd,.-_ZN8yaskSite13temporalTunerEPcd
	.data
# -- End  _ZN8yaskSite13temporalTunerEPcd
	.text
# -- Begin  _ZN8yaskSite12spatialTunerEPcS0_dd
	.text
# mark_begin;
       .align    16,0x90
	.globl _ZN8yaskSite12spatialTunerEPcS0_dd
# --- yaskSite::spatialTuner(yaskSite *, char *, char *, double, double)
_ZN8yaskSite12spatialTunerEPcS0_dd:
# parameter 1: %rdi
# parameter 2: %rsi
# parameter 3: %rdx
# parameter 4: %xmm0
# parameter 5: %xmm1
..B20.1:                        # Preds ..B20.0

### {

	.cfi_startproc
	.cfi_personality 0x93,DW.ref.__gxx_personality_v0
..___tag_value__ZN8yaskSite12spatialTunerEPcS0_dd.577:
..L578:
                                                        #355.1
        pushq     %r13                                          #355.1
	.cfi_def_cfa_offset 16
	.cfi_offset 13, -16
        pushq     %r14                                          #355.1
	.cfi_def_cfa_offset 24
	.cfi_offset 14, -24
        pushq     %r15                                          #355.1
	.cfi_def_cfa_offset 32
	.cfi_offset 15, -32
        pushq     %rbx                                          #355.1
	.cfi_def_cfa_offset 40
	.cfi_offset 3, -40
        pushq     %rbp                                          #355.1
	.cfi_def_cfa_offset 48
	.cfi_offset 6, -48
        subq      $112, %rsp                                    #355.1
	.cfi_def_cfa_offset 160
        movq      %rdi, %rbp                                    #355.1
        movaps    %xmm0, %xmm3                                  #355.1
        movq      %rdx, %r13                                    #355.1

###     if(dim==1)

        movl      140(%rbp), %eax                               #356.8
        cmpl      $1, %eax                                      #356.8
        je        ..B20.28      # Prob 33%                      #356.8
                                # LOE rbp rsi r12 r13 eax xmm1 xmm3
..B20.3:                        # Preds ..B20.1
        cmpl      $2, %eax                                      #356.8
        jne       ..B20.29      # Prob 50%                      #356.8
                                # LOE rbp rsi r12 r13 xmm1 xmm3
..B20.4:                        # Preds ..B20.3

###     {
###         return true;
###     }
### 
###     else if(dim==2)
###     {
###         bx=1;
###         by=ry;
### 
###         double layer = (2*radius+1+1); //layer width

        movl      136(%rbp), %edx                               #366.27
        pxor      %xmm0, %xmm0                                  #366.36
        movl      108(%rbp), %eax                               #364.12

###         cache_info OBC = cache(OBC_str);

        lea       (%rsp), %rdi                                  #367.32
        movl      $1, 88(%rbp)                                  #363.9
        movl      %eax, 92(%rbp)                                #364.9
        lea       2(%rdx,%rdx), %ecx                            #366.36
        cvtsi2sd  %ecx, %xmm0                                   #366.36
        movsd     %xmm0, 32(%rdi)                               #367.32
        movsd     %xmm3, 80(%rdi)                               #367.32
..___tag_value__ZN8yaskSite12spatialTunerEPcS0_dd.590:
#       cache(char *)
        call      _Z5cachePc@PLT                                #367.32
..___tag_value__ZN8yaskSite12spatialTunerEPcS0_dd.591:
                                # LOE rbp r12
..B20.5:                        # Preds ..B20.4
        movsd     80(%rsp), %xmm3                               #

###         double OBC_words = (OBC.shared)?(sf_OBC*OBC.words)/nthreads:(sf_OBC*OBC.words);

        movsd     8(%rsp), %xmm1                                #368.49
        movsd     32(%rsp), %xmm0                               #
        movl      56(%rbp), %eax                                #368.60
        mulsd     %xmm1, %xmm3                                  #368.49
        cmpb      $0, 24(%rsp)                                  #368.29
        je        ..B20.8       # Prob 50%                      #368.29
                                # LOE rbp r12 eax xmm0 xmm3 ymm0 zmm0
..B20.6:                        # Preds ..B20.5
        pxor      %xmm1, %xmm1                                  #368.60
        cvtsi2sd  %eax, %xmm1                                   #368.60
        divsd     %xmm1, %xmm3                                  #368.60
                                # LOE rbp r12 eax xmm0 xmm3 ymm0 zmm0
..B20.8:                        # Preds ..B20.5 ..B20.6

### 
###         double n_z = (layer*((double)rz))/(OBC_words);

        pxor      %xmm2, %xmm2                                  #370.38
        cvtsi2sd  112(%rbp), %xmm2                              #370.38
        mulsd     %xmm2, %xmm0                                  #370.38
        divsd     %xmm3, %xmm0                                  #370.43

###         //round n_z to next greatest multiple of nthreads
###         double n = ceil(n_z/nthreads)*nthreads;
### 
###         if(n_z>1)

        comisd    .L_2il0floatpacket.16(%rip), %xmm0            #374.16
        jbe       ..B20.18      # Prob 50%                      #374.16
                                # LOE rbp r12 eax xmm0 xmm2
..B20.9:                        # Preds ..B20.8
        pxor      %xmm1, %xmm1                                  #372.29
        cvtsi2sd  %eax, %xmm1                                   #372.29
        divsd     %xmm1, %xmm0                                  #372.20
        movsd     %xmm1, 32(%rsp)                               #372.29
        movsd     %xmm2, 40(%rsp)                               #372.20
        call      ceil@PLT                                      #372.20
                                # LOE rbp r12 xmm0
..B20.76:                       # Preds ..B20.9

###         {
###             bz = static_cast<int>(round(rz/n));

        mulsd     32(%rsp), %xmm0                               #376.35

###             setDefaultSubBlock();

        movq      %rbp, %rdi                                    #377.13
        movsd     40(%rsp), %xmm2                               #
        pxor      %xmm1, %xmm1                                  #376.35
        divsd     %xmm0, %xmm2                                  #376.35
        comisd    %xmm1, %xmm2                                  #376.35
        movsd     .L_2il0floatpacket.12(%rip), %xmm3            #376.35
        jae       ..L592        # Prob 50%                      #376.35
        movsd     .L_2il0floatpacket.13(%rip), %xmm3            #376.35
..L592:                                                         #
        addsd     %xmm2, %xmm3                                  #376.35
        cvttsd2si %xmm3, %eax                                   #376.35
        movl      %eax, 96(%rbp)                                #376.13
..___tag_value__ZN8yaskSite12spatialTunerEPcS0_dd.593:
#       yaskSite::setDefaultSubBlock(yaskSite *)
        call      _ZN8yaskSite18setDefaultSubBlockEv@PLT        #377.13
..___tag_value__ZN8yaskSite12spatialTunerEPcS0_dd.594:
                                # LOE rbp r12
..B20.10:                       # Preds ..B20.76

###             INFO_PRINT("Found: bx=%d by=%d, bz=%d", bx, by, bz);

        movl      $1140850688, %edi                             #378.13
        lea       32(%rsp), %rsi                                #378.13
..___tag_value__ZN8yaskSite12spatialTunerEPcS0_dd.595:
#       MPI_Comm_rank(MPI_Comm, int *)
        call      MPI_Comm_rank@PLT                             #378.13
..___tag_value__ZN8yaskSite12spatialTunerEPcS0_dd.596:
                                # LOE rbp r12 eax
..B20.11:                       # Preds ..B20.10
        testl     %eax, %eax                                    #378.13
        je        ..B20.13      # Prob 50%                      #378.13
                                # LOE rbp r12
..B20.12:                       # Preds ..B20.11
        movl      $-1, 32(%rsp)                                 #378.13
        movq      stderr@GOTPCREL(%rip), %r13                   #378.13
        jmp       ..B20.26      # Prob 100%                     #378.13
                                # LOE r12 r13
..B20.13:                       # Preds ..B20.11
        movl      32(%rsp), %ebx                                #378.13
        testl     %ebx, %ebx                                    #378.13
        jne       ..B20.95      # Prob 50%                      #378.13
                                # LOE rbp r12 ebx
..B20.14:                       # Preds ..B20.13
        lea       .L_2__STRING.1(%rip), %rsi                    #378.13
        movl      $47, %eax                                     #378.13
        movq      %rsi, %rdx                                    #378.13
        movq      %rdx, %rcx                                    #378.13
        movd      %eax, %xmm1                                   #378.13
        andq      $-16, %rdx                                    #378.13
        punpcklbw %xmm1, %xmm1                                  #378.13
        andl      $15, %ecx                                     #378.13
        punpcklbw %xmm1, %xmm1                                  #378.13
        pshufd    $0, %xmm1, %xmm1                              #378.13
        pxor      %xmm0, %xmm0                                  #378.13
        movdqa    (%rdx), %xmm2                                 #378.13
        pcmpeqb   %xmm2, %xmm0                                  #378.13
        pmovmskb  %xmm0, %r10d                                  #378.13
        pcmpeqb   %xmm1, %xmm2                                  #378.13
        shrl      %cl, %r10d                                    #378.13
        lea       -1(%r10), %rax                                #378.13
        xorl      %eax, %r10d                                   #378.13
        pmovmskb  %xmm2, %eax                                   #378.13
        shrl      %cl, %eax                                     #378.13
        andl      %r10d, %eax                                   #378.13
        je        ..L597        # Prob 60%                      #378.13
        bsr       %rax, %rax                                    #378.13
        addq      %rcx, %rax                                    #378.13
        addq      %rdx, %rax                                    #378.13
..L597:                                                         #
        orl       %r10d, %r10d                                  #378.13
        jg        ..L599        # Prob 60%                      #378.13
..L598:                                                         #
        call      __intel_sse2_strrchr@PLT                      #378.13
..L599:                                                         #
                                # LOE rax rbp rsi r12 ebx
..B20.79:                       # Preds ..B20.14
        addq      $-32, %rsp                                    #378.13
	.cfi_def_cfa_offset 192
        testq     %rax, %rax                                    #378.13
        movq      stderr@GOTPCREL(%rip), %r13                   #378.13
        lea       1(%rax), %r8                                  #378.13
        movl      88(%rbp), %r10d                               #378.13
        cmove     %rsi, %r8                                     #378.13
        movl      92(%rbp), %r11d                               #378.13
        lea       .L_2__STRING.52(%rip), %rsi                   #378.13
        movl      96(%rbp), %ebp                                #378.13
        movl      %ebx, %edx                                    #378.13
        lea       __$U6(%rip), %rcx                             #378.13
        movl      $378, %r9d                                    #378.13
        xorl      %eax, %eax                                    #378.13
        movl      %r10d, (%rsp)                                 #378.13
        movl      %r11d, 8(%rsp)                                #378.13
        movq      (%r13), %rdi                                  #378.13
        movl      %ebp, 16(%rsp)                                #378.13
#       fprintf(FILE *, const char *, ...)
        call      fprintf@PLT                                   #378.13
                                # LOE r12 r13
..B20.78:                       # Preds ..B20.79
        addq      $32, %rsp                                     #378.13
	.cfi_def_cfa_offset 160
        jmp       ..B20.25      # Prob 100%                     #378.13
                                # LOE r12 r13
..B20.18:                       # Preds ..B20.8

###         }
###         else
###         {
###             setDefaultBlock();

        movq      %rbp, %rdi                                    #382.13
..___tag_value__ZN8yaskSite12spatialTunerEPcS0_dd.602:
#       yaskSite::setDefaultBlock(yaskSite *)
        call      _ZN8yaskSite15setDefaultBlockEv@PLT           #382.13
..___tag_value__ZN8yaskSite12spatialTunerEPcS0_dd.603:
                                # LOE rbp r12
..B20.19:                       # Preds ..B20.18

###             setDefaultSubBlock();

        movq      %rbp, %rdi                                    #383.13
..___tag_value__ZN8yaskSite12spatialTunerEPcS0_dd.604:
#       yaskSite::setDefaultSubBlock(yaskSite *)
        call      _ZN8yaskSite18setDefaultSubBlockEv@PLT        #383.13
..___tag_value__ZN8yaskSite12spatialTunerEPcS0_dd.605:
                                # LOE r12
..B20.20:                       # Preds ..B20.19

###             INFO_PRINT("Spatial Blocking not carried out, dim fits in cache");

        movl      $1140850688, %edi                             #384.13
        lea       32(%rsp), %rsi                                #384.13
..___tag_value__ZN8yaskSite12spatialTunerEPcS0_dd.606:
#       MPI_Comm_rank(MPI_Comm, int *)
        call      MPI_Comm_rank@PLT                             #384.13
..___tag_value__ZN8yaskSite12spatialTunerEPcS0_dd.607:
                                # LOE r12 eax
..B20.21:                       # Preds ..B20.20
        testl     %eax, %eax                                    #384.13
        je        ..B20.23      # Prob 50%                      #384.13
                                # LOE r12
..B20.22:                       # Preds ..B20.21
        movl      $-1, 32(%rsp)                                 #384.13
        movq      stderr@GOTPCREL(%rip), %r13                   #384.13
        jmp       ..B20.26      # Prob 100%                     #384.13
                                # LOE r12 r13
..B20.23:                       # Preds ..B20.21
        movl      32(%rsp), %ebp                                #384.13
        testl     %ebp, %ebp                                    #384.13
        jne       ..B20.95      # Prob 50%                      #384.13
                                # LOE r12 ebp
..B20.24:                       # Preds ..B20.23
        lea       .L_2__STRING.1(%rip), %rbx                    #384.13
        movl      $47, %eax                                     #384.13
        movq      %rbx, %rdx                                    #384.13
        movq      %rdx, %rcx                                    #384.13
        movd      %eax, %xmm1                                   #384.13
        andq      $-16, %rdx                                    #384.13
        punpcklbw %xmm1, %xmm1                                  #384.13
        andl      $15, %ecx                                     #384.13
        punpcklbw %xmm1, %xmm1                                  #384.13
        pshufd    $0, %xmm1, %xmm1                              #384.13
        pxor      %xmm0, %xmm0                                  #384.13
        movdqa    (%rdx), %xmm2                                 #384.13
        pcmpeqb   %xmm2, %xmm0                                  #384.13
        pmovmskb  %xmm0, %r10d                                  #384.13
        pcmpeqb   %xmm1, %xmm2                                  #384.13
        shrl      %cl, %r10d                                    #384.13
        lea       -1(%r10), %rax                                #384.13
        xorl      %eax, %r10d                                   #384.13
        pmovmskb  %xmm2, %eax                                   #384.13
        shrl      %cl, %eax                                     #384.13
        andl      %r10d, %eax                                   #384.13
        je        ..L608        # Prob 60%                      #384.13
        bsr       %rax, %rax                                    #384.13
        addq      %rcx, %rax                                    #384.13
        addq      %rdx, %rax                                    #384.13
..L608:                                                         #
        orl       %r10d, %r10d                                  #384.13
        jg        ..L610        # Prob 60%                      #384.13
..L609:                                                         #
        call      __intel_sse2_strrchr@PLT                      #384.13
..L610:                                                         #
                                # LOE rax rbx r12 ebp
..B20.81:                       # Preds ..B20.24
        movq      stderr@GOTPCREL(%rip), %r13                   #384.13
        testq     %rax, %rax                                    #384.13
        lea       .L_2__STRING.53(%rip), %rsi                   #384.13
        lea       1(%rax), %r8                                  #384.13
        cmove     %rbx, %r8                                     #384.13
        movl      %ebp, %edx                                    #384.13
        lea       __$U6(%rip), %rcx                             #384.13
        movl      $384, %r9d                                    #384.13
        xorl      %eax, %eax                                    #384.13
        movq      (%r13), %rdi                                  #384.13
#       fprintf(FILE *, const char *, ...)
        call      fprintf@PLT                                   #384.13
                                # LOE r12 r13
..B20.25:                       # Preds ..B20.78 ..B20.81
        movq      (%r13), %rdi                                  #384.13
#       fflush(FILE *)
        call      fflush@PLT                                    #384.13
                                # LOE r12 r13
..B20.26:                       # Preds ..B20.12 ..B20.25 ..B20.95 ..B20.22
        movl      $10, %edi                                     #384.13
        movq      (%r13), %rsi                                  #384.13
        call      fputc@PLT                                     #384.13
                                # LOE r12 r13
..B20.27:                       # Preds ..B20.26
        movq      (%r13), %rdi                                  #384.13
#       fflush(FILE *)
        call      fflush@PLT                                    #384.13
                                # LOE r12
..B20.28:                       # Preds ..B20.1 ..B20.27

###         }
### 
###         return true;

        movl      $1, %eax                                      #387.16
        addq      $112, %rsp                                    #387.16
	.cfi_def_cfa_offset 48
	.cfi_restore 6
        popq      %rbp                                          #387.16
	.cfi_def_cfa_offset 40
	.cfi_restore 3
        popq      %rbx                                          #387.16
	.cfi_def_cfa_offset 32
	.cfi_restore 15
        popq      %r15                                          #387.16
	.cfi_def_cfa_offset 24
	.cfi_restore 14
        popq      %r14                                          #387.16
	.cfi_def_cfa_offset 16
	.cfi_restore 13
        popq      %r13                                          #387.16
	.cfi_def_cfa_offset 8
        ret                                                     #387.16
	.cfi_def_cfa_offset 160
	.cfi_offset 3, -40
	.cfi_offset 6, -48
	.cfi_offset 13, -16
	.cfi_offset 14, -24
	.cfi_offset 15, -32
                                # LOE
..B20.29:                       # Preds ..B20.3

###     }
###     else
###     {
###         //don't make bz very small since its the inner dimension
###         int bz_min = 128;
###         int by_min = 4;
### 
###         bool blocked = false;
### 
###         double layer = (2*radius+1+1); //layer width

        movl      136(%rbp), %edx                               #397.27
        pxor      %xmm0, %xmm0                                  #397.36

###         cache_info OBC = cache(OBC_str);

        movsd     %xmm1, 88(%rsp)                               #398.32
        lea       8(%rsp), %rdi                                 #398.32
        movsd     %xmm3, 72(%rdi)                               #398.32
        xorl      %ebx, %ebx                                    #395.22
        lea       2(%rdx,%rdx), %ecx                            #397.36
        cvtsi2sd  %ecx, %xmm0                                   #397.36
        movsd     %xmm0, (%rsp)                                 #397.36
..___tag_value__ZN8yaskSite12spatialTunerEPcS0_dd.628:
#       cache(char *)
        call      _Z5cachePc@PLT                                #398.32
..___tag_value__ZN8yaskSite12spatialTunerEPcS0_dd.629:
                                # LOE rbp r12 r13 ebx
..B20.30:                       # Preds ..B20.29

###         cache_info IBC = cache(IBC_str);

        movq      %r13, %rsi                                    #399.32
        lea       40(%rsp), %rdi                                #399.32
..___tag_value__ZN8yaskSite12spatialTunerEPcS0_dd.630:
#       cache(char *)
        call      _Z5cachePc@PLT                                #399.32
..___tag_value__ZN8yaskSite12spatialTunerEPcS0_dd.631:
                                # LOE rbp r12 ebx
..B20.31:                       # Preds ..B20.30

### 
###         //TODO: determine how many threads are currently sharing the resources
###         //if its in shared mode
###         double OBC_words = (OBC.shared)?(sf_OBC*OBC.words)/nthreads:(sf_OBC*OBC.words);

        pxor      %xmm0, %xmm0                                  #403.60
        cvtsi2sd  56(%rbp), %xmm0                               #403.60
        movsd     80(%rsp), %xmm3                               #
        movsd     88(%rsp), %xmm1                               #
        mulsd     16(%rsp), %xmm3                               #403.49
        movsd     %xmm0, 72(%rsp)                               #403.60
        cmpb      $0, 32(%rsp)                                  #403.29
        je        ..B20.34      # Prob 50%                      #403.29
                                # LOE rbp r12 ebx xmm1 xmm3 ymm1 zmm1
..B20.32:                       # Preds ..B20.31
        divsd     72(%rsp), %xmm3                               #403.60
                                # LOE rbp r12 ebx xmm1 xmm3 ymm1 zmm1
..B20.34:                       # Preds ..B20.31 ..B20.32

###         double IBC_words = (IBC.shared)?(sf_IBC*IBC.words)/nthreads:(sf_IBC*IBC.words);

        movsd     48(%rsp), %xmm2                               #404.49
        mulsd     %xmm1, %xmm2                                  #404.49
        cmpb      $0, 64(%rsp)                                  #404.29
        je        ..B20.37      # Prob 50%                      #404.29
                                # LOE rbp r12 ebx xmm2 xmm3
..B20.35:                       # Preds ..B20.34
        divsd     72(%rsp), %xmm2                               #404.60
                                # LOE rbp r12 ebx xmm2 xmm3
..B20.37:                       # Preds ..B20.34 ..B20.35

### 
###         double n_z = (layer*((double)ry)*((double)rz))/(OBC_words);

        pxor      %xmm0, %xmm0                                  #406.38
        pxor      %xmm1, %xmm1                                  #406.51
        movl      108(%rbp), %r15d                              #406.38
        cvtsi2sd  %r15d, %xmm0                                  #406.38
        movl      112(%rbp), %r14d                              #406.51
        cvtsi2sd  %r14d, %xmm1                                  #406.51
        mulsd     (%rsp), %xmm0                                 #406.38
        mulsd     %xmm1, %xmm0                                  #406.51
        divsd     %xmm3, %xmm0                                  #406.56
        movsd     %xmm0, 80(%rsp)                               #406.56

###         //round n_z to next greatest multiple of nthreads
###         double n = ceil(n_z/nthreads)*nthreads;

        divsd     72(%rsp), %xmm0                               #408.20
        movsd     %xmm1, 88(%rsp)                               #406.51
        movsd     %xmm2, 96(%rsp)                               #408.20
        call      ceil@PLT                                      #408.20
                                # LOE rbp r12 ebx r14d r15d xmm0
..B20.84:                       # Preds ..B20.37
        movsd     96(%rsp), %xmm2                               #

###         double bz_start = std::min(IBC_words/layer, (double)(rz));
###         double bz_end = bz_min;
### 
###         //find bz_start: such that its perfect multiples of rz (to avoid reminder)
###         int bz_ratio_start = static_cast<int>(ceil(rz/bz_start));

        divsd     (%rsp), %xmm2                                 #413.47
        movsd     72(%rsp), %xmm1                               #408.39
        mulsd     %xmm0, %xmm1                                  #408.39
        movsd     88(%rsp), %xmm0                               #413.47
        movaps    %xmm0, %xmm3                                  #413.47
        movsd     %xmm1, 72(%rsp)                               #408.39
        minsd     %xmm2, %xmm3                                  #413.47
        divsd     %xmm3, %xmm0                                  #413.47
        call      ceil@PLT                                      #413.47
                                # LOE rbp r12 ebx r14d r15d xmm0
..B20.83:                       # Preds ..B20.84
        cvttsd2si %xmm0, %r13d                                  #413.47

###         int bz_ratio_end   = static_cast<int>(floor(rz/bz_end));

        movsd     .L_2il0floatpacket.14(%rip), %xmm0            #414.47
        mulsd     88(%rsp), %xmm0                               #414.47
        call      floor@PLT                                     #414.47
                                # LOE rbp r12 ebx r13d r14d r15d xmm0
..B20.82:                       # Preds ..B20.83

### 
###         double bz_tune, by_tune;
### 
###         if(n_z > 1)

        movsd     80(%rsp), %xmm2                               #418.18
        pxor      %xmm1, %xmm1                                  #416.9
        cvttsd2si %xmm0, %edx                                   #414.47
        comisd    .L_2il0floatpacket.16(%rip), %xmm2            #418.18
        movaps    %xmm1, %xmm0                                  #416.9
        jbe       ..B20.63      # Prob 5%                       #418.18
                                # LOE rbp r12 edx ebx r13d r14d r15d xmm0 xmm1
..B20.38:                       # Preds ..B20.82

###         {
###             for(int bz_ratio = bz_ratio_start; bz_ratio<= bz_ratio_end; ++bz_ratio)

        cmpl      %edx, %r13d                                   #420.59
        jg        ..B20.43      # Prob 10%                      #420.59
                                # LOE rbp r12 edx ebx r13d r14d r15d xmm0 xmm1
..B20.39:                       # Preds ..B20.38

###             {
###                 //now get correct bz_start and bz_end; with perfect multiples of rz
###                 bz_tune = rz/(static_cast<double>(bz_ratio));
###                 by_tune = f(static_cast<double>(bz_tune));

        imull     %r14d, %r15d                                  #424.27
        pxor      %xmm3, %xmm3                                  #424.27
        movsd     .L_2il0floatpacket.15(%rip), %xmm2            #393.20
        movsd     72(%rsp), %xmm5                               #393.20
        movsd     88(%rsp), %xmm6                               #393.20
        cvtsi2sd  %r15d, %xmm3                                  #424.27
                                # LOE rbp r12 edx ebx r13d xmm2 xmm3 xmm5 xmm6
..B20.40:                       # Preds ..B20.41 ..B20.39
        pxor      %xmm0, %xmm0                                  #423.51
