# mark_description "Intel(R) C++ Intel(R) 64 Compiler for applications running on Intel(R) 64, Version 16.0.3.210 Build 20160415";
# mark_description "";
# mark_description "-I/home/hpc/unrz/unrz002h/yask/yaskSite/include -DyaskSite_EXPORTS -isystem /apps/intel/mpi/5.1.3.210/intel6";
# mark_description "4/include -qopenmp -fPIC -std=c++0x -Wall -Wextra -Werror -pedantic -Wunused-variable -save-temps -fsource-a";
# mark_description "sm -w3 -wd981 -wd383 -fPIC -o CMakeFiles/yaskSite.dir/src/yaskSite.cpp.o -c";
	.file "yaskSite.cpp"
	.text
..TXTST0:
# -- Begin  _ZN8yaskSiteC2EP11MPI_ManagerPciiiiS2_b
	.text
# mark_begin;
       .align    16,0x90
	.globl _ZN8yaskSiteC2EP11MPI_ManagerPciiiiS2_b
# --- yaskSite::yaskSite(yaskSite *const, MPI_Manager *, char *, int, int, int, int, char *, bool)
_ZN8yaskSiteC2EP11MPI_ManagerPciiiiS2_b:
# parameter 1: %rdi
# parameter 2: %rsi
# parameter 3: %rdx
# parameter 4: %ecx
# parameter 5: %r8d
# parameter 6: %r9d
# parameter 7: 8 + %rsp
# parameter 8: 16 + %rsp
# parameter 9: 24 + %rsp
..B1.1:                         # Preds ..B1.0

### yaskSite::yaskSite(MPI_Manager* mpi_man_, char* stencil_, int dim_, int fold_z_, int fold_y_, int fold_x_, char* path_, bool likwid):mpi_man(mpi_man_), stencil(stencil_), arch(TARGET_ARCH), yaskDir(YASK_PATH), stencilCode(NULL), localDir(NULL), sysLogFileName(NULL), nthreads(1), threadPerBlock(1), fold_x(fold_x_), fold_y(fold_y_), fold_z(fold_z_), sbx(-1), sby(-1), sbz(-1), bx(-1), by(-1), bz(-1), rt(-1), rx(-1), ry(-1), rz(-1), dt(-1), dx(-1), dy(-1), dz(-1), totalTime(0), radius(1), dim(dim_), buildWithLikwid(likwid), path(path_), stencilReady(false), subBlockUpdated(false), blockUpdated(false), regionUpdated(false), dimUpdated(false), threadUpdated(false), onceRun(false), dl_handle(NULL), dynInit(&YASKinit), dynFinalize(&YASKfinalize), dynStencil(&YASKstencil), dynGetPtr(&YASKgetElPtr), stencilContext(NULL), stencilSettings(NULL)

	.cfi_startproc
	.cfi_personality 0x93,DW.ref.__gxx_personality_v0
..___tag_value__ZN8yaskSiteC2EP11MPI_ManagerPciiiiS2_b.1:
..L2:
                                                          #23.11
        movzbl    24(%rsp), %eax                                #23.11
        movq      16(%rsp), %r10                                #23.11
        movl      8(%rsp), %r11d                                #23.11
        movl      %eax, 24(%rsp)                                #23.11
        movq      %r10, 16(%rsp)                                #23.11
        movl      %r11d, 8(%rsp)                                #23.11
#       yaskSite::yaskSite(yaskSite *, MPI_Manager *, char *, int, int, int, int, char *, bool)
        jmp       _ZN8yaskSiteC1EP11MPI_ManagerPciiiiS2_b@PLT   #23.11
        .align    16,0x90
	.cfi_endproc
                                # LOE
# mark_end;
	.type	_ZN8yaskSiteC2EP11MPI_ManagerPciiiiS2_b,@function
	.size	_ZN8yaskSiteC2EP11MPI_ManagerPciiiiS2_b,.-_ZN8yaskSiteC2EP11MPI_ManagerPciiiiS2_b
	.data
# -- End  _ZN8yaskSiteC2EP11MPI_ManagerPciiiiS2_b
	.text
# -- Begin  _ZN8yaskSiteC1EP11MPI_ManagerPciiiiS2_b
	.text
# mark_begin;
       .align    16,0x90
	.globl _ZN8yaskSiteC1EP11MPI_ManagerPciiiiS2_b
# --- yaskSite::yaskSite(yaskSite *, MPI_Manager *, char *, int, int, int, int, char *, bool)
_ZN8yaskSiteC1EP11MPI_ManagerPciiiiS2_b:
# parameter 1: %rdi
# parameter 2: %rsi
# parameter 3: %rdx
# parameter 4: %ecx
# parameter 5: %r8d
# parameter 6: %r9d
# parameter 7: 96 + %rsp
# parameter 8: 104 + %rsp
# parameter 9: 112 + %rsp
..B2.1:                         # Preds ..B2.0

### {

	.cfi_startproc
	.cfi_personality 0x93,DW.ref.__gxx_personality_v0
	.cfi_lsda 0x1b, _ZN8yaskSiteC1EP11MPI_ManagerPciiiiS2_b$$LSDA
..___tag_value__ZN8yaskSiteC1EP11MPI_ManagerPciiiiS2_b.6:
..L7:
                                                          #24.1
        pushq     %r12                                          #24.1
	.cfi_def_cfa_offset 16
	.cfi_offset 12, -16
        pushq     %r13                                          #24.1
	.cfi_def_cfa_offset 24
	.cfi_offset 13, -24
        pushq     %r14                                          #24.1
	.cfi_def_cfa_offset 32
	.cfi_offset 14, -32
        pushq     %r15                                          #24.1
	.cfi_def_cfa_offset 40
	.cfi_offset 15, -40
        pushq     %rbx                                          #24.1
	.cfi_def_cfa_offset 48
	.cfi_offset 3, -48
        pushq     %rbp                                          #24.1
	.cfi_def_cfa_offset 56
	.cfi_offset 6, -56
        subq      $40, %rsp                                     #24.1
	.cfi_def_cfa_offset 96
        movq      %rdi, %rbp                                    #24.1
        movl      %r9d, %r10d                                   #24.1
        lea       .L_2__STRING.37(%rip), %r11                   #23.177
        movq      YASKgetElPtr@GOTPCREL(%rip), %r15             #23.11
        lea       .L_2__STRING.38(%rip), %rax                   #23.199
        movq      104(%rsp), %r9                                #24.1
        movq      %rsi, (%rbp)                                  #23.142
        lea       .L_2__cnst_pck.9(%rip), %rsi                  #23.11
        movq      %r11, 16(%rbp)                                #23.177
        lea       48+.L_2__cnst_pck.9(%rip), %r11               #23.11
        movl      %r10d, 68(%rbp)                               #23.324
        lea       32+.L_2__cnst_pck.9(%rip), %r10               #23.11
        movl      %r8d, 72(%rbp)                                #23.341
        lea       16+.L_2__cnst_pck.9(%rip), %r8                #23.11
        movq      %r15, 200(%rbp)                               #23.11
        lea       224(%rbp), %r15                               #23.11
        movq      %r9, -72(%r15)                                #23.532
        movq      %r15, %rdi                                    #23.11
        movl      96(%rsp), %r12d                               #24.1
        movzbl    112(%rsp), %ebx                               #24.1
        movdqa    (%rsi), %xmm0                                 #23.11
        movdqa    (%r8), %xmm1                                  #23.11
        movdqa    (%r10), %xmm2                                 #23.11
        movdqa    (%r11), %xmm3                                 #23.11
        movq      YASKinit@GOTPCREL(%rip), %r9                  #23.11
        movq      YASKfinalize@GOTPCREL(%rip), %r13             #23.11
        movq      YASKstencil@GOTPCREL(%rip), %r14              #23.11
        movq      %rdx, 8(%rbp)                                 #23.161
        movl      $1, %edx                                      #23.11
        movq      %rax, 24(%rbp)                                #23.199
        xorl      %eax, %eax                                    #23.11
        movl      %ecx, -84(%r15)                               #23.495
        xorl      %ecx, %ecx                                    #23.11
        movq      %rax, 32(%rbp)                                #23.11
        movq      %rax, 40(%rbp)                                #23.11
        movq      %rax, 48(%rbp)                                #23.11
        movl      %edx, 56(%rbp)                                #23.11
        movl      %edx, 60(%rbp)                                #23.11
        movl      %r12d, 64(%rbp)                               #23.307
        movdqu    %xmm0, 76(%rbp)                               #23.11
        movdqu    %xmm1, 92(%rbp)                               #23.11
        movdqu    %xmm2, 108(%rbp)                              #23.11
        movdqu    %xmm3, 124(%rbp)                              #23.11
        movb      %bl, -80(%r15)                                #23.518
        movb      %cl, -64(%r15)                                #23.11
        movb      %cl, -63(%r15)                                #23.11
        movb      %cl, -62(%r15)                                #23.11
        movb      %cl, -61(%r15)                                #23.11
        movb      %cl, -60(%r15)                                #23.11
        movb      %cl, -59(%r15)                                #23.11
        movb      %cl, -58(%r15)                                #23.11
        movq      %rax, -56(%r15)                               #23.11
        movq      %r9, -48(%r15)                                #23.11
        movq      %r13, -40(%r15)                               #23.11
        movq      %r14, -32(%r15)                               #23.11
        movq      %rax, -16(%r15)                               #23.11
        movq      %rax, -8(%r15)                                #23.11
..___tag_value__ZN8yaskSiteC1EP11MPI_ManagerPciiiiS2_b.21:
#       std::vector<const char *, std::allocator<const char *>>::vector(std::vector<const char *, std::allocator<const char *>> *)
        call      _ZNSt6vectorIPKcSaIS1_EEC1Ev@PLT              #23.11
..___tag_value__ZN8yaskSiteC1EP11MPI_ManagerPciiiiS2_b.22:
                                # LOE rbp r15 ebx
..B2.2:                         # Preds ..B2.1
        lea       248(%rbp), %r14                               #23.11
        movq      %r14, %rdi                                    #23.11
..___tag_value__ZN8yaskSiteC1EP11MPI_ManagerPciiiiS2_b.23:
#       std::vector<std::vector<int, std::allocator<int>>, std::allocator<std::vector<int, std::allocator<int>>>>::vector(std::vector<std::vector<int, std::allocator<int>>, std::allocator<std::vector<int, std::allocator<int>>>> *)
        call      _ZNSt6vectorIS_IiSaIiEESaIS1_EEC1Ev@PLT       #23.11
..___tag_value__ZN8yaskSiteC1EP11MPI_ManagerPciiiiS2_b.24:
                                # LOE rbp r14 r15 ebx
..B2.3:                         # Preds ..B2.2

###     //get current absolute path
###     char* currPath = get_current_dir_name();

..___tag_value__ZN8yaskSiteC1EP11MPI_ManagerPciiiiS2_b.25:
#       get_current_dir_name()
        call      get_current_dir_name@PLT                      #26.22
..___tag_value__ZN8yaskSiteC1EP11MPI_ManagerPciiiiS2_b.26:
                                # LOE rax rbp r14 r15 ebx
..B2.30:                        # Preds ..B2.3
        movq      %rax, %r12                                    #26.22
                                # LOE rbp r12 r14 r15 ebx
..B2.4:                         # Preds ..B2.30

### 
###     //remove space in path and replace by underScore
###     char* path_wo_space = removeSpaces(path);

        movq      152(%rbp), %rdi                               #29.27
..___tag_value__ZN8yaskSiteC1EP11MPI_ManagerPciiiiS2_b.27:
#       removeSpaces(char *)
        call      _Z12removeSpacesPc@PLT                        #29.27
..___tag_value__ZN8yaskSiteC1EP11MPI_ManagerPciiiiS2_b.28:
                                # LOE rax rbp r12 r14 r15 ebx
..B2.5:                         # Preds ..B2.4
        movq      %rax, %r13                                    #29.27
                                # LOE rbp r12 r13 r14 r15 ebx
..B2.6:                         # Preds ..B2.5

###     STRINGIFY(localDir, LOCAL_DIR_NAME);

        movq      %r13, %rdi                                    #30.5
        lea       .L_2__STRING.8(%rip), %rsi                    #30.5
..L29:                                                          #30.5
        movb      (%rdi), %dl                                   #30.5
        cmpb      (%rsi), %dl                                   #30.5
        jne       ..L31         # Prob 50%                      #30.5
        testb     %dl, %dl                                      #30.5
        je        ..L30         # Prob 50%                      #30.5
        movb      1(%rdi), %dl                                  #30.5
        cmpb      1(%rsi), %dl                                  #30.5
        jne       ..L31         # Prob 50%                      #30.5
        addq      $2, %rdi                                      #30.5
        addq      $2, %rsi                                      #30.5
        testb     %dl, %dl                                      #30.5
        jne       ..L29         # Prob 50%                      #30.5
..L30:                                                          #
        xorl      %eax, %eax                                    #30.5
        jmp       ..L32         # Prob 100%                     #30.5
..L31:                                                          #
        sbbl      %eax, %eax                                    #30.5
        orl       $1, %eax                                      #30.5
..L32:                                                          #
                                # LOE rbp r12 r13 r14 r15 eax ebx
..B2.32:                        # Preds ..B2.6
        testl     %eax, %eax                                    #30.5
        lea       .L_2__STRING.7(%rip), %r10                    #30.5
        lea       .L_2__STRING.41(%rip), %r11                   #30.5
        lea       40(%rbp), %rdi                                #30.5
        cmovne    %r13, %r10                                    #30.5
        testl     %ebx, %ebx                                    #30.5
        lea       .L_2__STRING.40(%rip), %rbx                   #30.5
        lea       .L_2__STRING.39(%rip), %rsi                   #30.5
        cmovne    %rbx, %r11                                    #30.5
        movq      %r12, %rdx                                    #30.5
        pushq     %r11                                          #30.5
	.cfi_def_cfa_offset 104
	.cfi_escape 0x2e, 0x08
        pushq     %r10                                          #30.5
	.cfi_def_cfa_offset 112
	.cfi_escape 0x2e, 0x10
        movl      64(%rbp), %eax                                #30.5
        pushq     %rax                                          #30.5
	.cfi_def_cfa_offset 120
	.cfi_escape 0x2e, 0x18
        xorl      %eax, %eax                                    #30.5
        movl      68(%rbp), %ecx                                #30.5
        movq      16(%rbp), %r8                                 #30.5
        movl      72(%rbp), %r9d                                #30.5
        pushq     %rcx                                          #30.5
	.cfi_def_cfa_offset 128
	.cfi_escape 0x2e, 0x20
        movq      8(%rbp), %rcx                                 #30.5
..___tag_value__ZN8yaskSiteC1EP11MPI_ManagerPciiiiS2_b.41:
#       asprintf(char **, const char *, ...)
        call      asprintf@PLT                                  #30.5
..___tag_value__ZN8yaskSiteC1EP11MPI_ManagerPciiiiS2_b.42:
                                # LOE rbp r13 r14 r15
..B2.31:                        # Preds ..B2.32
        addq      $32, %rsp                                     #30.5
	.cfi_def_cfa_offset 96
	.cfi_escape 0x2e, 0x00
                                # LOE rbp r13 r14 r15
..B2.7:                         # Preds ..B2.31

###     delete[] path_wo_space;

        testq     %r13, %r13                                    #31.14
        je        ..B2.9        # Prob 32%                      #31.14
                                # LOE rbp r13 r14 r15
..B2.8:                         # Preds ..B2.7
        movq      %r13, %rdi                                    #31.5
#       operator delete[](void *)
        call      _ZdaPv@PLT                                    #31.5
                                # LOE rbp r14 r15
..B2.9:                         # Preds ..B2.7 ..B2.8

### 
###     SYSTEM("mkdir -p %s/bin", localDir);

        lea       .L_2__STRING.42(%rip), %rsi                   #33.5
        lea       8(%rsp), %rdi                                 #33.5
        xorl      %eax, %eax                                    #33.5
        movq      40(%rbp), %rdx                                #33.5
..___tag_value__ZN8yaskSiteC1EP11MPI_ManagerPciiiiS2_b.45:
#       asprintf(char **, const char *, ...)
        call      asprintf@PLT                                  #33.5
..___tag_value__ZN8yaskSiteC1EP11MPI_ManagerPciiiiS2_b.46:
                                # LOE rbp r14 r15
..B2.10:                        # Preds ..B2.9
        lea       .L_2__STRING.18(%rip), %rsi                   #33.5
        lea       16(%rsp), %rdi                                #33.5
        lea       .L_2__STRING.17(%rip), %rcx                   #33.5
        xorl      %eax, %eax                                    #33.5
        movq      -8(%rdi), %rdx                                #33.5
..___tag_value__ZN8yaskSiteC1EP11MPI_ManagerPciiiiS2_b.47:
#       asprintf(char **, const char *, ...)
        call      asprintf@PLT                                  #33.5
..___tag_value__ZN8yaskSiteC1EP11MPI_ManagerPciiiiS2_b.48:
                                # LOE rbp r14 r15
..B2.11:                        # Preds ..B2.10
        movq      %rbp, %rdi                                    #33.5
        movq      16(%rsp), %rsi                                #33.5
..___tag_value__ZN8yaskSiteC1EP11MPI_ManagerPciiiiS2_b.49:
#       yaskSite::systemCall(yaskSite *, char *)
        call      _ZN8yaskSite10systemCallEPc@PLT               #33.5
..___tag_value__ZN8yaskSiteC1EP11MPI_ManagerPciiiiS2_b.50:
                                # LOE rbp r14 r15
..B2.12:                        # Preds ..B2.11
        movq      8(%rsp), %rdi                                 #33.5
#       free(void *)
        call      free@PLT                                      #33.5
                                # LOE rbp r14 r15
..B2.13:                        # Preds ..B2.12
        movq      16(%rsp), %rdi                                #33.5
#       free(void *)
        call      free@PLT                                      #33.5
                                # LOE rbp r14 r15
..B2.14:                        # Preds ..B2.13

### 
###     STRINGIFY(sysLogFileName, "%s/sysCallLog.log", localDir);

        lea       .L_2__STRING.43(%rip), %rsi                   #35.5
        lea       48(%rbp), %rdi                                #35.5
        xorl      %eax, %eax                                    #35.5
        movq      40(%rbp), %rdx                                #35.5
..___tag_value__ZN8yaskSiteC1EP11MPI_ManagerPciiiiS2_b.51:
#       asprintf(char **, const char *, ...)
        call      asprintf@PLT                                  #35.5
..___tag_value__ZN8yaskSiteC1EP11MPI_ManagerPciiiiS2_b.52:
                                # LOE rbp r14 r15
..B2.15:                        # Preds ..B2.14

### 
###     //copy yask.sh; this will be deprecated
###     SYSTEM("cp %s/bin/yask.sh %s/bin/.", yaskDir, localDir);

        lea       .L_2__STRING.44(%rip), %rsi                   #38.5
        lea       24(%rsp), %rdi                                #38.5
        xorl      %eax, %eax                                    #38.5
        movq      24(%rbp), %rdx                                #38.5
        movq      40(%rbp), %rcx                                #38.5
..___tag_value__ZN8yaskSiteC1EP11MPI_ManagerPciiiiS2_b.53:
#       asprintf(char **, const char *, ...)
        call      asprintf@PLT                                  #38.5
..___tag_value__ZN8yaskSiteC1EP11MPI_ManagerPciiiiS2_b.54:
                                # LOE rbp r14 r15
..B2.16:                        # Preds ..B2.15
        lea       .L_2__STRING.18(%rip), %rsi                   #38.5
        lea       32(%rsp), %rdi                                #38.5
        lea       .L_2__STRING.17(%rip), %rcx                   #38.5
        xorl      %eax, %eax                                    #38.5
        movq      -8(%rdi), %rdx                                #38.5
..___tag_value__ZN8yaskSiteC1EP11MPI_ManagerPciiiiS2_b.55:
#       asprintf(char **, const char *, ...)
        call      asprintf@PLT                                  #38.5
..___tag_value__ZN8yaskSiteC1EP11MPI_ManagerPciiiiS2_b.56:
                                # LOE rbp r14 r15
..B2.17:                        # Preds ..B2.16
        movq      %rbp, %rdi                                    #38.5
        movq      32(%rsp), %rsi                                #38.5
..___tag_value__ZN8yaskSiteC1EP11MPI_ManagerPciiiiS2_b.57:
#       yaskSite::systemCall(yaskSite *, char *)
        call      _ZN8yaskSite10systemCallEPc@PLT               #38.5
..___tag_value__ZN8yaskSiteC1EP11MPI_ManagerPciiiiS2_b.58:
                                # LOE rbp r14 r15
..B2.18:                        # Preds ..B2.17
        movq      24(%rsp), %rdi                                #38.5
#       free(void *)
        call      free@PLT                                      #38.5
                                # LOE rbp
..B2.19:                        # Preds ..B2.18
        movq      32(%rsp), %rdi                                #38.5
#       free(void *)
        call      free@PLT                                      #38.5
                                # LOE rbp
..B2.20:                        # Preds ..B2.19

### 
###     //stencil code
###     STRINGIFY(stencilCode,"stencil_%s_%s_%d_%d_%d_%s", stencil, arch, fold_x, fold_y, fold_z, (strcmp(path,"")==0)?"default":path);

        movq      152(%rbp), %rcx                               #41.5
        movq      %rcx, %rdi                                    #41.5
        lea       .L_2__STRING.8(%rip), %rsi                    #41.5
..L59:                                                          #41.5
        movb      (%rdi), %dl                                   #41.5
        cmpb      (%rsi), %dl                                   #41.5
        jne       ..L61         # Prob 50%                      #41.5
        testb     %dl, %dl                                      #41.5
        je        ..L60         # Prob 50%                      #41.5
        movb      1(%rdi), %dl                                  #41.5
        cmpb      1(%rsi), %dl                                  #41.5
        jne       ..L61         # Prob 50%                      #41.5
        addq      $2, %rdi                                      #41.5
        addq      $2, %rsi                                      #41.5
        testb     %dl, %dl                                      #41.5
        jne       ..L59         # Prob 50%                      #41.5
..L60:                                                          #
        xorl      %eax, %eax                                    #41.5
        jmp       ..L62         # Prob 100%                     #41.5
..L61:                                                          #
        sbbl      %eax, %eax                                    #41.5
        orl       $1, %eax                                      #41.5
..L62:                                                          #
                                # LOE rcx rbp eax
..B2.34:                        # Preds ..B2.20
        testl     %eax, %eax                                    #41.5
        lea       .L_2__STRING.7(%rip), %rbx                    #41.5
        lea       .L_2__STRING.45(%rip), %rsi                   #41.5
        lea       32(%rbp), %rdi                                #41.5
        cmove     %rbx, %rcx                                    #41.5
        xorl      %eax, %eax                                    #41.5
        pushq     %rcx                                          #41.5
	.cfi_def_cfa_offset 104
	.cfi_escape 0x2e, 0x08
        movl      72(%rbp), %r9d                                #41.5
        movq      8(%rbp), %rdx                                 #41.5
        movq      16(%rbp), %rcx                                #41.5
        movl      64(%rbp), %r8d                                #41.5
        pushq     %r9                                           #41.5
	.cfi_def_cfa_offset 112
	.cfi_escape 0x2e, 0x10
        movl      68(%rbp), %r9d                                #41.5
..___tag_value__ZN8yaskSiteC1EP11MPI_ManagerPciiiiS2_b.67:
#       asprintf(char **, const char *, ...)
        call      asprintf@PLT                                  #41.5
..___tag_value__ZN8yaskSiteC1EP11MPI_ManagerPciiiiS2_b.68:
                                # LOE
..B2.21:                        # Preds ..B2.34

### 
### }

        addq      $56, %rsp                                     #43.1
	.cfi_def_cfa_offset 56
	.cfi_escape 0x2e, 0x00
	.cfi_restore 6
        popq      %rbp                                          #43.1
	.cfi_def_cfa_offset 48
	.cfi_restore 3
        popq      %rbx                                          #43.1
	.cfi_def_cfa_offset 40
	.cfi_restore 15
        popq      %r15                                          #43.1
	.cfi_def_cfa_offset 32
	.cfi_restore 14
        popq      %r14                                          #43.1
	.cfi_def_cfa_offset 24
	.cfi_restore 13
        popq      %r13                                          #43.1
	.cfi_def_cfa_offset 16
	.cfi_restore 12
        popq      %r12                                          #43.1
	.cfi_def_cfa_offset 8
        ret                                                     #43.1
	.cfi_def_cfa_offset 96
	.cfi_offset 3, -48
	.cfi_offset 6, -56
	.cfi_offset 12, -16
	.cfi_offset 13, -24
	.cfi_offset 14, -32
	.cfi_offset 15, -40
                                # LOE
..___tag_value__ZN8yaskSiteC1EP11MPI_ManagerPciiiiS2_b.5:
..B2.22:                        # Preds ..B2.17 ..B2.11 ..B2.4
        movq      %rax, (%rsp)                                  #23.11
                                # LOE r14 r15
..B2.23:                        # Preds ..B2.22
        movq      %r14, %rdi                                    #23.11
#       std::vector<std::vector<int, std::allocator<int>>, std::allocator<std::vector<int, std::allocator<int>>>>::~vector(std::vector<std::vector<int, std::allocator<int>>, std::allocator<std::vector<int, std::allocator<int>>>> *)
        call      _ZNSt6vectorIS_IiSaIiEESaIS1_EED1Ev@PLT       #23.11
                                # LOE r15
..B2.25:                        # Preds ..B2.23 ..B2.27
        movq      %r15, %rdi                                    #23.11
#       std::vector<const char *, std::allocator<const char *>>::~vector(std::vector<const char *, std::allocator<const char *>> *)
        call      _ZNSt6vectorIPKcSaIS1_EED1Ev@PLT              #23.11
                                # LOE
..B2.26:                        # Preds ..B2.25
        movq      (%rsp), %rdi                                  #23.11
..___tag_value__ZN8yaskSiteC1EP11MPI_ManagerPciiiiS2_b.90:
        call      _Unwind_Resume@PLT                            #23.11
..___tag_value__ZN8yaskSiteC1EP11MPI_ManagerPciiiiS2_b.91:
                                # LOE
..___tag_value__ZN8yaskSiteC1EP11MPI_ManagerPciiiiS2_b.4:
..B2.27:                        # Preds ..B2.2                  # Infreq
        movq      %rax, (%rsp)                                  #23.11
        jmp       ..B2.25       # Prob 100%                     #23.11
        .align    16,0x90
	.cfi_endproc
                                # LOE r15
# mark_end;
	.type	_ZN8yaskSiteC1EP11MPI_ManagerPciiiiS2_b,@function
	.size	_ZN8yaskSiteC1EP11MPI_ManagerPciiiiS2_b,.-_ZN8yaskSiteC1EP11MPI_ManagerPciiiiS2_b
	.section .gcc_except_table, "a"
	.align 4
_ZN8yaskSiteC1EP11MPI_ManagerPciiiiS2_b$$LSDA:
	.byte	255
	.byte	155
	.uleb128	..___tag_value__ZN8yaskSiteC1EP11MPI_ManagerPciiiiS2_b.96 - ..___tag_value__ZN8yaskSiteC1EP11MPI_ManagerPciiiiS2_b.95
..___tag_value__ZN8yaskSiteC1EP11MPI_ManagerPciiiiS2_b.95:
	.byte	1
	.uleb128	..___tag_value__ZN8yaskSiteC1EP11MPI_ManagerPciiiiS2_b.94 - ..___tag_value__ZN8yaskSiteC1EP11MPI_ManagerPciiiiS2_b.93
..___tag_value__ZN8yaskSiteC1EP11MPI_ManagerPciiiiS2_b.93:
	.uleb128	..___tag_value__ZN8yaskSiteC1EP11MPI_ManagerPciiiiS2_b.21 - ..___tag_value__ZN8yaskSiteC1EP11MPI_ManagerPciiiiS2_b.6
	.uleb128	..___tag_value__ZN8yaskSiteC1EP11MPI_ManagerPciiiiS2_b.22 - ..___tag_value__ZN8yaskSiteC1EP11MPI_ManagerPciiiiS2_b.21
	.byte	0
	.byte	0
	.uleb128	..___tag_value__ZN8yaskSiteC1EP11MPI_ManagerPciiiiS2_b.23 - ..___tag_value__ZN8yaskSiteC1EP11MPI_ManagerPciiiiS2_b.6
	.uleb128	..___tag_value__ZN8yaskSiteC1EP11MPI_ManagerPciiiiS2_b.24 - ..___tag_value__ZN8yaskSiteC1EP11MPI_ManagerPciiiiS2_b.23
	.uleb128	..___tag_value__ZN8yaskSiteC1EP11MPI_ManagerPciiiiS2_b.4 - ..___tag_value__ZN8yaskSiteC1EP11MPI_ManagerPciiiiS2_b.6
	.byte	0
	.uleb128	..___tag_value__ZN8yaskSiteC1EP11MPI_ManagerPciiiiS2_b.25 - ..___tag_value__ZN8yaskSiteC1EP11MPI_ManagerPciiiiS2_b.6
	.uleb128	..___tag_value__ZN8yaskSiteC1EP11MPI_ManagerPciiiiS2_b.68 - ..___tag_value__ZN8yaskSiteC1EP11MPI_ManagerPciiiiS2_b.25
	.uleb128	..___tag_value__ZN8yaskSiteC1EP11MPI_ManagerPciiiiS2_b.5 - ..___tag_value__ZN8yaskSiteC1EP11MPI_ManagerPciiiiS2_b.6
	.byte	0
	.uleb128	..___tag_value__ZN8yaskSiteC1EP11MPI_ManagerPciiiiS2_b.90 - ..___tag_value__ZN8yaskSiteC1EP11MPI_ManagerPciiiiS2_b.6
	.uleb128	..___tag_value__ZN8yaskSiteC1EP11MPI_ManagerPciiiiS2_b.91 - ..___tag_value__ZN8yaskSiteC1EP11MPI_ManagerPciiiiS2_b.90
	.byte	0
	.byte	0
..___tag_value__ZN8yaskSiteC1EP11MPI_ManagerPciiiiS2_b.94:
	.long	0
..___tag_value__ZN8yaskSiteC1EP11MPI_ManagerPciiiiS2_b.96:
	.data
# -- End  _ZN8yaskSiteC1EP11MPI_ManagerPciiiiS2_b
	.section .text._ZNSt6vectorIPKcSaIS1_EEC1Ev, "xaG",@progbits,_ZNSt6vectorIPKcSaIS1_EEC1Ev,comdat
..TXTST1:
# -- Begin  _ZNSt6vectorIPKcSaIS1_EEC1Ev
	.section .text._ZNSt6vectorIPKcSaIS1_EEC1Ev, "xaG",@progbits,_ZNSt6vectorIPKcSaIS1_EEC1Ev,comdat
# mark_begin;
       .align    16,0x90
	.weak _ZNSt6vectorIPKcSaIS1_EEC1Ev
# --- std::vector<const char *, std::allocator<const char *>>::vector(std::vector<const char *, std::allocator<const char *>> *)
_ZNSt6vectorIPKcSaIS1_EEC1Ev:
# parameter 1: %rdi
..B3.1:                         # Preds ..B3.0

###       : _Base() { }

	.cfi_startproc
	.cfi_personality 0x93,DW.ref.__gxx_personality_v0
..___tag_value__ZNSt6vectorIPKcSaIS1_EEC1Ev.97:
..L98:
                                                         #257.17
        xorl      %eax, %eax                                    #253.7
        movq      %rax, (%rdi)                                  #253.7
        movq      %rax, 8(%rdi)                                 #253.7
        movq      %rax, 16(%rdi)                                #253.7
        ret                                                     #257.19
        .align    16,0x90
	.cfi_endproc
                                # LOE
# mark_end;
	.type	_ZNSt6vectorIPKcSaIS1_EEC1Ev,@function
	.size	_ZNSt6vectorIPKcSaIS1_EEC1Ev,.-_ZNSt6vectorIPKcSaIS1_EEC1Ev
	.data
# -- End  _ZNSt6vectorIPKcSaIS1_EEC1Ev
	.section .text._ZNSt6vectorIS_IiSaIiEESaIS1_EEC1Ev, "xaG",@progbits,_ZNSt6vectorIS_IiSaIiEESaIS1_EEC1Ev,comdat
..TXTST2:
# -- Begin  _ZNSt6vectorIS_IiSaIiEESaIS1_EEC1Ev
	.section .text._ZNSt6vectorIS_IiSaIiEESaIS1_EEC1Ev, "xaG",@progbits,_ZNSt6vectorIS_IiSaIiEESaIS1_EEC1Ev,comdat
# mark_begin;
       .align    16,0x90
	.weak _ZNSt6vectorIS_IiSaIiEESaIS1_EEC1Ev
# --- std::vector<std::vector<int, std::allocator<int>>, std::allocator<std::vector<int, std::allocator<int>>>>::vector(std::vector<std::vector<int, std::allocator<int>>, std::allocator<std::vector<int, std::allocator<int>>>> *)
_ZNSt6vectorIS_IiSaIiEESaIS1_EEC1Ev:
# parameter 1: %rdi
..B4.1:                         # Preds ..B4.0

###       : _Base() { }

	.cfi_startproc
	.cfi_personality 0x93,DW.ref.__gxx_personality_v0
..___tag_value__ZNSt6vectorIS_IiSaIiEESaIS1_EEC1Ev.100:
..L101:
                                                        #257.17
        xorl      %eax, %eax                                    #253.7
        movq      %rax, (%rdi)                                  #253.7
        movq      %rax, 8(%rdi)                                 #253.7
        movq      %rax, 16(%rdi)                                #253.7
        ret                                                     #257.19
        .align    16,0x90
	.cfi_endproc
                                # LOE
# mark_end;
	.type	_ZNSt6vectorIS_IiSaIiEESaIS1_EEC1Ev,@function
	.size	_ZNSt6vectorIS_IiSaIiEESaIS1_EEC1Ev,.-_ZNSt6vectorIS_IiSaIiEESaIS1_EEC1Ev
	.data
# -- End  _ZNSt6vectorIS_IiSaIiEESaIS1_EEC1Ev
	.section .text._ZNSt6vectorIPKcSaIS1_EED1Ev, "xaG",@progbits,_ZNSt6vectorIPKcSaIS1_EED1Ev,comdat
..TXTST3:
# -- Begin  _ZNSt6vectorIPKcSaIS1_EED1Ev
	.section .text._ZNSt6vectorIPKcSaIS1_EED1Ev, "xaG",@progbits,_ZNSt6vectorIPKcSaIS1_EED1Ev,comdat
# mark_begin;
       .align    16,0x90
	.weak _ZNSt6vectorIPKcSaIS1_EED1Ev
# --- std::vector<const char *, std::allocator<const char *>>::~vector(std::vector<const char *, std::allocator<const char *>> *)
_ZNSt6vectorIPKcSaIS1_EED1Ev:
# parameter 1: %rdi
..B5.1:                         # Preds ..B5.0

###       { std::_Destroy(this->_M_impl._M_start, this->_M_impl._M_finish,

	.cfi_startproc
	.cfi_personality 0x93,DW.ref.__gxx_personality_v0
	.cfi_lsda 0x1b, _ZNSt6vectorIPKcSaIS1_EED1Ev$$LSDA
..___tag_value__ZNSt6vectorIPKcSaIS1_EED1Ev.103:
..L104:
                                                        #424.7

### 		      _M_get_Tp_allocator()); }

        movq      (%rdi), %rdi                                  #425.33
        testq     %rdi, %rdi                                    #425.33
        je        ..B5.3        # Prob 72%                      #425.33
                                # LOE rbx rbp rdi r12 r13 r14 r15
..B5.2:                         # Preds ..B5.1
#       operator delete(void *)
        jmp       _ZdlPv@PLT                                    #425.33
                                # LOE
..B5.3:                         # Preds ..B5.1
        ret                                                     #425.33
        .align    16,0x90
	.cfi_endproc
                                # LOE
# mark_end;
	.type	_ZNSt6vectorIPKcSaIS1_EED1Ev,@function
	.size	_ZNSt6vectorIPKcSaIS1_EED1Ev,.-_ZNSt6vectorIPKcSaIS1_EED1Ev
	.section .gcc_except_table, "a"
	.align 4
_ZNSt6vectorIPKcSaIS1_EED1Ev$$LSDA:
	.byte	255
	.byte	155
	.uleb128	..___tag_value__ZNSt6vectorIPKcSaIS1_EED1Ev.109 - ..___tag_value__ZNSt6vectorIPKcSaIS1_EED1Ev.108
..___tag_value__ZNSt6vectorIPKcSaIS1_EED1Ev.108:
	.byte	1
	.uleb128	..___tag_value__ZNSt6vectorIPKcSaIS1_EED1Ev.107 - ..___tag_value__ZNSt6vectorIPKcSaIS1_EED1Ev.106
..___tag_value__ZNSt6vectorIPKcSaIS1_EED1Ev.106:
..___tag_value__ZNSt6vectorIPKcSaIS1_EED1Ev.107:
	.byte	127
	.byte	0
	.byte	0
	.byte	125
	.long	0
..___tag_value__ZNSt6vectorIPKcSaIS1_EED1Ev.109:
	.byte	0
	.data
# -- End  _ZNSt6vectorIPKcSaIS1_EED1Ev
	.section .text._ZNSt12_Vector_baseIPKcSaIS1_EED2Ev, "xaG",@progbits,_ZNSt12_Vector_baseIPKcSaIS1_EED2Ev,comdat
..TXTST4:
# -- Begin  _ZNSt12_Vector_baseIPKcSaIS1_EED2Ev
	.section .text._ZNSt12_Vector_baseIPKcSaIS1_EED2Ev, "xaG",@progbits,_ZNSt12_Vector_baseIPKcSaIS1_EED2Ev,comdat
# mark_begin;
       .align    16,0x90
	.weak _ZNSt12_Vector_baseIPKcSaIS1_EED2Ev
# --- std::_Vector_base<const char *, std::allocator<const char *>>::~_Vector_base(std::_Vector_base<const char *, std::allocator<const char *>> *const)
_ZNSt12_Vector_baseIPKcSaIS1_EED2Ev:
# parameter 1: %rdi
..B6.1:                         # Preds ..B6.0

###       ~_Vector_base() _GLIBCXX_NOEXCEPT

	.cfi_startproc
	.cfi_personality 0x93,DW.ref.__gxx_personality_v0
..___tag_value__ZNSt12_Vector_baseIPKcSaIS1_EED2Ev.110:
..L111:
                                                        #159.7
        movq      (%rdi), %rdi                                  #159.7
        testq     %rdi, %rdi                                    #159.7
        je        ..B6.3        # Prob 72%                      #159.7
                                # LOE rbx rbp rdi r12 r13 r14 r15
..B6.2:                         # Preds ..B6.1
#       operator delete(void *)
        jmp       _ZdlPv@PLT                                    #159.7
                                # LOE
..B6.3:                         # Preds ..B6.1
        ret                                                     #159.7
        .align    16,0x90
	.cfi_endproc
                                # LOE
# mark_end;
	.type	_ZNSt12_Vector_baseIPKcSaIS1_EED2Ev,@function
	.size	_ZNSt12_Vector_baseIPKcSaIS1_EED2Ev,.-_ZNSt12_Vector_baseIPKcSaIS1_EED2Ev
	.data
# -- End  _ZNSt12_Vector_baseIPKcSaIS1_EED2Ev
	.section .text._ZNSt6vectorIS_IiSaIiEESaIS1_EED1Ev, "xaG",@progbits,_ZNSt6vectorIS_IiSaIiEESaIS1_EED1Ev,comdat
..TXTST5:
# -- Begin  _ZNSt6vectorIS_IiSaIiEESaIS1_EED1Ev
	.section .text._ZNSt6vectorIS_IiSaIiEESaIS1_EED1Ev, "xaG",@progbits,_ZNSt6vectorIS_IiSaIiEESaIS1_EED1Ev,comdat
# mark_begin;
       .align    16,0x90
	.weak _ZNSt6vectorIS_IiSaIiEESaIS1_EED1Ev
# --- std::vector<std::vector<int, std::allocator<int>>, std::allocator<std::vector<int, std::allocator<int>>>>::~vector(std::vector<std::vector<int, std::allocator<int>>, std::allocator<std::vector<int, std::allocator<int>>>> *)
_ZNSt6vectorIS_IiSaIiEESaIS1_EED1Ev:
# parameter 1: %rdi
..B7.1:                         # Preds ..B7.0

###       { std::_Destroy(this->_M_impl._M_start, this->_M_impl._M_finish,

	.cfi_startproc
	.cfi_personality 0x93,DW.ref.__gxx_personality_v0
	.cfi_lsda 0x1b, _ZNSt6vectorIS_IiSaIiEESaIS1_EED1Ev$$LSDA
..___tag_value__ZNSt6vectorIS_IiSaIiEESaIS1_EED1Ev.113:
..L114:
                                                        #424.7
        subq      $24, %rsp                                     #424.7
	.cfi_def_cfa_offset 32
        movq      %rdi, %rdx                                    #424.7
        movq      (%rdx), %rdi                                  #424.23
        movq      8(%rdx), %rax                                 #424.47
        cmpq      %rax, %rdi                                    #424.9
        je        ..B7.7        # Prob 1%                       #424.9
                                # LOE rax rdx rbx rbp rdi r12 r13 r14 r15
..B7.2:                         # Preds ..B7.1
        movq      %r15, (%rsp)                                  #
	.cfi_offset 15, -32
        movq      %rdx, %r15                                    #
        movq      %rbx, 8(%rsp)                                 #
	.cfi_offset 3, -24
        movq      %rax, %rbx                                    #
        movq      %rbp, 16(%rsp)                                #
	.cfi_offset 6, -16
        movq      %rdi, %rbp                                    #
                                # LOE rbx rbp r12 r13 r14 r15
..B7.3:                         # Preds ..B7.5 ..B7.2
        movq      (%rbp), %rdi                                  #424.9
        testq     %rdi, %rdi                                    #424.9
        je        ..B7.5        # Prob 72%                      #424.9
                                # LOE rbx rbp rdi r12 r13 r14 r15
..B7.4:                         # Preds ..B7.3
#       operator delete(void *)
        call      _ZdlPv@PLT                                    #424.9
                                # LOE rbx rbp r12 r13 r14 r15
..B7.5:                         # Preds ..B7.4 ..B7.3
        addq      $24, %rbp                                     #424.9
        cmpq      %rbx, %rbp                                    #424.9
        jne       ..B7.3        # Prob 82%                      #424.9
                                # LOE rbx rbp r12 r13 r14 r15
..B7.6:                         # Preds ..B7.5
        movq      %r15, %rdx                                    #
        movq      (%rsp), %r15                                  #
	.cfi_restore 15
        movq      8(%rsp), %rbx                                 #
	.cfi_restore 3
        movq      16(%rsp), %rbp                                #
	.cfi_restore 6

### 		      _M_get_Tp_allocator()); }

        movq      (%rdx), %rdi                                  #425.33
                                # LOE rbx rbp rdi r12 r13 r14 r15
..B7.7:                         # Preds ..B7.6 ..B7.1
        testq     %rdi, %rdi                                    #425.33
        je        ..B7.9        # Prob 72%                      #425.33
                                # LOE rbx rbp rdi r12 r13 r14 r15
..B7.8:                         # Preds ..B7.7
        addq      $24, %rsp                                     #425.33
	.cfi_def_cfa_offset 8
#       operator delete(void *)
        jmp       _ZdlPv@PLT                                    #425.33
	.cfi_def_cfa_offset 32
                                # LOE
..B7.9:                         # Preds ..B7.7
        addq      $24, %rsp                                     #425.33
	.cfi_def_cfa_offset 8
        ret                                                     #425.33
        .align    16,0x90
	.cfi_endproc
                                # LOE
# mark_end;
	.type	_ZNSt6vectorIS_IiSaIiEESaIS1_EED1Ev,@function
	.size	_ZNSt6vectorIS_IiSaIiEESaIS1_EED1Ev,.-_ZNSt6vectorIS_IiSaIiEESaIS1_EED1Ev
	.section .gcc_except_table, "a"
	.align 4
_ZNSt6vectorIS_IiSaIiEESaIS1_EED1Ev$$LSDA:
	.byte	255
	.byte	155
	.uleb128	..___tag_value__ZNSt6vectorIS_IiSaIiEESaIS1_EED1Ev.129 - ..___tag_value__ZNSt6vectorIS_IiSaIiEESaIS1_EED1Ev.128
..___tag_value__ZNSt6vectorIS_IiSaIiEESaIS1_EED1Ev.128:
	.byte	1
	.uleb128	..___tag_value__ZNSt6vectorIS_IiSaIiEESaIS1_EED1Ev.127 - ..___tag_value__ZNSt6vectorIS_IiSaIiEESaIS1_EED1Ev.126
..___tag_value__ZNSt6vectorIS_IiSaIiEESaIS1_EED1Ev.126:
..___tag_value__ZNSt6vectorIS_IiSaIiEESaIS1_EED1Ev.127:
	.byte	127
	.byte	0
	.byte	0
	.byte	125
	.long	0
..___tag_value__ZNSt6vectorIS_IiSaIiEESaIS1_EED1Ev.129:
	.byte	0
	.data
# -- End  _ZNSt6vectorIS_IiSaIiEESaIS1_EED1Ev
	.section .text._ZNSt12_Vector_baseIiSaIiEED2Ev, "xaG",@progbits,_ZNSt12_Vector_baseIiSaIiEED2Ev,comdat
..TXTST6:
# -- Begin  _ZNSt12_Vector_baseIiSaIiEED2Ev
	.section .text._ZNSt12_Vector_baseIiSaIiEED2Ev, "xaG",@progbits,_ZNSt12_Vector_baseIiSaIiEED2Ev,comdat
# mark_begin;
       .align    16,0x90
	.weak _ZNSt12_Vector_baseIiSaIiEED2Ev
# --- std::_Vector_base<int, std::allocator<int>>::~_Vector_base(std::_Vector_base<int, std::allocator<int>> *const)
_ZNSt12_Vector_baseIiSaIiEED2Ev:
# parameter 1: %rdi
..B8.1:                         # Preds ..B8.0

###       ~_Vector_base() _GLIBCXX_NOEXCEPT

	.cfi_startproc
	.cfi_personality 0x93,DW.ref.__gxx_personality_v0
..___tag_value__ZNSt12_Vector_baseIiSaIiEED2Ev.130:
..L131:
                                                        #159.7
        movq      (%rdi), %rdi                                  #159.7
        testq     %rdi, %rdi                                    #159.7
        je        ..B8.3        # Prob 72%                      #159.7
                                # LOE rbx rbp rdi r12 r13 r14 r15
..B8.2:                         # Preds ..B8.1
#       operator delete(void *)
        jmp       _ZdlPv@PLT                                    #159.7
                                # LOE
..B8.3:                         # Preds ..B8.1
        ret                                                     #159.7
        .align    16,0x90
	.cfi_endproc
                                # LOE
# mark_end;
	.type	_ZNSt12_Vector_baseIiSaIiEED2Ev,@function
	.size	_ZNSt12_Vector_baseIiSaIiEED2Ev,.-_ZNSt12_Vector_baseIiSaIiEED2Ev
	.data
# -- End  _ZNSt12_Vector_baseIiSaIiEED2Ev
	.section .text._ZNSt12_Vector_baseISt6vectorIiSaIiEESaIS2_EED2Ev, "xaG",@progbits,_ZNSt12_Vector_baseISt6vectorIiSaIiEESaIS2_EED2Ev,comdat
..TXTST7:
# -- Begin  _ZNSt12_Vector_baseISt6vectorIiSaIiEESaIS2_EED2Ev
	.section .text._ZNSt12_Vector_baseISt6vectorIiSaIiEESaIS2_EED2Ev, "xaG",@progbits,_ZNSt12_Vector_baseISt6vectorIiSaIiEESaIS2_EED2Ev,comdat
# mark_begin;
       .align    16,0x90
	.weak _ZNSt12_Vector_baseISt6vectorIiSaIiEESaIS2_EED2Ev
# --- std::_Vector_base<std::vector<int, std::allocator<int>>, std::allocator<std::vector<int, std::allocator<int>>>>::~_Vector_base(std::_Vector_base<std::vector<int, std::allocator<int>>, std::allocator<std::vector<int, std::allocator<int>>>> *const)
_ZNSt12_Vector_baseISt6vectorIiSaIiEESaIS2_EED2Ev:
# parameter 1: %rdi
..B9.1:                         # Preds ..B9.0

###       ~_Vector_base() _GLIBCXX_NOEXCEPT

	.cfi_startproc
	.cfi_personality 0x93,DW.ref.__gxx_personality_v0
..___tag_value__ZNSt12_Vector_baseISt6vectorIiSaIiEESaIS2_EED2Ev.133:
..L134:
                                                        #159.7
        movq      (%rdi), %rdi                                  #159.7
        testq     %rdi, %rdi                                    #159.7
        je        ..B9.3        # Prob 72%                      #159.7
                                # LOE rbx rbp rdi r12 r13 r14 r15
..B9.2:                         # Preds ..B9.1
#       operator delete(void *)
        jmp       _ZdlPv@PLT                                    #159.7
                                # LOE
..B9.3:                         # Preds ..B9.1
        ret                                                     #159.7
        .align    16,0x90
	.cfi_endproc
                                # LOE
# mark_end;
	.type	_ZNSt12_Vector_baseISt6vectorIiSaIiEESaIS2_EED2Ev,@function
	.size	_ZNSt12_Vector_baseISt6vectorIiSaIiEESaIS2_EED2Ev,.-_ZNSt12_Vector_baseISt6vectorIiSaIiEESaIS2_EED2Ev
	.data
# -- End  _ZNSt12_Vector_baseISt6vectorIiSaIiEESaIS2_EED2Ev
	.text
# -- Begin  _ZN8yaskSiteD2Ev
	.text
# mark_begin;
       .align    16,0x90
	.globl _ZN8yaskSiteD2Ev
# --- yaskSite::~yaskSite(yaskSite *const)
_ZN8yaskSiteD2Ev:
# parameter 1: %rdi
..B10.1:                        # Preds ..B10.0

### yaskSite::~yaskSite()

	.cfi_startproc
	.cfi_personality 0x93,DW.ref.__gxx_personality_v0
..___tag_value__ZN8yaskSiteD2Ev.136:
..L137:
                                                        #45.11
#       yaskSite::~yaskSite(yaskSite *)
        jmp       _ZN8yaskSiteD1Ev@PLT                          #45.11
        .align    16,0x90
	.cfi_endproc
                                # LOE
# mark_end;
	.type	_ZN8yaskSiteD2Ev,@function
	.size	_ZN8yaskSiteD2Ev,.-_ZN8yaskSiteD2Ev
	.data
# -- End  _ZN8yaskSiteD2Ev
	.text
# -- Begin  _ZN8yaskSiteD1Ev
	.text
# mark_begin;
       .align    16,0x90
	.globl _ZN8yaskSiteD1Ev
# --- yaskSite::~yaskSite(yaskSite *)
_ZN8yaskSiteD1Ev:
# parameter 1: %rdi
..B11.1:                        # Preds ..B11.0

### {

	.cfi_startproc
	.cfi_personality 0x93,DW.ref.__gxx_personality_v0
	.cfi_lsda 0x1b, _ZN8yaskSiteD1Ev$$LSDA
..___tag_value__ZN8yaskSiteD1Ev.140:
..L141:
                                                        #46.1
        pushq     %rbx                                          #46.1
	.cfi_def_cfa_offset 16
	.cfi_offset 3, -16
        pushq     %rbp                                          #46.1
	.cfi_def_cfa_offset 24
	.cfi_offset 6, -24
        subq      $24, %rsp                                     #46.1
	.cfi_def_cfa_offset 48
        movq      %rdi, %rbx                                    #46.1

### #ifndef CACHE_BUILD
###     cleanDir();
### #endif
### 
###     delete[] localDir;

        movq      40(%rbx), %rdi                                #51.14
        testq     %rdi, %rdi                                    #51.14
        je        ..B11.3       # Prob 32%                      #51.14
                                # LOE rbx rdi r12 r13 r14 r15
..B11.2:                        # Preds ..B11.1
#       operator delete[](void *)
        call      _ZdaPv@PLT                                    #51.5
                                # LOE rbx r12 r13 r14 r15
..B11.3:                        # Preds ..B11.2 ..B11.1

###     delete[] sysLogFileName;

        movq      48(%rbx), %rdi                                #52.14
        testq     %rdi, %rdi                                    #52.14
        je        ..B11.5       # Prob 32%                      #52.14
                                # LOE rbx rdi r12 r13 r14 r15
..B11.4:                        # Preds ..B11.3
#       operator delete[](void *)
        call      _ZdaPv@PLT                                    #52.5
                                # LOE rbx r12 r13 r14 r15
..B11.5:                        # Preds ..B11.4 ..B11.3

###     delete[] stencilCode;

        movq      32(%rbx), %rdi                                #53.14
        testq     %rdi, %rdi                                    #53.14
        je        ..B11.7       # Prob 32%                      #53.14
                                # LOE rbx rdi r12 r13 r14 r15
..B11.6:                        # Preds ..B11.5
#       operator delete[](void *)
        call      _ZdaPv@PLT                                    #53.5
                                # LOE rbx r12 r13 r14 r15
..B11.7:                        # Preds ..B11.6 ..B11.5

### 
###     //if there is an active kernel
###     //delete it
###     if(stencilContext)

        cmpq      $0, 208(%rbx)                                 #57.8
        je        ..B11.11      # Prob 32%                      #57.8
                                # LOE rbx r12 r13 r14 r15
..B11.8:                        # Preds ..B11.7

###     {
###         if(dynFinalize(this)<0)

        movq      %rbx, %rdi                                    #59.12
..___tag_value__ZN8yaskSiteD1Ev.147:
        call      *184(%rbx)                                    #59.12
..___tag_value__ZN8yaskSiteD1Ev.148:
                                # LOE rbx r12 r13 r14 r15 eax
..B11.10:                       # Preds ..B11.8
        testl     %eax, %eax                                    #59.30
        jl        ..B11.25      # Prob 16%                      #59.30
                                # LOE rbx r12 r13 r14 r15
..B11.11:                       # Preds ..B11.33 ..B11.10 ..B11.7

###         {
###             ERROR_PRINT("Stencil is not generated");
###         }
###     }
### 
###     if(dl_handle)

        movq      168(%rbx), %rdi                               #65.8
        testq     %rdi, %rdi                                    #65.8
        je        ..B11.14      # Prob 32%                      #65.8
                                # LOE rbx rdi r12 r13 r14 r15
..B11.12:                       # Preds ..B11.11

###     {
###         //close loaded library
###         dlclose(dl_handle);

..___tag_value__ZN8yaskSiteD1Ev.149:
#       dlclose(void *)
        call      dlclose@PLT                                   #68.9
..___tag_value__ZN8yaskSiteD1Ev.150:
                                # LOE rbx r12 r13 r14 r15
..B11.13:                       # Preds ..B11.12

###         dl_handle = NULL;

        movq      $0, 168(%rbx)                                 #69.9
                                # LOE rbx r12 r13 r14 r15
..B11.14:                       # Preds ..B11.11 ..B11.13

###     }
### }

        movq      248(%rbx), %rdi                               #71.1
        movq      256(%rbx), %rbp                               #71.1
        cmpq      %rbp, %rdi                                    #71.1
        je        ..B11.20      # Prob 1%                       #71.1
                                # LOE rbx rbp rdi r12 r13 r14 r15
..B11.15:                       # Preds ..B11.14
        movq      %r15, 16(%rsp)                                #
	.cfi_offset 15, -32
        movq      %rdi, %r15                                    #
                                # LOE rbx rbp r12 r13 r14 r15
..B11.16:                       # Preds ..B11.18 ..B11.15
        movq      (%r15), %rdi                                  #71.1
        testq     %rdi, %rdi                                    #71.1
        je        ..B11.18      # Prob 72%                      #71.1
                                # LOE rbx rbp rdi r12 r13 r14 r15
..B11.17:                       # Preds ..B11.16
#       operator delete(void *)
        call      _ZdlPv@PLT                                    #71.1
                                # LOE rbx rbp r12 r13 r14 r15
..B11.18:                       # Preds ..B11.17 ..B11.16
        addq      $24, %r15                                     #71.1
        cmpq      %rbp, %r15                                    #71.1
        jne       ..B11.16      # Prob 82%                      #71.1
                                # LOE rbx rbp r12 r13 r14 r15
..B11.19:                       # Preds ..B11.18
        movq      16(%rsp), %r15                                #
	.cfi_restore 15
        movq      248(%rbx), %rdi                               #71.1
                                # LOE rbx rdi r12 r13 r14 r15
..B11.20:                       # Preds ..B11.19 ..B11.14
        testq     %rdi, %rdi                                    #71.1
        je        ..B11.22      # Prob 72%                      #71.1
                                # LOE rbx rdi r12 r13 r14 r15
..B11.21:                       # Preds ..B11.20
#       operator delete(void *)
        call      _ZdlPv@PLT                                    #71.1
                                # LOE rbx r12 r13 r14 r15
..B11.22:                       # Preds ..B11.21 ..B11.20
        movq      224(%rbx), %rdi                               #71.1
        testq     %rdi, %rdi                                    #71.1
        je        ..B11.24      # Prob 72%                      #71.1
                                # LOE rdi r12 r13 r14 r15
..B11.23:                       # Preds ..B11.22
#       operator delete(void *)
        call      _ZdlPv@PLT                                    #71.1
                                # LOE r12 r13 r14 r15
..B11.24:                       # Preds ..B11.23 ..B11.22
        addq      $24, %rsp                                     #71.1
	.cfi_def_cfa_offset 24
	.cfi_restore 6
        popq      %rbp                                          #71.1
	.cfi_def_cfa_offset 16
	.cfi_restore 3
        popq      %rbx                                          #71.1
	.cfi_def_cfa_offset 8
        ret                                                     #71.1
	.cfi_def_cfa_offset 48
	.cfi_offset 3, -16
	.cfi_offset 6, -24
                                # LOE
..B11.25:                       # Preds ..B11.10                # Infreq
        movl      $1140850688, %edi                             #61.13
        lea       8(%rsp), %rsi                                 #61.13
..___tag_value__ZN8yaskSiteD1Ev.161:
#       MPI_Comm_rank(MPI_Comm, int *)
        call      MPI_Comm_rank@PLT                             #61.13
..___tag_value__ZN8yaskSiteD1Ev.162:
                                # LOE rbx r12 r13 r14 r15 eax
..B11.27:                       # Preds ..B11.25                # Infreq
        testl     %eax, %eax                                    #61.13
        je        ..B11.29      # Prob 50%                      #61.13
                                # LOE rbx r12 r13 r14 r15
..B11.28:                       # Preds ..B11.27                # Infreq
        movl      $-1, 8(%rsp)                                  #61.13
        movq      stderr@GOTPCREL(%rip), %rbp                   #61.13
        jmp       ..B11.32      # Prob 100%                     #61.13
                                # LOE rbx rbp r12 r13 r14 r15
..B11.29:                       # Preds ..B11.27                # Infreq
        movl      8(%rsp), %r9d                                 #61.13
        testl     %r9d, %r9d                                    #61.13
        jne       ..B11.42      # Prob 50%                      #61.13
                                # LOE rbx r12 r13 r14 r15 r9d
..B11.30:                       # Preds ..B11.29                # Infreq
        lea       .L_2__STRING.1(%rip), %rsi                    #61.13
        movl      $47, %eax                                     #61.13
        movq      %rsi, %rdx                                    #61.13
        movq      %rdx, %rcx                                    #61.13
        movd      %eax, %xmm1                                   #61.13
        andq      $-16, %rdx                                    #61.13
        punpcklbw %xmm1, %xmm1                                  #61.13
        andl      $15, %ecx                                     #61.13
        punpcklbw %xmm1, %xmm1                                  #61.13
        pshufd    $0, %xmm1, %xmm1                              #61.13
        pxor      %xmm0, %xmm0                                  #61.13
        movdqa    (%rdx), %xmm2                                 #61.13
        pcmpeqb   %xmm2, %xmm0                                  #61.13
        pmovmskb  %xmm0, %r10d                                  #61.13
        pcmpeqb   %xmm1, %xmm2                                  #61.13
        shrl      %cl, %r10d                                    #61.13
        lea       -1(%r10), %rax                                #61.13
        xorl      %eax, %r10d                                   #61.13
        pmovmskb  %xmm2, %eax                                   #61.13
        shrl      %cl, %eax                                     #61.13
        andl      %r10d, %eax                                   #61.13
        je        ..L163        # Prob 60%                      #61.13
        bsr       %rax, %rax                                    #61.13
        addq      %rcx, %rax                                    #61.13
        addq      %rdx, %rax                                    #61.13
..L163:                                                         #
        orl       %r10d, %r10d                                  #61.13
        jg        ..L165        # Prob 60%                      #61.13
..L164:                                                         #
        call      __intel_sse2_strrchr@PLT                      #61.13
..L165:                                                         #
                                # LOE rax rbx rsi r12 r13 r14 r15 r9d
..B11.41:                       # Preds ..B11.30                # Infreq
        movq      stderr@GOTPCREL(%rip), %rbp                   #61.13
        testq     %rax, %rax                                    #61.13
        movl      %r9d, %edx                                    #61.13
        lea       1(%rax), %r8                                  #61.13
        cmove     %rsi, %r8                                     #61.13
        lea       .L_2__STRING.46(%rip), %rsi                   #61.13
        lea       __$U1(%rip), %rcx                             #61.13
        movl      $61, %r9d                                     #61.13
        xorl      %eax, %eax                                    #61.13
        movq      (%rbp), %rdi                                  #61.13
#       fprintf(FILE *, const char *, ...)
        call      fprintf@PLT                                   #61.13
                                # LOE rbx rbp r12 r13 r14 r15
..B11.31:                       # Preds ..B11.41                # Infreq
        movq      (%rbp), %rdi                                  #61.13
#       fflush(FILE *)
        call      fflush@PLT                                    #61.13
                                # LOE rbx rbp r12 r13 r14 r15
..B11.32:                       # Preds ..B11.31 ..B11.42 ..B11.28 # Infreq
        movl      $10, %edi                                     #61.13
        movq      (%rbp), %rsi                                  #61.13
        call      fputc@PLT                                     #61.13
                                # LOE rbx rbp r12 r13 r14 r15
..B11.33:                       # Preds ..B11.32                # Infreq
        movq      (%rbp), %rdi                                  #61.13
#       fflush(FILE *)
        call      fflush@PLT                                    #61.13
        jmp       ..B11.11      # Prob 100%                     #61.13
                                # LOE rbx r12 r13 r14 r15
..___tag_value__ZN8yaskSiteD1Ev.139:
..B11.34:                       # Preds ..B11.25 ..B11.8        # Infreq
        movq      %rax, (%rsp)                                  #46.1
                                # LOE rbx r12 r13 r14 r15
..B11.35:                       # Preds ..B11.34                # Infreq
        lea       248(%rbx), %rdi                               #46.1
#       std::vector<std::vector<int, std::allocator<int>>, std::allocator<std::vector<int, std::allocator<int>>>>::~vector(std::vector<std::vector<int, std::allocator<int>>, std::allocator<std::vector<int, std::allocator<int>>>> *)
        call      _ZNSt6vectorIS_IiSaIiEESaIS1_EED1Ev@PLT       #46.1
                                # LOE rbx r12 r13 r14 r15
..B11.36:                       # Preds ..B11.35                # Infreq
        addq      $224, %rbx                                    #46.1
        movq      %rbx, %rdi                                    #46.1
#       std::vector<const char *, std::allocator<const char *>>::~vector(std::vector<const char *, std::allocator<const char *>> *)
        call      _ZNSt6vectorIPKcSaIS1_EED1Ev@PLT              #46.1
                                # LOE r12 r13 r14 r15
..B11.37:                       # Preds ..B11.36                # Infreq
        xorl      %eax, %eax                                    #46.1
        movq      (%rsp), %rdi                                  #46.1
..___tag_value__ZN8yaskSiteD1Ev.166:
        call      __cxa_call_unexpected@PLT                     #46.1
..___tag_value__ZN8yaskSiteD1Ev.167:
                                # LOE r12 r13 r14 r15
..B11.38:                       # Preds ..B11.37                # Infreq
        movq      (%rsp), %rdi                                  #46.1
..___tag_value__ZN8yaskSiteD1Ev.168:
        call      _Unwind_Resume@PLT                            #46.1
..___tag_value__ZN8yaskSiteD1Ev.169:
                                # LOE
..B11.42:                       # Preds ..B11.29                # Infreq
        movq      stderr@GOTPCREL(%rip), %rbp                   #61.13
        jmp       ..B11.32      # Prob 100%                     #61.13
        .align    16,0x90
	.cfi_endproc
                                # LOE rbx rbp r12 r13 r14 r15
# mark_end;
	.type	_ZN8yaskSiteD1Ev,@function
	.size	_ZN8yaskSiteD1Ev,.-_ZN8yaskSiteD1Ev
	.section .gcc_except_table, "a"
	.align 4
_ZN8yaskSiteD1Ev$$LSDA:
	.byte	255
	.byte	155
	.uleb128	..___tag_value__ZN8yaskSiteD1Ev.174 - ..___tag_value__ZN8yaskSiteD1Ev.173
..___tag_value__ZN8yaskSiteD1Ev.173:
	.byte	1
	.uleb128	..___tag_value__ZN8yaskSiteD1Ev.172 - ..___tag_value__ZN8yaskSiteD1Ev.171
..___tag_value__ZN8yaskSiteD1Ev.171:
	.uleb128	..___tag_value__ZN8yaskSiteD1Ev.147 - ..___tag_value__ZN8yaskSiteD1Ev.140
	.uleb128	..___tag_value__ZN8yaskSiteD1Ev.162 - ..___tag_value__ZN8yaskSiteD1Ev.147
	.uleb128	..___tag_value__ZN8yaskSiteD1Ev.139 - ..___tag_value__ZN8yaskSiteD1Ev.140
	.byte	3
	.uleb128	..___tag_value__ZN8yaskSiteD1Ev.166 - ..___tag_value__ZN8yaskSiteD1Ev.140
	.uleb128	..___tag_value__ZN8yaskSiteD1Ev.169 - ..___tag_value__ZN8yaskSiteD1Ev.166
	.byte	0
	.byte	0
..___tag_value__ZN8yaskSiteD1Ev.172:
	.byte	127
	.byte	0
	.byte	0
	.byte	125
	.long	0
..___tag_value__ZN8yaskSiteD1Ev.174:
	.byte	0
	.data
# -- End  _ZN8yaskSiteD1Ev
	.text
# -- Begin  _ZN8yaskSite8cleanDirEv
	.text
# mark_begin;
       .align    16,0x90
	.globl _ZN8yaskSite8cleanDirEv
# --- yaskSite::cleanDir(yaskSite *)
_ZN8yaskSite8cleanDirEv:
# parameter 1: %rdi
..B12.1:                        # Preds ..B12.0

### {

	.cfi_startproc
	.cfi_personality 0x93,DW.ref.__gxx_personality_v0
..___tag_value__ZN8yaskSite8cleanDirEv.175:
..L176:
                                                        #80.1
        pushq     %r12                                          #80.1
	.cfi_def_cfa_offset 16
	.cfi_offset 12, -16
        subq      $16, %rsp                                     #80.1
	.cfi_def_cfa_offset 32
        movq      %rdi, %r12                                    #80.1

###     //remove the localDir
###     SYSTEM("rm -r -f %s", localDir);

        lea       .L_2__STRING.47(%rip), %rsi                   #82.5
        lea       (%rsp), %rdi                                  #82.5
        xorl      %eax, %eax                                    #82.5
        movq      40(%r12), %rdx                                #82.5
..___tag_value__ZN8yaskSite8cleanDirEv.180:
#       asprintf(char **, const char *, ...)
        call      asprintf@PLT                                  #82.5
..___tag_value__ZN8yaskSite8cleanDirEv.181:
                                # LOE rbx rbp r12 r13 r14 r15
..B12.2:                        # Preds ..B12.1
        lea       .L_2__STRING.18(%rip), %rsi                   #82.5
        lea       8(%rsp), %rdi                                 #82.5
        lea       .L_2__STRING.17(%rip), %rcx                   #82.5
        xorl      %eax, %eax                                    #82.5
        movq      (%rsp), %rdx                                  #82.5
..___tag_value__ZN8yaskSite8cleanDirEv.182:
#       asprintf(char **, const char *, ...)
        call      asprintf@PLT                                  #82.5
..___tag_value__ZN8yaskSite8cleanDirEv.183:
                                # LOE rbx rbp r12 r13 r14 r15
..B12.3:                        # Preds ..B12.2
        movq      %r12, %rdi                                    #82.5
        movq      8(%rsp), %rsi                                 #82.5
..___tag_value__ZN8yaskSite8cleanDirEv.184:
#       yaskSite::systemCall(yaskSite *, char *)
        call      _ZN8yaskSite10systemCallEPc@PLT               #82.5
..___tag_value__ZN8yaskSite8cleanDirEv.185:
                                # LOE rbx rbp r13 r14 r15
..B12.4:                        # Preds ..B12.3
        movq      (%rsp), %rdi                                  #82.5
#       free(void *)
        call      free@PLT                                      #82.5
                                # LOE rbx rbp r13 r14 r15
..B12.5:                        # Preds ..B12.4
        movq      8(%rsp), %rdi                                 #82.5
#       free(void *)
        call      free@PLT                                      #82.5
                                # LOE rbx rbp r13 r14 r15
..B12.6:                        # Preds ..B12.5

### }

        addq      $16, %rsp                                     #83.1
	.cfi_def_cfa_offset 16
	.cfi_restore 12
        popq      %r12                                          #83.1
	.cfi_def_cfa_offset 8
        ret                                                     #83.1
        .align    16,0x90
	.cfi_endproc
                                # LOE
# mark_end;
	.type	_ZN8yaskSite8cleanDirEv,@function
	.size	_ZN8yaskSite8cleanDirEv,.-_ZN8yaskSite8cleanDirEv
	.data
# -- End  _ZN8yaskSite8cleanDirEv
	.text
# -- Begin  _ZN8yaskSite11setSubBlockEiii
	.text
# mark_begin;
       .align    16,0x90
	.globl _ZN8yaskSite11setSubBlockEiii
# --- yaskSite::setSubBlock(yaskSite *, int, int, int)
_ZN8yaskSite11setSubBlockEiii:
# parameter 1: %rdi
# parameter 2: %esi
# parameter 3: %edx
# parameter 4: %ecx
..B13.1:                        # Preds ..B13.0

### {

	.cfi_startproc
	.cfi_personality 0x93,DW.ref.__gxx_personality_v0
..___tag_value__ZN8yaskSite11setSubBlockEiii.190:
..L191:
                                                        #179.1
        pushq     %r12                                          #179.1
	.cfi_def_cfa_offset 16
	.cfi_offset 12, -16
        pushq     %r13                                          #179.1
	.cfi_def_cfa_offset 24
	.cfi_offset 13, -24
        pushq     %r14                                          #179.1
	.cfi_def_cfa_offset 32
	.cfi_offset 14, -32
        pushq     %r15                                          #179.1
	.cfi_def_cfa_offset 40
	.cfi_offset 15, -40
        pushq     %rbx                                          #179.1
	.cfi_def_cfa_offset 48
	.cfi_offset 3, -48
        subq      $16, %rsp                                     #179.1
	.cfi_def_cfa_offset 64
        movq      %rdi, %r12                                    #179.1
        movl      %ecx, %ebx                                    #179.1
        movl      %edx, %r14d                                   #179.1
        movl      %esi, %r13d                                   #179.1

###     SYNC_WITH_DIM(z, y, x, "subBlock");

        movl      140(%r12), %eax                               #180.5
        cmpl      $1, %eax                                      #180.5
        je        ..B13.14      # Prob 16%                      #180.5
                                # LOE rbp r12 eax ebx r13d r14d
..B13.2:                        # Preds ..B13.33 ..B13.34 ..B13.1
        cmpl      $2, %eax                                      #180.5
        je        ..B13.4       # Prob 16%                      #180.5
                                # LOE rbp r12 ebx r13d r14d
..B13.3:                        # Preds ..B13.13 ..B13.4 ..B13.2

###     sbx=x;

        movl      %ebx, 76(%r12)                                #181.5

###     sby=y;

        movl      %r14d, 80(%r12)                               #182.5

###     sbz=z;

        movl      %r13d, 84(%r12)                               #183.5

###     subBlockUpdated = true;

        movb      $1, 161(%r12)                                 #184.5

### }

        addq      $16, %rsp                                     #185.1
	.cfi_def_cfa_offset 48
	.cfi_restore 3
        popq      %rbx                                          #185.1
	.cfi_def_cfa_offset 40
	.cfi_restore 15
        popq      %r15                                          #185.1
	.cfi_def_cfa_offset 32
	.cfi_restore 14
        popq      %r14                                          #185.1
	.cfi_def_cfa_offset 24
	.cfi_restore 13
        popq      %r13                                          #185.1
	.cfi_def_cfa_offset 16
	.cfi_restore 12
        popq      %r12                                          #185.1
	.cfi_def_cfa_offset 8
        ret                                                     #185.1
	.cfi_def_cfa_offset 64
	.cfi_offset 3, -48
	.cfi_offset 12, -16
	.cfi_offset 13, -24
	.cfi_offset 14, -32
	.cfi_offset 15, -40
                                # LOE
..B13.4:                        # Preds ..B13.2                 # Infreq
        cmpl      $1, %ebx                                      #180.5
        je        ..B13.3       # Prob 16%                      #180.5
                                # LOE rbp r12 ebx r13d r14d
..B13.5:                        # Preds ..B13.4                 # Infreq
        movl      $1140850688, %edi                             #180.5
        lea       8(%rsp), %rsi                                 #180.5
..___tag_value__ZN8yaskSite11setSubBlockEiii.220:
#       MPI_Comm_rank(MPI_Comm, int *)
        call      MPI_Comm_rank@PLT                             #180.5
..___tag_value__ZN8yaskSite11setSubBlockEiii.221:
                                # LOE rbp r12 eax ebx r13d r14d
..B13.6:                        # Preds ..B13.5                 # Infreq
        testl     %eax, %eax                                    #180.5
        je        ..B13.8       # Prob 50%                      #180.5
                                # LOE rbp r12 ebx r13d r14d
..B13.7:                        # Preds ..B13.6                 # Infreq
        movl      $-1, 8(%rsp)                                  #180.5
        movq      stderr@GOTPCREL(%rip), %r15                   #180.5
        jmp       ..B13.11      # Prob 100%                     #180.5
                                # LOE rbp r12 r15 r13d r14d
..B13.8:                        # Preds ..B13.6                 # Infreq
        movl      8(%rsp), %r9d                                 #180.5
        testl     %r9d, %r9d                                    #180.5
        jne       ..B13.48      # Prob 50%                      #180.5
                                # LOE rbp r12 ebx r9d r13d r14d
..B13.9:                        # Preds ..B13.8                 # Infreq
        lea       .L_2__STRING.1(%rip), %rsi                    #180.5
        movl      $47, %eax                                     #180.5
        movq      %rsi, %rdx                                    #180.5
        movq      %rdx, %rcx                                    #180.5
        movd      %eax, %xmm1                                   #180.5
        andq      $-16, %rdx                                    #180.5
        punpcklbw %xmm1, %xmm1                                  #180.5
        andl      $15, %ecx                                     #180.5
        punpcklbw %xmm1, %xmm1                                  #180.5
        pshufd    $0, %xmm1, %xmm1                              #180.5
        pxor      %xmm0, %xmm0                                  #180.5
        movdqa    (%rdx), %xmm2                                 #180.5
        pcmpeqb   %xmm2, %xmm0                                  #180.5
        pmovmskb  %xmm0, %r10d                                  #180.5
        pcmpeqb   %xmm1, %xmm2                                  #180.5
        shrl      %cl, %r10d                                    #180.5
        lea       -1(%r10), %rax                                #180.5
        xorl      %eax, %r10d                                   #180.5
        pmovmskb  %xmm2, %eax                                   #180.5
        shrl      %cl, %eax                                     #180.5
        andl      %r10d, %eax                                   #180.5
        je        ..L222        # Prob 60%                      #180.5
        bsr       %rax, %rax                                    #180.5
        addq      %rcx, %rax                                    #180.5
        addq      %rdx, %rax                                    #180.5
..L222:                                                         #
        orl       %r10d, %r10d                                  #180.5
        jg        ..L224        # Prob 60%                      #180.5
..L223:                                                         #
        call      __intel_sse2_strrchr@PLT                      #180.5
..L224:                                                         #
                                # LOE rax rbp rsi r12 ebx r9d r13d r14d
..B13.39:                       # Preds ..B13.9                 # Infreq
        addq      $-32, %rsp                                    #180.5
	.cfi_def_cfa_offset 96
        testq     %rax, %rax                                    #180.5
        movq      stderr@GOTPCREL(%rip), %r15                   #180.5
        lea       1(%rax), %r8                                  #180.5
        lea       .L_2__STRING.48(%rip), %r10                   #180.5
        cmove     %rsi, %r8                                     #180.5
        lea       .L_2__STRING.0(%rip), %rsi                    #180.5
        movl      %r9d, %edx                                    #180.5
        movq      %r10, (%rsp)                                  #180.5
        lea       __$U2(%rip), %rcx                             #180.5
        movl      %ebx, 8(%rsp)                                 #180.5
        movl      $180, %r9d                                    #180.5
        movl      140(%r12), %ebx                               #180.5
        xorl      %eax, %eax                                    #180.5
        movq      (%r15), %rdi                                  #180.5
        movl      %ebx, 16(%rsp)                                #180.5
#       fprintf(FILE *, const char *, ...)
        call      fprintf@PLT                                   #180.5
                                # LOE rbp r12 r15 r13d r14d
..B13.38:                       # Preds ..B13.39                # Infreq
        addq      $32, %rsp                                     #180.5
	.cfi_def_cfa_offset 64
                                # LOE rbp r12 r15 r13d r14d
..B13.10:                       # Preds ..B13.38                # Infreq
        movq      (%r15), %rdi                                  #180.5
#       fflush(FILE *)
        call      fflush@PLT                                    #180.5
                                # LOE rbp r12 r15 r13d r14d
..B13.11:                       # Preds ..B13.7 ..B13.10 ..B13.48 # Infreq
        movl      $10, %edi                                     #180.5
        movq      (%r15), %rsi                                  #180.5
        call      fputc@PLT                                     #180.5
                                # LOE rbp r12 r15 r13d r14d
..B13.12:                       # Preds ..B13.11                # Infreq
        movq      (%r15), %rdi                                  #180.5
#       fflush(FILE *)
        call      fflush@PLT                                    #180.5
                                # LOE rbp r12 r13d r14d
..B13.13:                       # Preds ..B13.12                # Infreq
        movl      $1, %ebx                                      #180.5
        jmp       ..B13.3       # Prob 100%                     #180.5
                                # LOE rbp r12 ebx r13d r14d
..B13.14:                       # Preds ..B13.1                 # Infreq
        cmpl      $1, %ebx                                      #180.5
        je        ..B13.24      # Prob 16%                      #180.5
                                # LOE rbp r12 ebx r13d r14d
..B13.15:                       # Preds ..B13.14                # Infreq
        movl      $1140850688, %edi                             #180.5
        lea       (%rsp), %rsi                                  #180.5
..___tag_value__ZN8yaskSite11setSubBlockEiii.227:
#       MPI_Comm_rank(MPI_Comm, int *)
        call      MPI_Comm_rank@PLT                             #180.5
..___tag_value__ZN8yaskSite11setSubBlockEiii.228:
                                # LOE rbp r12 eax ebx r13d r14d
..B13.16:                       # Preds ..B13.15                # Infreq
        testl     %eax, %eax                                    #180.5
        je        ..B13.18      # Prob 50%                      #180.5
                                # LOE rbp r12 ebx r13d r14d
..B13.17:                       # Preds ..B13.16                # Infreq
        movl      $-1, (%rsp)                                   #180.5
        movq      stderr@GOTPCREL(%rip), %r15                   #180.5
        jmp       ..B13.21      # Prob 100%                     #180.5
                                # LOE rbp r12 r15 r13d r14d
..B13.18:                       # Preds ..B13.16                # Infreq
        movl      (%rsp), %r9d                                  #180.5
        testl     %r9d, %r9d                                    #180.5
        jne       ..B13.47      # Prob 50%                      #180.5
                                # LOE rbp r12 ebx r9d r13d r14d
..B13.19:                       # Preds ..B13.18                # Infreq
        lea       .L_2__STRING.1(%rip), %rsi                    #180.5
        movl      $47, %eax                                     #180.5
        movq      %rsi, %rdx                                    #180.5
        movq      %rdx, %rcx                                    #180.5
        movd      %eax, %xmm1                                   #180.5
        andq      $-16, %rdx                                    #180.5
        punpcklbw %xmm1, %xmm1                                  #180.5
        andl      $15, %ecx                                     #180.5
        punpcklbw %xmm1, %xmm1                                  #180.5
        pshufd    $0, %xmm1, %xmm1                              #180.5
        pxor      %xmm0, %xmm0                                  #180.5
        movdqa    (%rdx), %xmm2                                 #180.5
        pcmpeqb   %xmm2, %xmm0                                  #180.5
        pmovmskb  %xmm0, %r10d                                  #180.5
        pcmpeqb   %xmm1, %xmm2                                  #180.5
        shrl      %cl, %r10d                                    #180.5
        lea       -1(%r10), %rax                                #180.5
        xorl      %eax, %r10d                                   #180.5
        pmovmskb  %xmm2, %eax                                   #180.5
        shrl      %cl, %eax                                     #180.5
        andl      %r10d, %eax                                   #180.5
        je        ..L229        # Prob 60%                      #180.5
        bsr       %rax, %rax                                    #180.5
        addq      %rcx, %rax                                    #180.5
        addq      %rdx, %rax                                    #180.5
..L229:                                                         #
        orl       %r10d, %r10d                                  #180.5
        jg        ..L231        # Prob 60%                      #180.5
..L230:                                                         #
        call      __intel_sse2_strrchr@PLT                      #180.5
..L231:                                                         #
                                # LOE rax rbp rsi r12 ebx r9d r13d r14d
..B13.42:                       # Preds ..B13.19                # Infreq
        addq      $-32, %rsp                                    #180.5
	.cfi_def_cfa_offset 96
        testq     %rax, %rax                                    #180.5
        movq      stderr@GOTPCREL(%rip), %r15                   #180.5
        lea       1(%rax), %r8                                  #180.5
        lea       .L_2__STRING.48(%rip), %r10                   #180.5
        cmove     %rsi, %r8                                     #180.5
        lea       .L_2__STRING.0(%rip), %rsi                    #180.5
        movl      %r9d, %edx                                    #180.5
        movq      %r10, (%rsp)                                  #180.5
        lea       __$U2(%rip), %rcx                             #180.5
        movl      %ebx, 8(%rsp)                                 #180.5
        movl      $180, %r9d                                    #180.5
        movl      140(%r12), %ebx                               #180.5
        xorl      %eax, %eax                                    #180.5
        movq      (%r15), %rdi                                  #180.5
        movl      %ebx, 16(%rsp)                                #180.5
#       fprintf(FILE *, const char *, ...)
        call      fprintf@PLT                                   #180.5
                                # LOE rbp r12 r15 r13d r14d
..B13.41:                       # Preds ..B13.42                # Infreq
        addq      $32, %rsp                                     #180.5
	.cfi_def_cfa_offset 64
                                # LOE rbp r12 r15 r13d r14d
..B13.20:                       # Preds ..B13.41                # Infreq
        movq      (%r15), %rdi                                  #180.5
#       fflush(FILE *)
        call      fflush@PLT                                    #180.5
                                # LOE rbp r12 r15 r13d r14d
..B13.21:                       # Preds ..B13.17 ..B13.20 ..B13.47 # Infreq
        movl      $10, %edi                                     #180.5
        movq      (%r15), %rsi                                  #180.5
        call      fputc@PLT                                     #180.5
                                # LOE rbp r12 r15 r13d r14d
..B13.22:                       # Preds ..B13.21                # Infreq
        movq      (%r15), %rdi                                  #180.5
#       fflush(FILE *)
        call      fflush@PLT                                    #180.5
                                # LOE rbp r12 r13d r14d
..B13.23:                       # Preds ..B13.22                # Infreq
        movl      $1, %ebx                                      #180.5
                                # LOE rbp r12 ebx r13d r14d
..B13.24:                       # Preds ..B13.23 ..B13.14       # Infreq
        cmpl      $1, %r14d                                     #180.5
        je        ..B13.34      # Prob 16%                      #180.5
                                # LOE rbp r12 ebx r13d r14d
..B13.25:                       # Preds ..B13.24                # Infreq
        movl      $1140850688, %edi                             #180.5
        lea       4(%rsp), %rsi                                 #180.5
..___tag_value__ZN8yaskSite11setSubBlockEiii.234:
#       MPI_Comm_rank(MPI_Comm, int *)
        call      MPI_Comm_rank@PLT                             #180.5
..___tag_value__ZN8yaskSite11setSubBlockEiii.235:
                                # LOE rbp r12 eax ebx r13d
..B13.26:                       # Preds ..B13.25                # Infreq
        testl     %eax, %eax                                    #180.5
        je        ..B13.28      # Prob 50%                      #180.5
                                # LOE rbp r12 ebx r13d
..B13.27:                       # Preds ..B13.26                # Infreq
        movl      $-1, 4(%rsp)                                  #180.5
        movq      stderr@GOTPCREL(%rip), %r14                   #180.5
        jmp       ..B13.31      # Prob 100%                     #180.5
                                # LOE rbp r12 r14 ebx r13d
..B13.28:                       # Preds ..B13.26                # Infreq
        movl      4(%rsp), %r9d                                 #180.5
        testl     %r9d, %r9d                                    #180.5
        jne       ..B13.46      # Prob 50%                      #180.5
                                # LOE rbp r12 ebx r9d r13d
..B13.29:                       # Preds ..B13.28                # Infreq
        lea       .L_2__STRING.1(%rip), %rsi                    #180.5
        movl      $47, %eax                                     #180.5
        movq      %rsi, %rdx                                    #180.5
        movq      %rdx, %rcx                                    #180.5
        movd      %eax, %xmm1                                   #180.5
        andq      $-16, %rdx                                    #180.5
        punpcklbw %xmm1, %xmm1                                  #180.5
        andl      $15, %ecx                                     #180.5
        punpcklbw %xmm1, %xmm1                                  #180.5
        pshufd    $0, %xmm1, %xmm1                              #180.5
        pxor      %xmm0, %xmm0                                  #180.5
        movdqa    (%rdx), %xmm2                                 #180.5
        pcmpeqb   %xmm2, %xmm0                                  #180.5
        pmovmskb  %xmm0, %r10d                                  #180.5
        pcmpeqb   %xmm1, %xmm2                                  #180.5
        shrl      %cl, %r10d                                    #180.5
        lea       -1(%r10), %rax                                #180.5
        xorl      %eax, %r10d                                   #180.5
        pmovmskb  %xmm2, %eax                                   #180.5
        shrl      %cl, %eax                                     #180.5
        andl      %r10d, %eax                                   #180.5
        je        ..L236        # Prob 60%                      #180.5
        bsr       %rax, %rax                                    #180.5
        addq      %rcx, %rax                                    #180.5
        addq      %rdx, %rax                                    #180.5
..L236:                                                         #
        orl       %r10d, %r10d                                  #180.5
        jg        ..L238        # Prob 60%                      #180.5
..L237:                                                         #
        call      __intel_sse2_strrchr@PLT                      #180.5
..L238:                                                         #
                                # LOE rax rbp rsi r12 ebx r9d r13d
..B13.45:                       # Preds ..B13.29                # Infreq
        addq      $-32, %rsp                                    #180.5
	.cfi_def_cfa_offset 96
        testq     %rax, %rax                                    #180.5
        movq      stderr@GOTPCREL(%rip), %r14                   #180.5
        lea       1(%rax), %r8                                  #180.5
        movl      140(%r12), %r11d                              #180.5
        cmove     %rsi, %r8                                     #180.5
        lea       .L_2__STRING.4(%rip), %rsi                    #180.5
        movl      %r9d, %edx                                    #180.5
        lea       __$U2(%rip), %rcx                             #180.5
        movl      $180, %r9d                                    #180.5
        xorl      %eax, %eax                                    #180.5
        lea       .L_2__STRING.48(%rip), %r10                   #180.5
        movq      %r10, (%rsp)                                  #180.5
        movl      %ebx, 8(%rsp)                                 #180.5
        movq      (%r14), %rdi                                  #180.5
        movl      %r11d, 16(%rsp)                               #180.5
#       fprintf(FILE *, const char *, ...)
        call      fprintf@PLT                                   #180.5
                                # LOE rbp r12 r14 ebx r13d
..B13.44:                       # Preds ..B13.45                # Infreq
        addq      $32, %rsp                                     #180.5
	.cfi_def_cfa_offset 64
                                # LOE rbp r12 r14 ebx r13d
..B13.30:                       # Preds ..B13.44                # Infreq
        movq      (%r14), %rdi                                  #180.5
#       fflush(FILE *)
        call      fflush@PLT                                    #180.5
                                # LOE rbp r12 r14 ebx r13d
..B13.31:                       # Preds ..B13.27 ..B13.30 ..B13.46 # Infreq
        movl      $10, %edi                                     #180.5
        movq      (%r14), %rsi                                  #180.5
        call      fputc@PLT                                     #180.5
                                # LOE rbp r12 r14 ebx r13d
..B13.32:                       # Preds ..B13.31                # Infreq
        movq      (%r14), %rdi                                  #180.5
#       fflush(FILE *)
        call      fflush@PLT                                    #180.5
                                # LOE rbp r12 ebx r13d
..B13.33:                       # Preds ..B13.32                # Infreq
        movl      140(%r12), %eax                               #180.5
        movl      $1, %r14d                                     #180.5
        jmp       ..B13.2       # Prob 100%                     #180.5
                                # LOE rbp r12 eax ebx r13d r14d
..B13.34:                       # Preds ..B13.24                # Infreq
        movl      140(%r12), %eax                               #180.5
        jmp       ..B13.2       # Prob 100%                     #180.5
                                # LOE rbp r12 eax ebx r13d r14d
..B13.46:                       # Preds ..B13.28                # Infreq
        movq      stderr@GOTPCREL(%rip), %r14                   #180.5
        jmp       ..B13.31      # Prob 100%                     #180.5
                                # LOE rbp r12 r14 ebx r13d
..B13.47:                       # Preds ..B13.18                # Infreq
        movq      stderr@GOTPCREL(%rip), %r15                   #180.5
        jmp       ..B13.21      # Prob 100%                     #180.5
                                # LOE rbp r12 r15 r13d r14d
..B13.48:                       # Preds ..B13.8                 # Infreq
        movq      stderr@GOTPCREL(%rip), %r15                   #180.5
        jmp       ..B13.11      # Prob 100%                     #180.5
        .align    16,0x90
	.cfi_endproc
                                # LOE rbp r12 r15 r13d r14d
# mark_end;
	.type	_ZN8yaskSite11setSubBlockEiii,@function
	.size	_ZN8yaskSite11setSubBlockEiii,.-_ZN8yaskSite11setSubBlockEiii
	.data
# -- End  _ZN8yaskSite11setSubBlockEiii
	.text
# -- Begin  _ZN8yaskSite8setBlockEiiib
	.text
# mark_begin;
       .align    16,0x90
	.globl _ZN8yaskSite8setBlockEiiib
# --- yaskSite::setBlock(yaskSite *, int, int, int, bool)
_ZN8yaskSite8setBlockEiiib:
# parameter 1: %rdi
# parameter 2: %esi
# parameter 3: %edx
# parameter 4: %ecx
# parameter 5: %r8d
..B14.1:                        # Preds ..B14.0

### {

	.cfi_startproc
	.cfi_personality 0x93,DW.ref.__gxx_personality_v0
..___tag_value__ZN8yaskSite8setBlockEiiib.242:
..L243:
                                                        #189.1
        pushq     %r12                                          #189.1
	.cfi_def_cfa_offset 16
	.cfi_offset 12, -16
        pushq     %r13                                          #189.1
	.cfi_def_cfa_offset 24
	.cfi_offset 13, -24
        pushq     %r14                                          #189.1
	.cfi_def_cfa_offset 32
	.cfi_offset 14, -32
        pushq     %r15                                          #189.1
	.cfi_def_cfa_offset 40
	.cfi_offset 15, -40
        pushq     %rbx                                          #189.1
	.cfi_def_cfa_offset 48
	.cfi_offset 3, -48
        pushq     %rbp                                          #189.1
	.cfi_def_cfa_offset 56
	.cfi_offset 6, -56
        subq      $24, %rsp                                     #189.1
	.cfi_def_cfa_offset 80
        movq      %rdi, %rbp                                    #189.1
        movl      %r8d, %r14d                                   #189.1
        movl      %ecx, %ebx                                    #189.1
        movl      %edx, %r13d                                   #189.1
        movl      %esi, %r12d                                   #189.1

###     SYNC_WITH_DIM(z, y, x, "block");

        movl      140(%rbp), %eax                               #190.5
        cmpl      $1, %eax                                      #190.5
        je        ..B14.16      # Prob 16%                      #190.5
                                # LOE rbp eax ebx r12d r13d r14d
..B14.2:                        # Preds ..B14.35 ..B14.36 ..B14.1
        cmpl      $2, %eax                                      #190.5
        je        ..B14.6       # Prob 16%                      #190.5
                                # LOE rbp ebx r12d r13d r14d
..B14.3:                        # Preds ..B14.15 ..B14.6 ..B14.2

###     bx=x;

        movl      %ebx, 88(%rbp)                                #191.5

###     by=y;
###     bz=z;
###     blockUpdated = true;
### 
###     if(resetOthers)

        testb     %r14b, %r14b                                  #196.8
        movl      %r13d, 92(%rbp)                               #192.5
        movl      %r12d, 96(%rbp)                               #193.5
        movb      $1, 162(%rbp)                                 #194.5
        jne       ..B14.5       # Prob 5%                       #196.8
                                # LOE rbp
..B14.4:                        # Preds ..B14.3

###     {
###         setDefaultSubBlock();
###     }
### }

        addq      $24, %rsp                                     #200.1
	.cfi_def_cfa_offset 56
	.cfi_restore 6
        popq      %rbp                                          #200.1
	.cfi_def_cfa_offset 48
	.cfi_restore 3
        popq      %rbx                                          #200.1
	.cfi_def_cfa_offset 40
	.cfi_restore 15
        popq      %r15                                          #200.1
	.cfi_def_cfa_offset 32
	.cfi_restore 14
        popq      %r14                                          #200.1
	.cfi_def_cfa_offset 24
	.cfi_restore 13
        popq      %r13                                          #200.1
	.cfi_def_cfa_offset 16
	.cfi_restore 12
        popq      %r12                                          #200.1
	.cfi_def_cfa_offset 8
        ret                                                     #200.1
	.cfi_def_cfa_offset 80
	.cfi_offset 3, -48
	.cfi_offset 6, -56
	.cfi_offset 12, -16
	.cfi_offset 13, -24
	.cfi_offset 14, -32
	.cfi_offset 15, -40
                                # LOE
..B14.5:                        # Preds ..B14.3                 # Infreq
        movq      %rbp, %rdi                                    #198.9
..___tag_value__ZN8yaskSite8setBlockEiiib.277:
#       yaskSite::setDefaultSubBlock(yaskSite *)
        call      _ZN8yaskSite18setDefaultSubBlockEv@PLT        #198.9
..___tag_value__ZN8yaskSite8setBlockEiiib.278:
        addq      $24, %rsp                                     #198.9
	.cfi_def_cfa_offset 56
	.cfi_restore 6
        popq      %rbp                                          #198.9
	.cfi_def_cfa_offset 48
	.cfi_restore 3
        popq      %rbx                                          #198.9
	.cfi_def_cfa_offset 40
	.cfi_restore 15
        popq      %r15                                          #198.9
	.cfi_def_cfa_offset 32
	.cfi_restore 14
        popq      %r14                                          #198.9
	.cfi_def_cfa_offset 24
	.cfi_restore 13
        popq      %r13                                          #198.9
	.cfi_def_cfa_offset 16
	.cfi_restore 12
        popq      %r12                                          #198.9
	.cfi_def_cfa_offset 8
        ret                                                     #198.9
	.cfi_def_cfa_offset 80
	.cfi_offset 3, -48
	.cfi_offset 6, -56
	.cfi_offset 12, -16
	.cfi_offset 13, -24
	.cfi_offset 14, -32
	.cfi_offset 15, -40
                                # LOE
..B14.6:                        # Preds ..B14.2                 # Infreq
        cmpl      $1, %ebx                                      #190.5
        je        ..B14.3       # Prob 16%                      #190.5
                                # LOE rbp ebx r12d r13d r14d
..B14.7:                        # Preds ..B14.6                 # Infreq
        movl      $1140850688, %edi                             #190.5
        lea       8(%rsp), %rsi                                 #190.5
..___tag_value__ZN8yaskSite8setBlockEiiib.299:
#       MPI_Comm_rank(MPI_Comm, int *)
        call      MPI_Comm_rank@PLT                             #190.5
..___tag_value__ZN8yaskSite8setBlockEiiib.300:
                                # LOE rbp eax ebx r12d r13d r14d
..B14.8:                        # Preds ..B14.7                 # Infreq
        testl     %eax, %eax                                    #190.5
        je        ..B14.10      # Prob 50%                      #190.5
                                # LOE rbp ebx r12d r13d r14d
..B14.9:                        # Preds ..B14.8                 # Infreq
        movl      $-1, 8(%rsp)                                  #190.5
        movq      stderr@GOTPCREL(%rip), %r15                   #190.5
        jmp       ..B14.13      # Prob 100%                     #190.5
                                # LOE rbp r15 r12d r13d r14d
..B14.10:                       # Preds ..B14.8                 # Infreq
        movl      8(%rsp), %r9d                                 #190.5
        testl     %r9d, %r9d                                    #190.5
        jne       ..B14.50      # Prob 50%                      #190.5
                                # LOE rbp ebx r9d r12d r13d r14d
..B14.11:                       # Preds ..B14.10                # Infreq
        lea       .L_2__STRING.1(%rip), %rsi                    #190.5
        movl      $47, %eax                                     #190.5
        movq      %rsi, %rdx                                    #190.5
        movq      %rdx, %rcx                                    #190.5
        movd      %eax, %xmm1                                   #190.5
        andq      $-16, %rdx                                    #190.5
        punpcklbw %xmm1, %xmm1                                  #190.5
        andl      $15, %ecx                                     #190.5
        punpcklbw %xmm1, %xmm1                                  #190.5
        pshufd    $0, %xmm1, %xmm1                              #190.5
        pxor      %xmm0, %xmm0                                  #190.5
        movdqa    (%rdx), %xmm2                                 #190.5
        pcmpeqb   %xmm2, %xmm0                                  #190.5
        pmovmskb  %xmm0, %r10d                                  #190.5
        pcmpeqb   %xmm1, %xmm2                                  #190.5
        shrl      %cl, %r10d                                    #190.5
        lea       -1(%r10), %rax                                #190.5
        xorl      %eax, %r10d                                   #190.5
        pmovmskb  %xmm2, %eax                                   #190.5
        shrl      %cl, %eax                                     #190.5
        andl      %r10d, %eax                                   #190.5
        je        ..L301        # Prob 60%                      #190.5
        bsr       %rax, %rax                                    #190.5
        addq      %rcx, %rax                                    #190.5
        addq      %rdx, %rax                                    #190.5
..L301:                                                         #
        orl       %r10d, %r10d                                  #190.5
        jg        ..L303        # Prob 60%                      #190.5
..L302:                                                         #
        call      __intel_sse2_strrchr@PLT                      #190.5
..L303:                                                         #
                                # LOE rax rbp rsi ebx r9d r12d r13d r14d
..B14.41:                       # Preds ..B14.11                # Infreq
        addq      $-32, %rsp                                    #190.5
	.cfi_def_cfa_offset 112
        testq     %rax, %rax                                    #190.5
        movq      stderr@GOTPCREL(%rip), %r15                   #190.5
        lea       1(%rax), %r8                                  #190.5
        lea       .L_2__STRING.49(%rip), %r10                   #190.5
        cmove     %rsi, %r8                                     #190.5
        lea       .L_2__STRING.0(%rip), %rsi                    #190.5
        movl      %r9d, %edx                                    #190.5
        movq      %r10, (%rsp)                                  #190.5
        lea       __$U3(%rip), %rcx                             #190.5
        movl      %ebx, 8(%rsp)                                 #190.5
        movl      $190, %r9d                                    #190.5
        movl      140(%rbp), %ebx                               #190.5
        xorl      %eax, %eax                                    #190.5
        movq      (%r15), %rdi                                  #190.5
        movl      %ebx, 16(%rsp)                                #190.5
#       fprintf(FILE *, const char *, ...)
        call      fprintf@PLT                                   #190.5
                                # LOE rbp r15 r12d r13d r14d
..B14.40:                       # Preds ..B14.41                # Infreq
        addq      $32, %rsp                                     #190.5
	.cfi_def_cfa_offset 80
                                # LOE rbp r15 r12d r13d r14d
..B14.12:                       # Preds ..B14.40                # Infreq
        movq      (%r15), %rdi                                  #190.5
#       fflush(FILE *)
        call      fflush@PLT                                    #190.5
                                # LOE rbp r15 r12d r13d r14d
..B14.13:                       # Preds ..B14.9 ..B14.12 ..B14.50 # Infreq
        movl      $10, %edi                                     #190.5
        movq      (%r15), %rsi                                  #190.5
        call      fputc@PLT                                     #190.5
                                # LOE rbp r15 r12d r13d r14d
..B14.14:                       # Preds ..B14.13                # Infreq
        movq      (%r15), %rdi                                  #190.5
#       fflush(FILE *)
        call      fflush@PLT                                    #190.5
                                # LOE rbp r12d r13d r14d
..B14.15:                       # Preds ..B14.14                # Infreq
        movl      $1, %ebx                                      #190.5
        jmp       ..B14.3       # Prob 100%                     #190.5
                                # LOE rbp ebx r12d r13d r14d
..B14.16:                       # Preds ..B14.1                 # Infreq
        cmpl      $1, %ebx                                      #190.5
        je        ..B14.26      # Prob 16%                      #190.5
                                # LOE rbp ebx r12d r13d r14d
..B14.17:                       # Preds ..B14.16                # Infreq
        movl      $1140850688, %edi                             #190.5
        lea       (%rsp), %rsi                                  #190.5
..___tag_value__ZN8yaskSite8setBlockEiiib.306:
#       MPI_Comm_rank(MPI_Comm, int *)
        call      MPI_Comm_rank@PLT                             #190.5
..___tag_value__ZN8yaskSite8setBlockEiiib.307:
                                # LOE rbp eax ebx r12d r13d r14d
..B14.18:                       # Preds ..B14.17                # Infreq
        testl     %eax, %eax                                    #190.5
        je        ..B14.20      # Prob 50%                      #190.5
                                # LOE rbp ebx r12d r13d r14d
..B14.19:                       # Preds ..B14.18                # Infreq
        movl      $-1, (%rsp)                                   #190.5
        movq      stderr@GOTPCREL(%rip), %r15                   #190.5
        jmp       ..B14.23      # Prob 100%                     #190.5
                                # LOE rbp r15 r12d r13d r14d
..B14.20:                       # Preds ..B14.18                # Infreq
        movl      (%rsp), %r9d                                  #190.5
        testl     %r9d, %r9d                                    #190.5
        jne       ..B14.49      # Prob 50%                      #190.5
                                # LOE rbp ebx r9d r12d r13d r14d
..B14.21:                       # Preds ..B14.20                # Infreq
        lea       .L_2__STRING.1(%rip), %rsi                    #190.5
        movl      $47, %eax                                     #190.5
        movq      %rsi, %rdx                                    #190.5
        movq      %rdx, %rcx                                    #190.5
        movd      %eax, %xmm1                                   #190.5
        andq      $-16, %rdx                                    #190.5
        punpcklbw %xmm1, %xmm1                                  #190.5
        andl      $15, %ecx                                     #190.5
        punpcklbw %xmm1, %xmm1                                  #190.5
        pshufd    $0, %xmm1, %xmm1                              #190.5
        pxor      %xmm0, %xmm0                                  #190.5
        movdqa    (%rdx), %xmm2                                 #190.5
        pcmpeqb   %xmm2, %xmm0                                  #190.5
        pmovmskb  %xmm0, %r10d                                  #190.5
        pcmpeqb   %xmm1, %xmm2                                  #190.5
        shrl      %cl, %r10d                                    #190.5
        lea       -1(%r10), %rax                                #190.5
        xorl      %eax, %r10d                                   #190.5
        pmovmskb  %xmm2, %eax                                   #190.5
        shrl      %cl, %eax                                     #190.5
        andl      %r10d, %eax                                   #190.5
        je        ..L308        # Prob 60%                      #190.5
        bsr       %rax, %rax                                    #190.5
        addq      %rcx, %rax                                    #190.5
        addq      %rdx, %rax                                    #190.5
..L308:                                                         #
        orl       %r10d, %r10d                                  #190.5
        jg        ..L310        # Prob 60%                      #190.5
..L309:                                                         #
        call      __intel_sse2_strrchr@PLT                      #190.5
..L310:                                                         #
                                # LOE rax rbp rsi ebx r9d r12d r13d r14d
..B14.44:                       # Preds ..B14.21                # Infreq
        addq      $-32, %rsp                                    #190.5
	.cfi_def_cfa_offset 112
        testq     %rax, %rax                                    #190.5
        movq      stderr@GOTPCREL(%rip), %r15                   #190.5
        lea       1(%rax), %r8                                  #190.5
        lea       .L_2__STRING.49(%rip), %r10                   #190.5
        cmove     %rsi, %r8                                     #190.5
        lea       .L_2__STRING.0(%rip), %rsi                    #190.5
        movl      %r9d, %edx                                    #190.5
        movq      %r10, (%rsp)                                  #190.5
        lea       __$U3(%rip), %rcx                             #190.5
        movl      %ebx, 8(%rsp)                                 #190.5
        movl      $190, %r9d                                    #190.5
        movl      140(%rbp), %ebx                               #190.5
        xorl      %eax, %eax                                    #190.5
        movq      (%r15), %rdi                                  #190.5
        movl      %ebx, 16(%rsp)                                #190.5
#       fprintf(FILE *, const char *, ...)
        call      fprintf@PLT                                   #190.5
                                # LOE rbp r15 r12d r13d r14d
..B14.43:                       # Preds ..B14.44                # Infreq
        addq      $32, %rsp                                     #190.5
	.cfi_def_cfa_offset 80
                                # LOE rbp r15 r12d r13d r14d
..B14.22:                       # Preds ..B14.43                # Infreq
        movq      (%r15), %rdi                                  #190.5
#       fflush(FILE *)
        call      fflush@PLT                                    #190.5
                                # LOE rbp r15 r12d r13d r14d
..B14.23:                       # Preds ..B14.19 ..B14.22 ..B14.49 # Infreq
        movl      $10, %edi                                     #190.5
        movq      (%r15), %rsi                                  #190.5
        call      fputc@PLT                                     #190.5
                                # LOE rbp r15 r12d r13d r14d
..B14.24:                       # Preds ..B14.23                # Infreq
        movq      (%r15), %rdi                                  #190.5
#       fflush(FILE *)
        call      fflush@PLT                                    #190.5
                                # LOE rbp r12d r13d r14d
..B14.25:                       # Preds ..B14.24                # Infreq
        movl      $1, %ebx                                      #190.5
                                # LOE rbp ebx r12d r13d r14d
..B14.26:                       # Preds ..B14.25 ..B14.16       # Infreq
        cmpl      $1, %r13d                                     #190.5
        je        ..B14.36      # Prob 16%                      #190.5
                                # LOE rbp ebx r12d r13d r14d
..B14.27:                       # Preds ..B14.26                # Infreq
        movl      $1140850688, %edi                             #190.5
        lea       4(%rsp), %rsi                                 #190.5
..___tag_value__ZN8yaskSite8setBlockEiiib.313:
#       MPI_Comm_rank(MPI_Comm, int *)
        call      MPI_Comm_rank@PLT                             #190.5
..___tag_value__ZN8yaskSite8setBlockEiiib.314:
                                # LOE rbp eax ebx r12d r14d
..B14.28:                       # Preds ..B14.27                # Infreq
        testl     %eax, %eax                                    #190.5
        je        ..B14.30      # Prob 50%                      #190.5
                                # LOE rbp ebx r12d r14d
..B14.29:                       # Preds ..B14.28                # Infreq
        movl      $-1, 4(%rsp)                                  #190.5
        movq      stderr@GOTPCREL(%rip), %r13                   #190.5
        jmp       ..B14.33      # Prob 100%                     #190.5
                                # LOE rbp r13 ebx r12d r14d
..B14.30:                       # Preds ..B14.28                # Infreq
        movl      4(%rsp), %r9d                                 #190.5
        testl     %r9d, %r9d                                    #190.5
        jne       ..B14.48      # Prob 50%                      #190.5
                                # LOE rbp ebx r9d r12d r14d
..B14.31:                       # Preds ..B14.30                # Infreq
        lea       .L_2__STRING.1(%rip), %rsi                    #190.5
        movl      $47, %eax                                     #190.5
        movq      %rsi, %rdx                                    #190.5
        movq      %rdx, %rcx                                    #190.5
        movd      %eax, %xmm1                                   #190.5
        andq      $-16, %rdx                                    #190.5
        punpcklbw %xmm1, %xmm1                                  #190.5
        andl      $15, %ecx                                     #190.5
        punpcklbw %xmm1, %xmm1                                  #190.5
        pshufd    $0, %xmm1, %xmm1                              #190.5
        pxor      %xmm0, %xmm0                                  #190.5
        movdqa    (%rdx), %xmm2                                 #190.5
        pcmpeqb   %xmm2, %xmm0                                  #190.5
        pmovmskb  %xmm0, %r10d                                  #190.5
        pcmpeqb   %xmm1, %xmm2                                  #190.5
        shrl      %cl, %r10d                                    #190.5
        lea       -1(%r10), %rax                                #190.5
        xorl      %eax, %r10d                                   #190.5
        pmovmskb  %xmm2, %eax                                   #190.5
        shrl      %cl, %eax                                     #190.5
        andl      %r10d, %eax                                   #190.5
        je        ..L315        # Prob 60%                      #190.5
        bsr       %rax, %rax                                    #190.5
        addq      %rcx, %rax                                    #190.5
        addq      %rdx, %rax                                    #190.5
..L315:                                                         #
        orl       %r10d, %r10d                                  #190.5
        jg        ..L317        # Prob 60%                      #190.5
..L316:                                                         #
        call      __intel_sse2_strrchr@PLT                      #190.5
..L317:                                                         #
                                # LOE rax rbp rsi ebx r9d r12d r14d
..B14.47:                       # Preds ..B14.31                # Infreq
        addq      $-32, %rsp                                    #190.5
	.cfi_def_cfa_offset 112
        testq     %rax, %rax                                    #190.5
        movq      stderr@GOTPCREL(%rip), %r13                   #190.5
        lea       1(%rax), %r8                                  #190.5
        movl      140(%rbp), %r11d                              #190.5
        cmove     %rsi, %r8                                     #190.5
        lea       .L_2__STRING.4(%rip), %rsi                    #190.5
        movl      %r9d, %edx                                    #190.5
        lea       __$U3(%rip), %rcx                             #190.5
        movl      $190, %r9d                                    #190.5
        xorl      %eax, %eax                                    #190.5
        lea       .L_2__STRING.49(%rip), %r10                   #190.5
        movq      %r10, (%rsp)                                  #190.5
        movl      %ebx, 8(%rsp)                                 #190.5
        movq      (%r13), %rdi                                  #190.5
        movl      %r11d, 16(%rsp)                               #190.5
#       fprintf(FILE *, const char *, ...)
        call      fprintf@PLT                                   #190.5
                                # LOE rbp r13 ebx r12d r14d
..B14.46:                       # Preds ..B14.47                # Infreq
        addq      $32, %rsp                                     #190.5
	.cfi_def_cfa_offset 80
                                # LOE rbp r13 ebx r12d r14d
..B14.32:                       # Preds ..B14.46                # Infreq
        movq      (%r13), %rdi                                  #190.5
#       fflush(FILE *)
        call      fflush@PLT                                    #190.5
                                # LOE rbp r13 ebx r12d r14d
..B14.33:                       # Preds ..B14.29 ..B14.32 ..B14.48 # Infreq
        movl      $10, %edi                                     #190.5
        movq      (%r13), %rsi                                  #190.5
        call      fputc@PLT                                     #190.5
                                # LOE rbp r13 ebx r12d r14d
..B14.34:                       # Preds ..B14.33                # Infreq
        movq      (%r13), %rdi                                  #190.5
#       fflush(FILE *)
        call      fflush@PLT                                    #190.5
                                # LOE rbp ebx r12d r14d
..B14.35:                       # Preds ..B14.34                # Infreq
        movl      140(%rbp), %eax                               #190.5
        movl      $1, %r13d                                     #190.5
        jmp       ..B14.2       # Prob 100%                     #190.5
                                # LOE rbp eax ebx r12d r13d r14d
..B14.36:                       # Preds ..B14.26                # Infreq
        movl      140(%rbp), %eax                               #190.5
        jmp       ..B14.2       # Prob 100%                     #190.5
                                # LOE rbp eax ebx r12d r13d r14d
..B14.48:                       # Preds ..B14.30                # Infreq
        movq      stderr@GOTPCREL(%rip), %r13                   #190.5
        jmp       ..B14.33      # Prob 100%                     #190.5
                                # LOE rbp r13 ebx r12d r14d
..B14.49:                       # Preds ..B14.20                # Infreq
        movq      stderr@GOTPCREL(%rip), %r15                   #190.5
        jmp       ..B14.23      # Prob 100%                     #190.5
                                # LOE rbp r15 r12d r13d r14d
..B14.50:                       # Preds ..B14.10                # Infreq
        movq      stderr@GOTPCREL(%rip), %r15                   #190.5
        jmp       ..B14.13      # Prob 100%                     #190.5
        .align    16,0x90
	.cfi_endproc
                                # LOE rbp r15 r12d r13d r14d
# mark_end;
	.type	_ZN8yaskSite8setBlockEiiib,@function
	.size	_ZN8yaskSite8setBlockEiiib,.-_ZN8yaskSite8setBlockEiiib
	.data
# -- End  _ZN8yaskSite8setBlockEiiib
	.text
# -- Begin  _ZN8yaskSite9setRegionEiiiib
	.text
# mark_begin;
       .align    16,0x90
	.globl _ZN8yaskSite9setRegionEiiiib
# --- yaskSite::setRegion(yaskSite *, int, int, int, int, bool)
_ZN8yaskSite9setRegionEiiiib:
# parameter 1: %rdi
# parameter 2: %esi
# parameter 3: %edx
# parameter 4: %ecx
# parameter 5: %r8d
# parameter 6: %r9d
..B15.1:                        # Preds ..B15.0

### {

	.cfi_startproc
	.cfi_personality 0x93,DW.ref.__gxx_personality_v0
..___tag_value__ZN8yaskSite9setRegionEiiiib.321:
..L322:
                                                        #203.1
        pushq     %r12                                          #203.1
	.cfi_def_cfa_offset 16
	.cfi_offset 12, -16
        pushq     %r13                                          #203.1
	.cfi_def_cfa_offset 24
	.cfi_offset 13, -24
        pushq     %r14                                          #203.1
	.cfi_def_cfa_offset 32
	.cfi_offset 14, -32
        pushq     %r15                                          #203.1
	.cfi_def_cfa_offset 40
	.cfi_offset 15, -40
        pushq     %rbx                                          #203.1
	.cfi_def_cfa_offset 48
	.cfi_offset 3, -48
        pushq     %rbp                                          #203.1
	.cfi_def_cfa_offset 56
	.cfi_offset 6, -56
        subq      $24, %rsp                                     #203.1
	.cfi_def_cfa_offset 80
        movq      %rdi, %rbx                                    #203.1
        movl      %r9d, %r15d                                   #203.1
        movl      %r8d, %r14d                                   #203.1
        movl      %ecx, %r13d                                   #203.1
        movl      %edx, %r12d                                   #203.1
        movl      %esi, %ebp                                    #203.1

###     SYNC_WITH_DIM(z, y, x, "region");

        movl      140(%rbx), %eax                               #204.5
        cmpl      $1, %eax                                      #204.5
        je        ..B15.17      # Prob 16%                      #204.5
                                # LOE rbx eax ebp r12d r13d r14d r15d
..B15.2:                        # Preds ..B15.36 ..B15.37 ..B15.1
        cmpl      $2, %eax                                      #204.5
        je        ..B15.7       # Prob 16%                      #204.5
                                # LOE rbx ebp r12d r13d r14d r15d
..B15.3:                        # Preds ..B15.16 ..B15.7 ..B15.2

###     rt=t;

        movl      %r14d, 100(%rbx)                              #205.5

###     rx=x;
###     ry=y;
###     rz=z;
###     regionUpdated = true;
### 
###     if(resetOthers)

        testb     %r15b, %r15b                                  #211.8
        movl      %r13d, 104(%rbx)                              #206.5
        movl      %r12d, 108(%rbx)                              #207.5
        movl      %ebp, 112(%rbx)                               #208.5
        movb      $1, 163(%rbx)                                 #209.5
        jne       ..B15.5       # Prob 5%                       #211.8
                                # LOE rbx
..B15.4:                        # Preds ..B15.3

###     {
###         setDefaultBlock();
###         setDefaultSubBlock();
###     }
### }

        addq      $24, %rsp                                     #216.1
	.cfi_def_cfa_offset 56
	.cfi_restore 6
        popq      %rbp                                          #216.1
	.cfi_def_cfa_offset 48
	.cfi_restore 3
        popq      %rbx                                          #216.1
	.cfi_def_cfa_offset 40
	.cfi_restore 15
        popq      %r15                                          #216.1
	.cfi_def_cfa_offset 32
	.cfi_restore 14
        popq      %r14                                          #216.1
	.cfi_def_cfa_offset 24
	.cfi_restore 13
        popq      %r13                                          #216.1
	.cfi_def_cfa_offset 16
	.cfi_restore 12
        popq      %r12                                          #216.1
	.cfi_def_cfa_offset 8
        ret                                                     #216.1
	.cfi_def_cfa_offset 80
	.cfi_offset 3, -48
	.cfi_offset 6, -56
	.cfi_offset 12, -16
	.cfi_offset 13, -24
	.cfi_offset 14, -32
	.cfi_offset 15, -40
                                # LOE
..B15.5:                        # Preds ..B15.3                 # Infreq
        movq      %rbx, %rdi                                    #213.9
..___tag_value__ZN8yaskSite9setRegionEiiiib.356:
#       yaskSite::setDefaultBlock(yaskSite *)
        call      _ZN8yaskSite15setDefaultBlockEv@PLT           #213.9
..___tag_value__ZN8yaskSite9setRegionEiiiib.357:
                                # LOE rbx
..B15.6:                        # Preds ..B15.5                 # Infreq
        movq      %rbx, %rdi                                    #214.9
..___tag_value__ZN8yaskSite9setRegionEiiiib.358:
#       yaskSite::setDefaultSubBlock(yaskSite *)
        call      _ZN8yaskSite18setDefaultSubBlockEv@PLT        #214.9
..___tag_value__ZN8yaskSite9setRegionEiiiib.359:
        addq      $24, %rsp                                     #214.9
	.cfi_def_cfa_offset 56
	.cfi_restore 6
        popq      %rbp                                          #214.9
	.cfi_def_cfa_offset 48
	.cfi_restore 3
        popq      %rbx                                          #214.9
	.cfi_def_cfa_offset 40
	.cfi_restore 15
        popq      %r15                                          #214.9
	.cfi_def_cfa_offset 32
	.cfi_restore 14
        popq      %r14                                          #214.9
	.cfi_def_cfa_offset 24
	.cfi_restore 13
        popq      %r13                                          #214.9
	.cfi_def_cfa_offset 16
	.cfi_restore 12
        popq      %r12                                          #214.9
	.cfi_def_cfa_offset 8
        ret                                                     #214.9
	.cfi_def_cfa_offset 80
	.cfi_offset 3, -48
	.cfi_offset 6, -56
	.cfi_offset 12, -16
	.cfi_offset 13, -24
	.cfi_offset 14, -32
	.cfi_offset 15, -40
                                # LOE
..B15.7:                        # Preds ..B15.2                 # Infreq
        cmpl      $1, %r13d                                     #204.5
        je        ..B15.3       # Prob 16%                      #204.5
                                # LOE rbx ebp r12d r13d r14d r15d
..B15.8:                        # Preds ..B15.7                 # Infreq
        movl      $1140850688, %edi                             #204.5
        lea       16(%rsp), %rsi                                #204.5
..___tag_value__ZN8yaskSite9setRegionEiiiib.380:
#       MPI_Comm_rank(MPI_Comm, int *)
        call      MPI_Comm_rank@PLT                             #204.5
..___tag_value__ZN8yaskSite9setRegionEiiiib.381:
                                # LOE rbx eax ebp r12d r13d r14d r15d
..B15.9:                        # Preds ..B15.8                 # Infreq
        testl     %eax, %eax                                    #204.5
        je        ..B15.11      # Prob 50%                      #204.5
                                # LOE rbx ebp r12d r13d r14d r15d
..B15.10:                       # Preds ..B15.9                 # Infreq
        movq      stderr@GOTPCREL(%rip), %rax                   #204.5
        movl      $-1, 16(%rsp)                                 #204.5
        movq      %rax, (%rsp)                                  #204.5
        jmp       ..B15.14      # Prob 100%                     #204.5
                                # LOE rbx ebp r12d r14d r15d
..B15.11:                       # Preds ..B15.9                 # Infreq
        movl      16(%rsp), %r9d                                #204.5
        testl     %r9d, %r9d                                    #204.5
        jne       ..B15.51      # Prob 50%                      #204.5
                                # LOE rbx ebp r9d r12d r13d r14d r15d
..B15.12:                       # Preds ..B15.11                # Infreq
        lea       .L_2__STRING.1(%rip), %rsi                    #204.5
        movl      $47, %eax                                     #204.5
        movq      %rsi, %rdx                                    #204.5
        movq      %rdx, %rcx                                    #204.5
        movd      %eax, %xmm1                                   #204.5
        andq      $-16, %rdx                                    #204.5
        punpcklbw %xmm1, %xmm1                                  #204.5
        andl      $15, %ecx                                     #204.5
        punpcklbw %xmm1, %xmm1                                  #204.5
        pshufd    $0, %xmm1, %xmm1                              #204.5
        pxor      %xmm0, %xmm0                                  #204.5
        movdqa    (%rdx), %xmm2                                 #204.5
        pcmpeqb   %xmm2, %xmm0                                  #204.5
        pmovmskb  %xmm0, %r10d                                  #204.5
        pcmpeqb   %xmm1, %xmm2                                  #204.5
        shrl      %cl, %r10d                                    #204.5
        lea       -1(%r10), %rax                                #204.5
        xorl      %eax, %r10d                                   #204.5
        pmovmskb  %xmm2, %eax                                   #204.5
        shrl      %cl, %eax                                     #204.5
        andl      %r10d, %eax                                   #204.5
        je        ..L382        # Prob 60%                      #204.5
        bsr       %rax, %rax                                    #204.5
        addq      %rcx, %rax                                    #204.5
        addq      %rdx, %rax                                    #204.5
..L382:                                                         #
        orl       %r10d, %r10d                                  #204.5
        jg        ..L384        # Prob 60%                      #204.5
..L383:                                                         #
        call      __intel_sse2_strrchr@PLT                      #204.5
..L384:                                                         #
                                # LOE rax rbx rsi ebp r9d r12d r13d r14d r15d
..B15.42:                       # Preds ..B15.12                # Infreq
        addq      $-32, %rsp                                    #204.5
	.cfi_def_cfa_offset 112
        testq     %rax, %rax                                    #204.5
        movq      stderr@GOTPCREL(%rip), %r11                   #204.5
        lea       1(%rax), %r8                                  #204.5
        movq      %r11, 32(%rsp)                                #204.5
        lea       .L_2__STRING.50(%rip), %r10                   #204.5
        cmove     %rsi, %r8                                     #204.5
        lea       .L_2__STRING.0(%rip), %rsi                    #204.5
        movq      %r10, (%rsp)                                  #204.5
        movl      %r9d, %edx                                    #204.5
        movl      %r13d, 8(%rsp)                                #204.5
        lea       __$U4(%rip), %rcx                             #204.5
        movl      140(%rbx), %r13d                              #204.5
        movl      $204, %r9d                                    #204.5
        xorl      %eax, %eax                                    #204.5
        movq      (%r11), %rdi                                  #204.5
        movl      %r13d, 16(%rsp)                               #204.5
#       fprintf(FILE *, const char *, ...)
        call      fprintf@PLT                                   #204.5
                                # LOE rbx ebp r12d r14d r15d
..B15.41:                       # Preds ..B15.42                # Infreq
        addq      $32, %rsp                                     #204.5
	.cfi_def_cfa_offset 80
                                # LOE rbx ebp r12d r14d r15d
..B15.13:                       # Preds ..B15.41                # Infreq
        movq      (%rsp), %rax                                  #204.5
        movq      (%rax), %rdi                                  #204.5
#       fflush(FILE *)
        call      fflush@PLT                                    #204.5
                                # LOE rbx ebp r12d r14d r15d
..B15.14:                       # Preds ..B15.10 ..B15.13 ..B15.51 # Infreq
        movq      (%rsp), %rax                                  #204.5
        movl      $10, %edi                                     #204.5
        movq      (%rax), %rsi                                  #204.5
        call      fputc@PLT                                     #204.5
                                # LOE rbx ebp r12d r14d r15d
..B15.15:                       # Preds ..B15.14                # Infreq
        movq      (%rsp), %rax                                  #204.5
        movq      (%rax), %rdi                                  #204.5
#       fflush(FILE *)
        call      fflush@PLT                                    #204.5
                                # LOE rbx ebp r12d r14d r15d
..B15.16:                       # Preds ..B15.15                # Infreq
        movl      $1, %r13d                                     #204.5
        jmp       ..B15.3       # Prob 100%                     #204.5
                                # LOE rbx ebp r12d r13d r14d r15d
..B15.17:                       # Preds ..B15.1                 # Infreq
        cmpl      $1, %r13d                                     #204.5
        je        ..B15.27      # Prob 16%                      #204.5
                                # LOE rbx ebp r12d r13d r14d r15d
..B15.18:                       # Preds ..B15.17                # Infreq
        movl      $1140850688, %edi                             #204.5
        lea       8(%rsp), %rsi                                 #204.5
..___tag_value__ZN8yaskSite9setRegionEiiiib.387:
#       MPI_Comm_rank(MPI_Comm, int *)
        call      MPI_Comm_rank@PLT                             #204.5
..___tag_value__ZN8yaskSite9setRegionEiiiib.388:
                                # LOE rbx eax ebp r12d r13d r14d r15d
..B15.19:                       # Preds ..B15.18                # Infreq
        testl     %eax, %eax                                    #204.5
        je        ..B15.21      # Prob 50%                      #204.5
                                # LOE rbx ebp r12d r13d r14d r15d
..B15.20:                       # Preds ..B15.19                # Infreq
        movq      stderr@GOTPCREL(%rip), %rax                   #204.5
        movl      $-1, 8(%rsp)                                  #204.5
        movq      %rax, (%rsp)                                  #204.5
        jmp       ..B15.24      # Prob 100%                     #204.5
                                # LOE rbx ebp r12d r14d r15d
..B15.21:                       # Preds ..B15.19                # Infreq
        movl      8(%rsp), %r9d                                 #204.5
        testl     %r9d, %r9d                                    #204.5
        jne       ..B15.50      # Prob 50%                      #204.5
                                # LOE rbx ebp r9d r12d r13d r14d r15d
..B15.22:                       # Preds ..B15.21                # Infreq
        lea       .L_2__STRING.1(%rip), %rsi                    #204.5
        movl      $47, %eax                                     #204.5
        movq      %rsi, %rdx                                    #204.5
        movq      %rdx, %rcx                                    #204.5
        movd      %eax, %xmm1                                   #204.5
        andq      $-16, %rdx                                    #204.5
        punpcklbw %xmm1, %xmm1                                  #204.5
        andl      $15, %ecx                                     #204.5
        punpcklbw %xmm1, %xmm1                                  #204.5
        pshufd    $0, %xmm1, %xmm1                              #204.5
        pxor      %xmm0, %xmm0                                  #204.5
        movdqa    (%rdx), %xmm2                                 #204.5
        pcmpeqb   %xmm2, %xmm0                                  #204.5
        pmovmskb  %xmm0, %r10d                                  #204.5
        pcmpeqb   %xmm1, %xmm2                                  #204.5
        shrl      %cl, %r10d                                    #204.5
        lea       -1(%r10), %rax                                #204.5
        xorl      %eax, %r10d                                   #204.5
        pmovmskb  %xmm2, %eax                                   #204.5
        shrl      %cl, %eax                                     #204.5
        andl      %r10d, %eax                                   #204.5
        je        ..L389        # Prob 60%                      #204.5
        bsr       %rax, %rax                                    #204.5
        addq      %rcx, %rax                                    #204.5
        addq      %rdx, %rax                                    #204.5
..L389:                                                         #
        orl       %r10d, %r10d                                  #204.5
        jg        ..L391        # Prob 60%                      #204.5
..L390:                                                         #
        call      __intel_sse2_strrchr@PLT                      #204.5
..L391:                                                         #
                                # LOE rax rbx rsi ebp r9d r12d r13d r14d r15d
..B15.45:                       # Preds ..B15.22                # Infreq
        addq      $-32, %rsp                                    #204.5
	.cfi_def_cfa_offset 112
        testq     %rax, %rax                                    #204.5
        movq      stderr@GOTPCREL(%rip), %r11                   #204.5
        lea       1(%rax), %r8                                  #204.5
        movq      %r11, 32(%rsp)                                #204.5
        lea       .L_2__STRING.50(%rip), %r10                   #204.5
        cmove     %rsi, %r8                                     #204.5
        lea       .L_2__STRING.0(%rip), %rsi                    #204.5
        movq      %r10, (%rsp)                                  #204.5
        movl      %r9d, %edx                                    #204.5
        movl      %r13d, 8(%rsp)                                #204.5
        lea       __$U4(%rip), %rcx                             #204.5
        movl      140(%rbx), %r13d                              #204.5
        movl      $204, %r9d                                    #204.5
        xorl      %eax, %eax                                    #204.5
        movq      (%r11), %rdi                                  #204.5
        movl      %r13d, 16(%rsp)                               #204.5
#       fprintf(FILE *, const char *, ...)
        call      fprintf@PLT                                   #204.5
                                # LOE rbx ebp r12d r14d r15d
..B15.44:                       # Preds ..B15.45                # Infreq
        addq      $32, %rsp                                     #204.5
	.cfi_def_cfa_offset 80
                                # LOE rbx ebp r12d r14d r15d
..B15.23:                       # Preds ..B15.44                # Infreq
        movq      (%rsp), %rax                                  #204.5
        movq      (%rax), %rdi                                  #204.5
#       fflush(FILE *)
        call      fflush@PLT                                    #204.5
                                # LOE rbx ebp r12d r14d r15d
..B15.24:                       # Preds ..B15.20 ..B15.23 ..B15.50 # Infreq
        movq      (%rsp), %rax                                  #204.5
        movl      $10, %edi                                     #204.5
        movq      (%rax), %rsi                                  #204.5
        call      fputc@PLT                                     #204.5
                                # LOE rbx ebp r12d r14d r15d
..B15.25:                       # Preds ..B15.24                # Infreq
        movq      (%rsp), %rax                                  #204.5
        movq      (%rax), %rdi                                  #204.5
#       fflush(FILE *)
        call      fflush@PLT                                    #204.5
                                # LOE rbx ebp r12d r14d r15d
..B15.26:                       # Preds ..B15.25                # Infreq
        movl      $1, %r13d                                     #204.5
                                # LOE rbx ebp r12d r13d r14d r15d
..B15.27:                       # Preds ..B15.26 ..B15.17       # Infreq
        cmpl      $1, %r12d                                     #204.5
        je        ..B15.37      # Prob 16%                      #204.5
                                # LOE rbx ebp r12d r13d r14d r15d
..B15.28:                       # Preds ..B15.27                # Infreq
        movl      $1140850688, %edi                             #204.5
        lea       12(%rsp), %rsi                                #204.5
..___tag_value__ZN8yaskSite9setRegionEiiiib.394:
#       MPI_Comm_rank(MPI_Comm, int *)
        call      MPI_Comm_rank@PLT                             #204.5
..___tag_value__ZN8yaskSite9setRegionEiiiib.395:
                                # LOE rbx eax ebp r13d r14d r15d
..B15.29:                       # Preds ..B15.28                # Infreq
        testl     %eax, %eax                                    #204.5
        je        ..B15.31      # Prob 50%                      #204.5
                                # LOE rbx ebp r13d r14d r15d
..B15.30:                       # Preds ..B15.29                # Infreq
        movl      $-1, 12(%rsp)                                 #204.5
        movq      stderr@GOTPCREL(%rip), %r12                   #204.5
        jmp       ..B15.34      # Prob 100%                     #204.5
                                # LOE rbx r12 ebp r13d r14d r15d
..B15.31:                       # Preds ..B15.29                # Infreq
        movl      12(%rsp), %r9d                                #204.5
        testl     %r9d, %r9d                                    #204.5
        jne       ..B15.49      # Prob 50%                      #204.5
                                # LOE rbx ebp r9d r13d r14d r15d
..B15.32:                       # Preds ..B15.31                # Infreq
        lea       .L_2__STRING.1(%rip), %rsi                    #204.5
        movl      $47, %eax                                     #204.5
        movq      %rsi, %rdx                                    #204.5
        movq      %rdx, %rcx                                    #204.5
        movd      %eax, %xmm1                                   #204.5
        andq      $-16, %rdx                                    #204.5
        punpcklbw %xmm1, %xmm1                                  #204.5
        andl      $15, %ecx                                     #204.5
        punpcklbw %xmm1, %xmm1                                  #204.5
        pshufd    $0, %xmm1, %xmm1                              #204.5
        pxor      %xmm0, %xmm0                                  #204.5
        movdqa    (%rdx), %xmm2                                 #204.5
        pcmpeqb   %xmm2, %xmm0                                  #204.5
        pmovmskb  %xmm0, %r10d                                  #204.5
        pcmpeqb   %xmm1, %xmm2                                  #204.5
        shrl      %cl, %r10d                                    #204.5
        lea       -1(%r10), %rax                                #204.5
        xorl      %eax, %r10d                                   #204.5
        pmovmskb  %xmm2, %eax                                   #204.5
        shrl      %cl, %eax                                     #204.5
        andl      %r10d, %eax                                   #204.5
        je        ..L396        # Prob 60%                      #204.5
        bsr       %rax, %rax                                    #204.5
        addq      %rcx, %rax                                    #204.5
        addq      %rdx, %rax                                    #204.5
..L396:                                                         #
        orl       %r10d, %r10d                                  #204.5
        jg        ..L398        # Prob 60%                      #204.5
..L397:                                                         #
        call      __intel_sse2_strrchr@PLT                      #204.5
..L398:                                                         #
                                # LOE rax rbx rsi ebp r9d r13d r14d r15d
..B15.48:                       # Preds ..B15.32                # Infreq
        addq      $-32, %rsp                                    #204.5
	.cfi_def_cfa_offset 112
        testq     %rax, %rax                                    #204.5
        movq      stderr@GOTPCREL(%rip), %r12                   #204.5
        lea       1(%rax), %r8                                  #204.5
        movl      140(%rbx), %r11d                              #204.5
        cmove     %rsi, %r8                                     #204.5
        lea       .L_2__STRING.4(%rip), %rsi                    #204.5
        movl      %r9d, %edx                                    #204.5
        lea       __$U4(%rip), %rcx                             #204.5
        movl      $204, %r9d                                    #204.5
        xorl      %eax, %eax                                    #204.5
        lea       .L_2__STRING.50(%rip), %r10                   #204.5
        movq      %r10, (%rsp)                                  #204.5
        movl      %r13d, 8(%rsp)                                #204.5
        movq      (%r12), %rdi                                  #204.5
        movl      %r11d, 16(%rsp)                               #204.5
#       fprintf(FILE *, const char *, ...)
        call      fprintf@PLT                                   #204.5
                                # LOE rbx r12 ebp r13d r14d r15d
..B15.47:                       # Preds ..B15.48                # Infreq
        addq      $32, %rsp                                     #204.5
	.cfi_def_cfa_offset 80
                                # LOE rbx r12 ebp r13d r14d r15d
..B15.33:                       # Preds ..B15.47                # Infreq
        movq      (%r12), %rdi                                  #204.5
#       fflush(FILE *)
        call      fflush@PLT                                    #204.5
                                # LOE rbx r12 ebp r13d r14d r15d
..B15.34:                       # Preds ..B15.30 ..B15.33 ..B15.49 # Infreq
        movl      $10, %edi                                     #204.5
        movq      (%r12), %rsi                                  #204.5
        call      fputc@PLT                                     #204.5
                                # LOE rbx r12 ebp r13d r14d r15d
..B15.35:                       # Preds ..B15.34                # Infreq
        movq      (%r12), %rdi                                  #204.5
#       fflush(FILE *)
        call      fflush@PLT                                    #204.5
                                # LOE rbx ebp r13d r14d r15d
..B15.36:                       # Preds ..B15.35                # Infreq
        movl      140(%rbx), %eax                               #204.5
        movl      $1, %r12d                                     #204.5
        jmp       ..B15.2       # Prob 100%                     #204.5
                                # LOE rbx eax ebp r12d r13d r14d r15d
..B15.37:                       # Preds ..B15.27                # Infreq
        movl      140(%rbx), %eax                               #204.5
        jmp       ..B15.2       # Prob 100%                     #204.5
                                # LOE rbx eax ebp r12d r13d r14d r15d
..B15.49:                       # Preds ..B15.31                # Infreq
        movq      stderr@GOTPCREL(%rip), %r12                   #204.5
        jmp       ..B15.34      # Prob 100%                     #204.5
                                # LOE rbx r12 ebp r13d r14d r15d
..B15.50:                       # Preds ..B15.21                # Infreq
        movq      stderr@GOTPCREL(%rip), %rax                   #204.5
        movq      %rax, (%rsp)                                  #204.5
        jmp       ..B15.24      # Prob 100%                     #204.5
                                # LOE rbx ebp r12d r14d r15d
..B15.51:                       # Preds ..B15.11                # Infreq
        movq      stderr@GOTPCREL(%rip), %rax                   #204.5
        movq      %rax, (%rsp)                                  #204.5
        jmp       ..B15.14      # Prob 100%                     #204.5
        .align    16,0x90
	.cfi_endproc
                                # LOE rbx ebp r12d r14d r15d
# mark_end;
	.type	_ZN8yaskSite9setRegionEiiiib,@function
	.size	_ZN8yaskSite9setRegionEiiiib,.-_ZN8yaskSite9setRegionEiiiib
	.data
# -- End  _ZN8yaskSite9setRegionEiiiib
	.text
# -- Begin  _ZN8yaskSite6setDimEiiiib
	.text
# mark_begin;
       .align    16,0x90
	.globl _ZN8yaskSite6setDimEiiiib
# --- yaskSite::setDim(yaskSite *, int, int, int, int, bool)
_ZN8yaskSite6setDimEiiiib:
# parameter 1: %rdi
# parameter 2: %esi
# parameter 3: %edx
# parameter 4: %ecx
# parameter 5: %r8d
# parameter 6: %r9d
..B16.1:                        # Preds ..B16.0

### {

	.cfi_startproc
	.cfi_personality 0x93,DW.ref.__gxx_personality_v0
..___tag_value__ZN8yaskSite6setDimEiiiib.402:
..L403:
                                                        #219.1
        pushq     %r12                                          #219.1
	.cfi_def_cfa_offset 16
	.cfi_offset 12, -16
        pushq     %r13                                          #219.1
	.cfi_def_cfa_offset 24
	.cfi_offset 13, -24
        pushq     %r14                                          #219.1
	.cfi_def_cfa_offset 32
	.cfi_offset 14, -32
        pushq     %r15                                          #219.1
	.cfi_def_cfa_offset 40
	.cfi_offset 15, -40
        pushq     %rbx                                          #219.1
	.cfi_def_cfa_offset 48
	.cfi_offset 3, -48
        pushq     %rbp                                          #219.1
	.cfi_def_cfa_offset 56
	.cfi_offset 6, -56
        subq      $24, %rsp                                     #219.1
	.cfi_def_cfa_offset 80
        movq      %rdi, %rbx                                    #219.1
        movl      %r9d, %r15d                                   #219.1
        movl      %r8d, %r14d                                   #219.1
        movl      %ecx, %r13d                                   #219.1
        movl      %edx, %r12d                                   #219.1
        movl      %esi, %ebp                                    #219.1

###     SYNC_WITH_DIM(z, y, x, "dim");

        movl      140(%rbx), %eax                               #220.5
        cmpl      $1, %eax                                      #220.5
        je        ..B16.18      # Prob 16%                      #220.5
                                # LOE rbx eax ebp r12d r13d r14d r15d
..B16.2:                        # Preds ..B16.37 ..B16.38 ..B16.1
        cmpl      $2, %eax                                      #220.5
        je        ..B16.8       # Prob 16%                      #220.5
                                # LOE rbx ebp r12d r13d r14d r15d
..B16.3:                        # Preds ..B16.17 ..B16.8 ..B16.2

###     dt=t;

        movl      %r14d, 116(%rbx)                              #221.5

###     dx=x;
###     dy=y;
###     dz=z;
### 
###     if(resetOthers)

        testb     %r15b, %r15b                                  #226.8
        movl      %r13d, 120(%rbx)                              #222.5
        movl      %r12d, 124(%rbx)                              #223.5
        movl      %ebp, 128(%rbx)                               #224.5
        jne       ..B16.5       # Prob 5%                       #226.8
                                # LOE rbx
..B16.4:                        # Preds ..B16.7 ..B16.3

###     {
###         setDefaultRegion();
###         setDefaultBlock();
###         setDefaultSubBlock();
###     }
### 
###     dimUpdated = true;

        movb      $1, 164(%rbx)                                 #233.5

### }

        addq      $24, %rsp                                     #234.1
	.cfi_def_cfa_offset 56
	.cfi_restore 6
        popq      %rbp                                          #234.1
	.cfi_def_cfa_offset 48
	.cfi_restore 3
        popq      %rbx                                          #234.1
	.cfi_def_cfa_offset 40
	.cfi_restore 15
        popq      %r15                                          #234.1
	.cfi_def_cfa_offset 32
	.cfi_restore 14
        popq      %r14                                          #234.1
	.cfi_def_cfa_offset 24
	.cfi_restore 13
        popq      %r13                                          #234.1
	.cfi_def_cfa_offset 16
	.cfi_restore 12
        popq      %r12                                          #234.1
	.cfi_def_cfa_offset 8
        ret                                                     #234.1
	.cfi_def_cfa_offset 80
	.cfi_offset 3, -48
	.cfi_offset 6, -56
	.cfi_offset 12, -16
	.cfi_offset 13, -24
	.cfi_offset 14, -32
	.cfi_offset 15, -40
                                # LOE
..B16.5:                        # Preds ..B16.3                 # Infreq
        movq      %rbx, %rdi                                    #228.9
..___tag_value__ZN8yaskSite6setDimEiiiib.437:
#       yaskSite::setDefaultRegion(yaskSite *)
        call      _ZN8yaskSite16setDefaultRegionEv@PLT          #228.9
..___tag_value__ZN8yaskSite6setDimEiiiib.438:
                                # LOE rbx
..B16.6:                        # Preds ..B16.5                 # Infreq
        movq      %rbx, %rdi                                    #229.9
..___tag_value__ZN8yaskSite6setDimEiiiib.439:
#       yaskSite::setDefaultBlock(yaskSite *)
        call      _ZN8yaskSite15setDefaultBlockEv@PLT           #229.9
..___tag_value__ZN8yaskSite6setDimEiiiib.440:
                                # LOE rbx
..B16.7:                        # Preds ..B16.6                 # Infreq
        movq      %rbx, %rdi                                    #230.9
..___tag_value__ZN8yaskSite6setDimEiiiib.441:
#       yaskSite::setDefaultSubBlock(yaskSite *)
        call      _ZN8yaskSite18setDefaultSubBlockEv@PLT        #230.9
..___tag_value__ZN8yaskSite6setDimEiiiib.442:
        jmp       ..B16.4       # Prob 100%                     #230.9
                                # LOE rbx
..B16.8:                        # Preds ..B16.2                 # Infreq
        cmpl      $1, %r13d                                     #220.5
        je        ..B16.3       # Prob 16%                      #220.5
                                # LOE rbx ebp r12d r13d r14d r15d
..B16.9:                        # Preds ..B16.8                 # Infreq
        movl      $1140850688, %edi                             #220.5
        lea       16(%rsp), %rsi                                #220.5
..___tag_value__ZN8yaskSite6setDimEiiiib.443:
#       MPI_Comm_rank(MPI_Comm, int *)
        call      MPI_Comm_rank@PLT                             #220.5
..___tag_value__ZN8yaskSite6setDimEiiiib.444:
                                # LOE rbx eax ebp r12d r13d r14d r15d
..B16.10:                       # Preds ..B16.9                 # Infreq
        testl     %eax, %eax                                    #220.5
        je        ..B16.12      # Prob 50%                      #220.5
                                # LOE rbx ebp r12d r13d r14d r15d
..B16.11:                       # Preds ..B16.10                # Infreq
        movq      stderr@GOTPCREL(%rip), %rax                   #220.5
        movl      $-1, 16(%rsp)                                 #220.5
        movq      %rax, (%rsp)                                  #220.5
        jmp       ..B16.15      # Prob 100%                     #220.5
                                # LOE rbx ebp r12d r14d r15d
..B16.12:                       # Preds ..B16.10                # Infreq
        movl      16(%rsp), %r9d                                #220.5
        testl     %r9d, %r9d                                    #220.5
        jne       ..B16.52      # Prob 50%                      #220.5
                                # LOE rbx ebp r9d r12d r13d r14d r15d
..B16.13:                       # Preds ..B16.12                # Infreq
        lea       .L_2__STRING.1(%rip), %rsi                    #220.5
        movl      $47, %eax                                     #220.5
        movq      %rsi, %rdx                                    #220.5
        movq      %rdx, %rcx                                    #220.5
        movd      %eax, %xmm1                                   #220.5
        andq      $-16, %rdx                                    #220.5
        punpcklbw %xmm1, %xmm1                                  #220.5
        andl      $15, %ecx                                     #220.5
        punpcklbw %xmm1, %xmm1                                  #220.5
        pshufd    $0, %xmm1, %xmm1                              #220.5
        pxor      %xmm0, %xmm0                                  #220.5
        movdqa    (%rdx), %xmm2                                 #220.5
        pcmpeqb   %xmm2, %xmm0                                  #220.5
        pmovmskb  %xmm0, %r10d                                  #220.5
        pcmpeqb   %xmm1, %xmm2                                  #220.5
        shrl      %cl, %r10d                                    #220.5
        lea       -1(%r10), %rax                                #220.5
        xorl      %eax, %r10d                                   #220.5
        pmovmskb  %xmm2, %eax                                   #220.5
        shrl      %cl, %eax                                     #220.5
        andl      %r10d, %eax                                   #220.5
        je        ..L445        # Prob 60%                      #220.5
        bsr       %rax, %rax                                    #220.5
        addq      %rcx, %rax                                    #220.5
        addq      %rdx, %rax                                    #220.5
..L445:                                                         #
        orl       %r10d, %r10d                                  #220.5
        jg        ..L447        # Prob 60%                      #220.5
..L446:                                                         #
        call      __intel_sse2_strrchr@PLT                      #220.5
..L447:                                                         #
                                # LOE rax rbx rsi ebp r9d r12d r13d r14d r15d
..B16.43:                       # Preds ..B16.13                # Infreq
        addq      $-32, %rsp                                    #220.5
	.cfi_def_cfa_offset 112
        testq     %rax, %rax                                    #220.5
        movq      stderr@GOTPCREL(%rip), %r11                   #220.5
        lea       1(%rax), %r8                                  #220.5
        movq      %r11, 32(%rsp)                                #220.5
        lea       .L_2__STRING.51(%rip), %r10                   #220.5
        cmove     %rsi, %r8                                     #220.5
        lea       .L_2__STRING.0(%rip), %rsi                    #220.5
        movq      %r10, (%rsp)                                  #220.5
        movl      %r9d, %edx                                    #220.5
        movl      %r13d, 8(%rsp)                                #220.5
        lea       __$U5(%rip), %rcx                             #220.5
        movl      140(%rbx), %r13d                              #220.5
        movl      $220, %r9d                                    #220.5
        xorl      %eax, %eax                                    #220.5
        movq      (%r11), %rdi                                  #220.5
        movl      %r13d, 16(%rsp)                               #220.5
#       fprintf(FILE *, const char *, ...)
        call      fprintf@PLT                                   #220.5
                                # LOE rbx ebp r12d r14d r15d
..B16.42:                       # Preds ..B16.43                # Infreq
        addq      $32, %rsp                                     #220.5
	.cfi_def_cfa_offset 80
                                # LOE rbx ebp r12d r14d r15d
..B16.14:                       # Preds ..B16.42                # Infreq
        movq      (%rsp), %rax                                  #220.5
        movq      (%rax), %rdi                                  #220.5
#       fflush(FILE *)
        call      fflush@PLT                                    #220.5
                                # LOE rbx ebp r12d r14d r15d
..B16.15:                       # Preds ..B16.11 ..B16.14 ..B16.52 # Infreq
        movq      (%rsp), %rax                                  #220.5
        movl      $10, %edi                                     #220.5
        movq      (%rax), %rsi                                  #220.5
        call      fputc@PLT                                     #220.5
                                # LOE rbx ebp r12d r14d r15d
..B16.16:                       # Preds ..B16.15                # Infreq
        movq      (%rsp), %rax                                  #220.5
        movq      (%rax), %rdi                                  #220.5
#       fflush(FILE *)
        call      fflush@PLT                                    #220.5
                                # LOE rbx ebp r12d r14d r15d
..B16.17:                       # Preds ..B16.16                # Infreq
        movl      $1, %r13d                                     #220.5
        jmp       ..B16.3       # Prob 100%                     #220.5
                                # LOE rbx ebp r12d r13d r14d r15d
..B16.18:                       # Preds ..B16.1                 # Infreq
        cmpl      $1, %r13d                                     #220.5
        je        ..B16.28      # Prob 16%                      #220.5
                                # LOE rbx ebp r12d r13d r14d r15d
..B16.19:                       # Preds ..B16.18                # Infreq
        movl      $1140850688, %edi                             #220.5
        lea       8(%rsp), %rsi                                 #220.5
..___tag_value__ZN8yaskSite6setDimEiiiib.450:
#       MPI_Comm_rank(MPI_Comm, int *)
        call      MPI_Comm_rank@PLT                             #220.5
..___tag_value__ZN8yaskSite6setDimEiiiib.451:
                                # LOE rbx eax ebp r12d r13d r14d r15d
..B16.20:                       # Preds ..B16.19                # Infreq
        testl     %eax, %eax                                    #220.5
        je        ..B16.22      # Prob 50%                      #220.5
                                # LOE rbx ebp r12d r13d r14d r15d
..B16.21:                       # Preds ..B16.20                # Infreq
        movq      stderr@GOTPCREL(%rip), %rax                   #220.5
        movl      $-1, 8(%rsp)                                  #220.5
        movq      %rax, (%rsp)                                  #220.5
        jmp       ..B16.25      # Prob 100%                     #220.5
                                # LOE rbx ebp r12d r14d r15d
..B16.22:                       # Preds ..B16.20                # Infreq
        movl      8(%rsp), %r9d                                 #220.5
        testl     %r9d, %r9d                                    #220.5
        jne       ..B16.51      # Prob 50%                      #220.5
                                # LOE rbx ebp r9d r12d r13d r14d r15d
..B16.23:                       # Preds ..B16.22                # Infreq
        lea       .L_2__STRING.1(%rip), %rsi                    #220.5
        movl      $47, %eax                                     #220.5
        movq      %rsi, %rdx                                    #220.5
        movq      %rdx, %rcx                                    #220.5
        movd      %eax, %xmm1                                   #220.5
        andq      $-16, %rdx                                    #220.5
        punpcklbw %xmm1, %xmm1                                  #220.5
        andl      $15, %ecx                                     #220.5
        punpcklbw %xmm1, %xmm1                                  #220.5
        pshufd    $0, %xmm1, %xmm1                              #220.5
        pxor      %xmm0, %xmm0                                  #220.5
        movdqa    (%rdx), %xmm2                                 #220.5
        pcmpeqb   %xmm2, %xmm0                                  #220.5
        pmovmskb  %xmm0, %r10d                                  #220.5
        pcmpeqb   %xmm1, %xmm2                                  #220.5
        shrl      %cl, %r10d                                    #220.5
        lea       -1(%r10), %rax                                #220.5
        xorl      %eax, %r10d                                   #220.5
        pmovmskb  %xmm2, %eax                                   #220.5
        shrl      %cl, %eax                                     #220.5
        andl      %r10d, %eax                                   #220.5
        je        ..L452        # Prob 60%                      #220.5
        bsr       %rax, %rax                                    #220.5
        addq      %rcx, %rax                                    #220.5
        addq      %rdx, %rax                                    #220.5
..L452:                                                         #
        orl       %r10d, %r10d                                  #220.5
        jg        ..L454        # Prob 60%                      #220.5
..L453:                                                         #
        call      __intel_sse2_strrchr@PLT                      #220.5
..L454:                                                         #
                                # LOE rax rbx rsi ebp r9d r12d r13d r14d r15d
..B16.46:                       # Preds ..B16.23                # Infreq
        addq      $-32, %rsp                                    #220.5
	.cfi_def_cfa_offset 112
        testq     %rax, %rax                                    #220.5
        movq      stderr@GOTPCREL(%rip), %r11                   #220.5
        lea       1(%rax), %r8                                  #220.5
        movq      %r11, 32(%rsp)                                #220.5
        lea       .L_2__STRING.51(%rip), %r10                   #220.5
        cmove     %rsi, %r8                                     #220.5
        lea       .L_2__STRING.0(%rip), %rsi                    #220.5
        movq      %r10, (%rsp)                                  #220.5
        movl      %r9d, %edx                                    #220.5
        movl      %r13d, 8(%rsp)                                #220.5
        lea       __$U5(%rip), %rcx                             #220.5
        movl      140(%rbx), %r13d                              #220.5
        movl      $220, %r9d                                    #220.5
        xorl      %eax, %eax                                    #220.5
        movq      (%r11), %rdi                                  #220.5
        movl      %r13d, 16(%rsp)                               #220.5
#       fprintf(FILE *, const char *, ...)
        call      fprintf@PLT                                   #220.5
                                # LOE rbx ebp r12d r14d r15d
..B16.45:                       # Preds ..B16.46                # Infreq
        addq      $32, %rsp                                     #220.5
	.cfi_def_cfa_offset 80
                                # LOE rbx ebp r12d r14d r15d
..B16.24:                       # Preds ..B16.45                # Infreq
        movq      (%rsp), %rax                                  #220.5
        movq      (%rax), %rdi                                  #220.5
#       fflush(FILE *)
        call      fflush@PLT                                    #220.5
                                # LOE rbx ebp r12d r14d r15d
..B16.25:                       # Preds ..B16.21 ..B16.24 ..B16.51 # Infreq
        movq      (%rsp), %rax                                  #220.5
        movl      $10, %edi                                     #220.5
        movq      (%rax), %rsi                                  #220.5
        call      fputc@PLT                                     #220.5
                                # LOE rbx ebp r12d r14d r15d
..B16.26:                       # Preds ..B16.25                # Infreq
        movq      (%rsp), %rax                                  #220.5
        movq      (%rax), %rdi                                  #220.5
#       fflush(FILE *)
        call      fflush@PLT                                    #220.5
                                # LOE rbx ebp r12d r14d r15d
..B16.27:                       # Preds ..B16.26                # Infreq
        movl      $1, %r13d                                     #220.5
                                # LOE rbx ebp r12d r13d r14d r15d
..B16.28:                       # Preds ..B16.27 ..B16.18       # Infreq
        cmpl      $1, %r12d                                     #220.5
        je        ..B16.38      # Prob 16%                      #220.5
                                # LOE rbx ebp r12d r13d r14d r15d
..B16.29:                       # Preds ..B16.28                # Infreq
        movl      $1140850688, %edi                             #220.5
        lea       12(%rsp), %rsi                                #220.5
..___tag_value__ZN8yaskSite6setDimEiiiib.457:
#       MPI_Comm_rank(MPI_Comm, int *)
        call      MPI_Comm_rank@PLT                             #220.5
..___tag_value__ZN8yaskSite6setDimEiiiib.458:
                                # LOE rbx eax ebp r13d r14d r15d
..B16.30:                       # Preds ..B16.29                # Infreq
        testl     %eax, %eax                                    #220.5
        je        ..B16.32      # Prob 50%                      #220.5
                                # LOE rbx ebp r13d r14d r15d
..B16.31:                       # Preds ..B16.30                # Infreq
        movl      $-1, 12(%rsp)                                 #220.5
        movq      stderr@GOTPCREL(%rip), %r12                   #220.5
        jmp       ..B16.35      # Prob 100%                     #220.5
                                # LOE rbx r12 ebp r13d r14d r15d
..B16.32:                       # Preds ..B16.30                # Infreq
        movl      12(%rsp), %r9d                                #220.5
        testl     %r9d, %r9d                                    #220.5
        jne       ..B16.50      # Prob 50%                      #220.5
                                # LOE rbx ebp r9d r13d r14d r15d
..B16.33:                       # Preds ..B16.32                # Infreq
        lea       .L_2__STRING.1(%rip), %rsi                    #220.5
        movl      $47, %eax                                     #220.5
        movq      %rsi, %rdx                                    #220.5
        movq      %rdx, %rcx                                    #220.5
        movd      %eax, %xmm1                                   #220.5
        andq      $-16, %rdx                                    #220.5
        punpcklbw %xmm1, %xmm1                                  #220.5
        andl      $15, %ecx                                     #220.5
        punpcklbw %xmm1, %xmm1                                  #220.5
        pshufd    $0, %xmm1, %xmm1                              #220.5
        pxor      %xmm0, %xmm0                                  #220.5
        movdqa    (%rdx), %xmm2                                 #220.5
        pcmpeqb   %xmm2, %xmm0                                  #220.5
        pmovmskb  %xmm0, %r10d                                  #220.5
        pcmpeqb   %xmm1, %xmm2                                  #220.5
        shrl      %cl, %r10d                                    #220.5
        lea       -1(%r10), %rax                                #220.5
        xorl      %eax, %r10d                                   #220.5
        pmovmskb  %xmm2, %eax                                   #220.5
        shrl      %cl, %eax                                     #220.5
        andl      %r10d, %eax                                   #220.5
        je        ..L459        # Prob 60%                      #220.5
        bsr       %rax, %rax                                    #220.5
        addq      %rcx, %rax                                    #220.5
        addq      %rdx, %rax                                    #220.5
..L459:                                                         #
        orl       %r10d, %r10d                                  #220.5
        jg        ..L461        # Prob 60%                      #220.5
..L460:                                                         #
        call      __intel_sse2_strrchr@PLT                      #220.5
..L461:                                                         #
                                # LOE rax rbx rsi ebp r9d r13d r14d r15d
..B16.49:                       # Preds ..B16.33                # Infreq
        addq      $-32, %rsp                                    #220.5
	.cfi_def_cfa_offset 112
        testq     %rax, %rax                                    #220.5
        movq      stderr@GOTPCREL(%rip), %r12                   #220.5
        lea       1(%rax), %r8                                  #220.5
        movl      140(%rbx), %r11d                              #220.5
        cmove     %rsi, %r8                                     #220.5
        lea       .L_2__STRING.4(%rip), %rsi                    #220.5
        movl      %r9d, %edx                                    #220.5
        lea       __$U5(%rip), %rcx                             #220.5
        movl      $220, %r9d                                    #220.5
        xorl      %eax, %eax                                    #220.5
        lea       .L_2__STRING.51(%rip), %r10                   #220.5
        movq      %r10, (%rsp)                                  #220.5
        movl      %r13d, 8(%rsp)                                #220.5
        movq      (%r12), %rdi                                  #220.5
        movl      %r11d, 16(%rsp)                               #220.5
#       fprintf(FILE *, const char *, ...)
        call      fprintf@PLT                                   #220.5
                                # LOE rbx r12 ebp r13d r14d r15d
..B16.48:                       # Preds ..B16.49                # Infreq
        addq      $32, %rsp                                     #220.5
	.cfi_def_cfa_offset 80
                                # LOE rbx r12 ebp r13d r14d r15d
..B16.34:                       # Preds ..B16.48                # Infreq
        movq      (%r12), %rdi                                  #220.5
#       fflush(FILE *)
        call      fflush@PLT                                    #220.5
                                # LOE rbx r12 ebp r13d r14d r15d
..B16.35:                       # Preds ..B16.31 ..B16.34 ..B16.50 # Infreq
        movl      $10, %edi                                     #220.5
        movq      (%r12), %rsi                                  #220.5
        call      fputc@PLT                                     #220.5
                                # LOE rbx r12 ebp r13d r14d r15d
..B16.36:                       # Preds ..B16.35                # Infreq
        movq      (%r12), %rdi                                  #220.5
#       fflush(FILE *)
        call      fflush@PLT                                    #220.5
                                # LOE rbx ebp r13d r14d r15d
..B16.37:                       # Preds ..B16.36                # Infreq
        movl      140(%rbx), %eax                               #220.5
        movl      $1, %r12d                                     #220.5
        jmp       ..B16.2       # Prob 100%                     #220.5
                                # LOE rbx eax ebp r12d r13d r14d r15d
..B16.38:                       # Preds ..B16.28                # Infreq
        movl      140(%rbx), %eax                               #220.5
        jmp       ..B16.2       # Prob 100%                     #220.5
                                # LOE rbx eax ebp r12d r13d r14d r15d
..B16.50:                       # Preds ..B16.32                # Infreq
        movq      stderr@GOTPCREL(%rip), %r12                   #220.5
        jmp       ..B16.35      # Prob 100%                     #220.5
                                # LOE rbx r12 ebp r13d r14d r15d
..B16.51:                       # Preds ..B16.22                # Infreq
        movq      stderr@GOTPCREL(%rip), %rax                   #220.5
        movq      %rax, (%rsp)                                  #220.5
        jmp       ..B16.25      # Prob 100%                     #220.5
                                # LOE rbx ebp r12d r14d r15d
..B16.52:                       # Preds ..B16.12                # Infreq
        movq      stderr@GOTPCREL(%rip), %rax                   #220.5
        movq      %rax, (%rsp)                                  #220.5
        jmp       ..B16.15      # Prob 100%                     #220.5
        .align    16,0x90
	.cfi_endproc
                                # LOE rbx ebp r12d r14d r15d
# mark_end;
	.type	_ZN8yaskSite6setDimEiiiib,@function
	.size	_ZN8yaskSite6setDimEiiiib,.-_ZN8yaskSite6setDimEiiiib
	.data
# -- End  _ZN8yaskSite6setDimEiiiib
	.text
# -- Begin  _ZN8yaskSite9setThreadEiib
	.text
# mark_begin;
       .align    16,0x90
	.globl _ZN8yaskSite9setThreadEiib
# --- yaskSite::setThread(yaskSite *, int, int, bool)
_ZN8yaskSite9setThreadEiib:
# parameter 1: %rdi
# parameter 2: %esi
# parameter 3: %edx
# parameter 4: %ecx
..B17.1:                        # Preds ..B17.0

### {

	.cfi_startproc
	.cfi_personality 0x93,DW.ref.__gxx_personality_v0
..___tag_value__ZN8yaskSite9setThreadEiib.465:
..L466:
                                                        #237.1
        pushq     %r14                                          #237.1
	.cfi_def_cfa_offset 16
	.cfi_offset 14, -16
        movq      %rdi, %r14                                    #237.1

###     nthreads = nthreads_;
###     threadPerBlock = threadPerBlock_;
###     if(resetOthers)

        testb     %cl, %cl                                      #240.8
        movl      %esi, 56(%r14)                                #238.5
        movl      %edx, 60(%r14)                                #239.5
        jne       ..B17.3       # Prob 5%                       #240.8
                                # LOE rbx rbp r12 r13 r14 r15
..B17.2:                        # Preds ..B17.4 ..B17.1

###     {
###         //again reset default
###         setDefaultBlock();
###         setDefaultSubBlock();
###     }
### 
###     threadUpdated = true;

        movb      $1, 165(%r14)                                 #247.5

### }

	.cfi_restore 14
        popq      %r14                                          #248.1
	.cfi_def_cfa_offset 8
        ret                                                     #248.1
	.cfi_def_cfa_offset 16
	.cfi_offset 14, -16
                                # LOE
..B17.3:                        # Preds ..B17.1                 # Infreq
        movq      %r14, %rdi                                    #243.9
..___tag_value__ZN8yaskSite9setThreadEiib.473:
#       yaskSite::setDefaultBlock(yaskSite *)
        call      _ZN8yaskSite15setDefaultBlockEv@PLT           #243.9
..___tag_value__ZN8yaskSite9setThreadEiib.474:
                                # LOE rbx rbp r12 r13 r14 r15
..B17.4:                        # Preds ..B17.3                 # Infreq
        movq      %r14, %rdi                                    #244.9
..___tag_value__ZN8yaskSite9setThreadEiib.475:
#       yaskSite::setDefaultSubBlock(yaskSite *)
        call      _ZN8yaskSite18setDefaultSubBlockEv@PLT        #244.9
..___tag_value__ZN8yaskSite9setThreadEiib.476:
        jmp       ..B17.2       # Prob 100%                     #244.9
        .align    16,0x90
	.cfi_endproc
                                # LOE rbx rbp r12 r13 r14 r15
# mark_end;
	.type	_ZN8yaskSite9setThreadEiib,@function
	.size	_ZN8yaskSite9setThreadEiib,.-_ZN8yaskSite9setThreadEiib
	.data
# -- End  _ZN8yaskSite9setThreadEiib
	.text
# -- Begin  _ZN8yaskSite10blockTunerEPcS0_S0_ddd
	.text
# mark_begin;
       .align    16,0x90
	.globl _ZN8yaskSite10blockTunerEPcS0_S0_ddd
# --- yaskSite::blockTuner(yaskSite *, char *, char *, char *, double, double, double)
_ZN8yaskSite10blockTunerEPcS0_S0_ddd:
# parameter 1: %rdi
# parameter 2: %rsi
# parameter 3: %rdx
# parameter 4: %rcx
# parameter 5: %xmm0
# parameter 6: %xmm1
# parameter 7: %xmm2
..B18.1:                        # Preds ..B18.0

### {

	.cfi_startproc
	.cfi_personality 0x93,DW.ref.__gxx_personality_v0
..___tag_value__ZN8yaskSite10blockTunerEPcS0_S0_ddd.478:
..L479:
                                                        #561.1
        pushq     %r15                                          #561.1
	.cfi_def_cfa_offset 16
	.cfi_offset 15, -16
        pushq     %rbx                                          #561.1
	.cfi_def_cfa_offset 24
	.cfi_offset 3, -24
        pushq     %rbp                                          #561.1
	.cfi_def_cfa_offset 32
	.cfi_offset 6, -32
        subq      $16, %rsp                                     #561.1
	.cfi_def_cfa_offset 48
        movq      %rcx, %rbp                                    #561.1
        movsd     %xmm2, 8(%rsp)                                #561.1
        movq      %rdx, %rbx                                    #561.1
        movsd     %xmm1, (%rsp)                                 #561.1
        movq      %rdi, %r15                                    #561.1

###     if(temporalTuner(temporalCache, sf_temporal))

..___tag_value__ZN8yaskSite10blockTunerEPcS0_S0_ddd.487:
#       yaskSite::temporalTuner(yaskSite *, char *, double)
        call      _ZN8yaskSite13temporalTunerEPcd@PLT           #562.8
..___tag_value__ZN8yaskSite10blockTunerEPcS0_S0_ddd.488:
                                # LOE rbx rbp r12 r13 r14 r15 eax
..B18.2:                        # Preds ..B18.1
        testb     %al, %al                                      #562.8
        je        ..B18.6       # Prob 57%                      #562.8
                                # LOE rbx rbp r12 r13 r14 r15
..B18.3:                        # Preds ..B18.2

###     {
###         if(spatialTuner(spatialOBC, spatialIBC, sf_OBC, sf_IBC))

        movsd     (%rsp), %xmm0                                 #564.12
        movq      %r15, %rdi                                    #564.12
        movsd     8(%rsp), %xmm1                                #564.12
        movq      %rbx, %rsi                                    #564.12
        movq      %rbp, %rdx                                    #564.12
..___tag_value__ZN8yaskSite10blockTunerEPcS0_S0_ddd.489:
#       yaskSite::spatialTuner(yaskSite *, char *, char *, double, double)
        call      _ZN8yaskSite12spatialTunerEPcS0_dd@PLT        #564.12
..___tag_value__ZN8yaskSite10blockTunerEPcS0_S0_ddd.490:
                                # LOE r12 r13 r14 eax
..B18.4:                        # Preds ..B18.3
        testb     %al, %al                                      #564.12
        je        ..B18.6       # Prob 50%                      #564.12
                                # LOE r12 r13 r14
..B18.5:                        # Preds ..B18.4

###         {
###             return true;

        movl      $1, %eax                                      #566.20
        addq      $16, %rsp                                     #566.20
	.cfi_def_cfa_offset 32
	.cfi_restore 6
        popq      %rbp                                          #566.20
	.cfi_def_cfa_offset 24
	.cfi_restore 3
        popq      %rbx                                          #566.20
	.cfi_def_cfa_offset 16
	.cfi_restore 15
        popq      %r15                                          #566.20
	.cfi_def_cfa_offset 8
        ret                                                     #566.20
	.cfi_def_cfa_offset 48
	.cfi_offset 3, -24
	.cfi_offset 6, -32
	.cfi_offset 15, -16
                                # LOE
..B18.6:                        # Preds ..B18.4 ..B18.2

###         }
###     }
###     return false;

        xorl      %eax, %eax                                    #569.12
        addq      $16, %rsp                                     #569.12
	.cfi_def_cfa_offset 32
	.cfi_restore 6
        popq      %rbp                                          #569.12
	.cfi_def_cfa_offset 24
	.cfi_restore 3
        popq      %rbx                                          #569.12
	.cfi_def_cfa_offset 16
	.cfi_restore 15
        popq      %r15                                          #569.12
	.cfi_def_cfa_offset 8
        ret                                                     #569.12
        .align    16,0x90
	.cfi_endproc
                                # LOE
# mark_end;
	.type	_ZN8yaskSite10blockTunerEPcS0_S0_ddd,@function
	.size	_ZN8yaskSite10blockTunerEPcS0_S0_ddd,.-_ZN8yaskSite10blockTunerEPcS0_S0_ddd
	.data
# -- End  _ZN8yaskSite10blockTunerEPcS0_S0_ddd
	.text
# -- Begin  _ZN8yaskSite13temporalTunerEPcd
	.text
# mark_begin;
       .align    16,0x90
	.globl _ZN8yaskSite13temporalTunerEPcd
# --- yaskSite::temporalTuner(yaskSite *, char *, double)
_ZN8yaskSite13temporalTunerEPcd:
# parameter 1: %rdi
# parameter 2: %rsi
# parameter 3: %xmm0
..B19.1:                        # Preds ..B19.0

### {

	.cfi_startproc
	.cfi_personality 0x93,DW.ref.__gxx_personality_v0
..___tag_value__ZN8yaskSite13temporalTunerEPcd.510:
..L511:
                                                        #461.1
        pushq     %r12                                          #461.1
	.cfi_def_cfa_offset 16
	.cfi_offset 12, -16
        pushq     %r13                                          #461.1
	.cfi_def_cfa_offset 24
	.cfi_offset 13, -24
        pushq     %r14                                          #461.1
	.cfi_def_cfa_offset 32
	.cfi_offset 14, -32
        pushq     %r15                                          #461.1
	.cfi_def_cfa_offset 40
	.cfi_offset 15, -40
        subq      $104, %rsp                                    #461.1
	.cfi_def_cfa_offset 144
        movq      %rdi, %r15                                    #461.1
        movsd     %xmm0, 64(%rsp)                               #461.1

###     int rx_min = 30;
###     int ry_min = 10;
###     int rz_min = 128;
### 
###     if(dim<3)
###     {
###         ry_min = 128;
###         rz_min = 512;
###     }
### 
###     cache_info blockCache = cache(cacheStr);

        lea       8(%rsp), %rdi                                 #472.35
        movq      %rsi, %r12                                    #461.1
        movl      140(%r15), %r13d                              #466.8
..___tag_value__ZN8yaskSite13temporalTunerEPcd.521:
#       cache(char *)
        call      _Z5cachePc@PLT                                #472.35
..___tag_value__ZN8yaskSite13temporalTunerEPcd.522:
                                # LOE rbx rbp r12 r15 r13d
..B19.2:                        # Preds ..B19.1

###     if(!blockCache.shared)

        cmpb      $0, 32(%rsp)                                  #473.9
        jne       ..B19.56      # Prob 50%                      #473.9
                                # LOE rbx rbp r12 r15 r13d
..B19.3:                        # Preds ..B19.2

###     {
###         WARNING_PRINT("Will not do any tuning for temporal blocking; because %s is not a shared cache", cacheStr);

        movl      $1140850688, %edi                             #475.9
        lea       56(%rsp), %rsi                                #475.9
..___tag_value__ZN8yaskSite13temporalTunerEPcd.523:
#       MPI_Comm_rank(MPI_Comm, int *)
        call      MPI_Comm_rank@PLT                             #475.9
..___tag_value__ZN8yaskSite13temporalTunerEPcd.524:
                                # LOE rbx rbp r12 r15 eax r13d
..B19.4:                        # Preds ..B19.3
        testl     %eax, %eax                                    #475.9
        je        ..B19.6       # Prob 50%                      #475.9
                                # LOE rbx rbp r12 r15 r13d
..B19.5:                        # Preds ..B19.4
        movl      $-1, 56(%rsp)                                 #475.9
        movq      stderr@GOTPCREL(%rip), %r14                   #475.9
        jmp       ..B19.9       # Prob 100%                     #475.9
                                # LOE rbx rbp r14 r15 r13d
..B19.6:                        # Preds ..B19.4
        movl      56(%rsp), %r9d                                #475.9
        testl     %r9d, %r9d                                    #475.9
        jne       ..B19.55      # Prob 50%                      #475.9
                                # LOE rbx rbp r12 r15 r9d r13d
..B19.7:                        # Preds ..B19.6
        lea       .L_2__STRING.1(%rip), %rdi                    #475.9
        movl      $47, %eax                                     #475.9
        movq      %rdi, %rdx                                    #475.9
        movq      %rdx, %rcx                                    #475.9
        movd      %eax, %xmm1                                   #475.9
        andq      $-16, %rdx                                    #475.9
        punpcklbw %xmm1, %xmm1                                  #475.9
        andl      $15, %ecx                                     #475.9
        punpcklbw %xmm1, %xmm1                                  #475.9
        pshufd    $0, %xmm1, %xmm1                              #475.9
        pxor      %xmm0, %xmm0                                  #475.9
        movdqa    (%rdx), %xmm2                                 #475.9
        pcmpeqb   %xmm2, %xmm0                                  #475.9
        pmovmskb  %xmm0, %r10d                                  #475.9
        pcmpeqb   %xmm1, %xmm2                                  #475.9
        shrl      %cl, %r10d                                    #475.9
        lea       -1(%r10), %rax                                #475.9
        xorl      %eax, %r10d                                   #475.9
        pmovmskb  %xmm2, %eax                                   #475.9
        shrl      %cl, %eax                                     #475.9
        andl      %r10d, %eax                                   #475.9
        je        ..L525        # Prob 60%                      #475.9
        bsr       %rax, %rax                                    #475.9
        addq      %rcx, %rax                                    #475.9
        addq      %rdx, %rax                                    #475.9
..L525:                                                         #
        orl       %r10d, %r10d                                  #475.9
        jg        ..L527        # Prob 60%                      #475.9
..L526:                                                         #
        call      __intel_sse2_strrchr@PLT                      #475.9
..L527:                                                         #
                                # LOE rax rbx rbp rdi r12 r15 r9d r13d
..B19.44:                       # Preds ..B19.7
        addq      $-16, %rsp                                    #475.9
	.cfi_def_cfa_offset 160
        testq     %rax, %rax                                    #475.9
        movq      stderr@GOTPCREL(%rip), %r14                   #475.9
        lea       1(%rax), %r8                                  #475.9
        cmove     %rdi, %r8                                     #475.9
        lea       .L_2__STRING.55(%rip), %rsi                   #475.9
        movl      %r9d, %edx                                    #475.9
        lea       __$U7(%rip), %rcx                             #475.9
        movl      $475, %r9d                                    #475.9
        xorl      %eax, %eax                                    #475.9
        movq      (%r14), %rdi                                  #475.9
        movq      %r12, (%rsp)                                  #475.9
#       fprintf(FILE *, const char *, ...)
        call      fprintf@PLT                                   #475.9
                                # LOE rbx rbp r14 r15 r13d
..B19.43:                       # Preds ..B19.44
        addq      $16, %rsp                                     #475.9
	.cfi_def_cfa_offset 144
                                # LOE rbx rbp r14 r15 r13d
..B19.8:                        # Preds ..B19.43
        movq      (%r14), %rdi                                  #475.9
#       fflush(FILE *)
        call      fflush@PLT                                    #475.9
                                # LOE rbx rbp r14 r15 r13d
..B19.9:                        # Preds ..B19.5 ..B19.8 ..B19.55
        movl      $10, %edi                                     #475.9
        movq      (%r14), %rsi                                  #475.9
        call      fputc@PLT                                     #475.9
                                # LOE rbx rbp r14 r15 r13d
..B19.10:                       # Preds ..B19.9
        movq      (%r14), %rdi                                  #475.9
#       fflush(FILE *)
        call      fflush@PLT                                    #475.9
                                # LOE rbx rbp r14 r15 r13d
..B19.11:                       # Preds ..B19.10 ..B19.56

###     }
### 
###     //TODO: determine how many threads share the cache
###     //maybe use hwloc
###     double cacheWords = sf*blockCache.words;
### 
###     //2 because 2 arrays; TODO if more arrays are there
###     double ryInit = cacheWords/((double)(2.0*rx*rz));

        pxor      %xmm2, %xmm2                                  #483.46
        pxor      %xmm1, %xmm1                                  #483.49
        cvtsi2sd  104(%r15), %xmm2                              #483.46
        cvtsi2sd  112(%r15), %xmm1                              #483.49
        mulsd     .L_2il0floatpacket.10(%rip), %xmm2            #483.46
        movsd     64(%rsp), %xmm3                               #480.28
        movaps    %xmm2, %xmm4                                  #483.49
        mulsd     16(%rsp), %xmm3                               #480.28

###     //now set ry : ry is a proper multiple of dy; used ceil to absorb
###     //if possible all the required decomposition here
###     int factor_y = static_cast<int>(ceil(dy/ryInit));

        pxor      %xmm0, %xmm0                                  #486.42
        cvtsi2sd  124(%r15), %xmm0                              #486.42
        mulsd     %xmm1, %xmm4                                  #483.49
        movsd     %xmm3, 64(%rsp)                               #480.28
        divsd     %xmm4, %xmm3                                  #483.49
        movsd     %xmm0, (%rsp)                                 #486.42
        divsd     %xmm3, %xmm0                                  #486.37
        movsd     %xmm1, 88(%rsp)                               #483.49
        movsd     %xmm3, 96(%rsp)                               #483.49
        movsd     %xmm2, 72(%rsp)                               #486.37
        call      ceil@PLT                                      #486.37
                                # LOE rbx rbp r14 r15 r13d xmm0
..B19.45:                       # Preds ..B19.11

### 
### 
###     //reminders at regions might affect performance; since blocks at reminder
###     //region cannot be distributed to threads properly
###     if(ryInit < ry_min)

        movl      $128, %r12d                                   #491.5
        movl      $10, %eax                                     #491.5
        cmpl      $3, %r13d                                     #491.5
        pxor      %xmm1, %xmm1                                  #491.17
        cmovl     %r12d, %eax                                   #491.5
        cvtsi2sd  %eax, %xmm1                                   #491.17
        cvttsd2si %xmm0, %edx                                   #486.37
        comisd    96(%rsp), %xmm1                               #491.17
        movsd     72(%rsp), %xmm2                               #
        movsd     %xmm1, 80(%rsp)                               #491.17
        jbe       ..B19.13      # Prob 38%                      #491.17
                                # LOE rbx rbp r14 r15 edx r12d r13d xmm1 xmm2 ymm1 ymm2 zmm1 zmm2
..B19.12:                       # Preds ..B19.45

###     {
###         ryInit = ry_min;
###         factor_y = static_cast<int>(floor(dy/ryInit));

        movsd     (%rsp), %xmm0                                 #494.37
        divsd     %xmm1, %xmm0                                  #494.37
        movsd     %xmm1, 96(%rsp)                               #493.9
        movsd     %xmm2, 72(%rsp)                               #494.37
        call      floor@PLT                                     #494.37
                                # LOE rbx rbp r14 r15 r12d r13d xmm0
..B19.46:                       # Preds ..B19.12
        movsd     72(%rsp), %xmm2                               #
        cvttsd2si %xmm0, %edx                                   #494.37
                                # LOE rbx rbp r14 r15 edx r12d r13d xmm2 ymm2 zmm2
..B19.13:                       # Preds ..B19.46 ..B19.45

###     }
### 
###     ry = static_cast<int>(round(dy/((double)factor_y)));

        pxor      %xmm1, %xmm1                                  #497.27
        cvtsi2sd  %edx, %xmm1                                   #497.27
        movsd     (%rsp), %xmm3                                 #497.27
        pxor      %xmm0, %xmm0                                  #497.27
        divsd     %xmm1, %xmm3                                  #497.27
        comisd    %xmm0, %xmm3                                  #497.27
        movsd     .L_2il0floatpacket.12(%rip), %xmm4            #497.27

### 
###     double words = 2.0*rx*ry*rz;

        pxor      %xmm1, %xmm1                                  #499.27
        jae       ..L530        # Prob 50%                      #497.27
        movsd     .L_2il0floatpacket.13(%rip), %xmm4            #497.27
..L530:                                                         #
        movsd     88(%rsp), %xmm5                               #499.30
        addsd     %xmm3, %xmm4                                  #497.27
        cvttsd2si %xmm4, %eax                                   #497.27
        cvtsi2sd  %eax, %xmm1                                   #499.27
        mulsd     %xmm1, %xmm2                                  #499.27
        mulsd     %xmm2, %xmm5                                  #499.30
        movl      %eax, 108(%r15)                               #497.5

### 
### 
###     if(words > cacheWords)

        comisd    64(%rsp), %xmm5                               #502.16
        jbe       ..B19.31      # Prob 50%                      #502.16
                                # LOE rbx rbp r14 r15 r12d r13d xmm1 xmm2
..B19.14:                       # Preds ..B19.13

###     {
###         if(dim>2)

        cmpl      $2, 140(%r15)                                 #504.16
        jle       ..B19.18      # Prob 50%                      #504.16
                                # LOE rbx rbp r14 r15 r12d r13d xmm1 xmm2
..B19.15:                       # Preds ..B19.14

###         {
###             //need to adjust rx or rz
###             //first preference rx since rz is inner dimension
###             double rxInit = cacheWords/(2.0*ry*rz);

        movsd     .L_2il0floatpacket.10(%rip), %xmm2            #508.45

### 
###             //Used ceil so if possible to avoid decomposing z direction
###             int factor_x = static_cast<int>(ceil(dx/rxInit));

        pxor      %xmm0, %xmm0                                  #511.50
        mulsd     %xmm1, %xmm2                                  #508.45
        cvtsi2sd  120(%r15), %xmm0                              #511.50
        mulsd     88(%rsp), %xmm2                               #508.48
        movsd     64(%rsp), %xmm3                               #508.48
        divsd     %xmm2, %xmm3                                  #508.48
        movsd     %xmm0, 40(%rsp)                               #511.50
        divsd     %xmm3, %xmm0                                  #511.45
        movsd     %xmm3, (%rsp)                                 #508.48
        movsd     %xmm1, 48(%rsp)                               #511.45
        call      ceil@PLT                                      #511.45
                                # LOE rbx rbp r14 r15 r12d r13d xmm0
..B19.47:                       # Preds ..B19.15
        movsd     .L_2il0floatpacket.11(%rip), %xmm2            #462.16
        movsd     48(%rsp), %xmm1                               #
        cvttsd2si %xmm0, %eax                                   #511.45

### 
###             if(rxInit < rx_min)

        comisd    (%rsp), %xmm2                                 #513.25
        jbe       ..B19.17      # Prob 38%                      #513.25
                                # LOE rbx rbp r14 r15 eax r12d r13d xmm1 xmm2 ymm1 zmm1
..B19.16:                       # Preds ..B19.47

###             {
###                 rxInit = rx_min;
###                 factor_x = static_cast<int>(floor(dx/rxInit));

        movsd     40(%rsp), %xmm0                               #516.45
        divsd     %xmm2, %xmm0                                  #516.45
        movsd     %xmm1, 48(%rsp)                               #516.45
        call      floor@PLT                                     #516.45
                                # LOE rbx rbp r14 r15 r12d r13d xmm0
..B19.48:                       # Preds ..B19.16
        movsd     48(%rsp), %xmm1                               #
        cvttsd2si %xmm0, %eax                                   #516.45
                                # LOE rbx rbp r14 r15 eax r12d r13d xmm1 ymm1 zmm1
..B19.17:                       # Preds ..B19.48 ..B19.47

###             }
### 
###             //Rounding it to get lower reminder
###             rx = static_cast<int>(round(dx/((double)factor_x)));

        pxor      %xmm2, %xmm2                                  #520.35

### 
### 
###             words = 2.0*rx*ry*rz;

        pxor      %xmm5, %xmm5                                  #523.25
        cvtsi2sd  %eax, %xmm2                                   #520.35
        movsd     40(%rsp), %xmm3                               #520.35
        pxor      %xmm0, %xmm0                                  #520.35
        divsd     %xmm2, %xmm3                                  #520.35
        comisd    %xmm0, %xmm3                                  #520.35
        movsd     .L_2il0floatpacket.12(%rip), %xmm4            #520.35
        jae       ..L531        # Prob 50%                      #520.35
        movsd     .L_2il0floatpacket.13(%rip), %xmm4            #520.35
..L531:                                                         #
        movsd     .L_2il0floatpacket.10(%rip), %xmm2            #523.25
        addsd     %xmm3, %xmm4                                  #520.35
        cvttsd2si %xmm4, %eax                                   #520.35
        cvtsi2sd  %eax, %xmm5                                   #523.25
        mulsd     %xmm5, %xmm2                                  #523.25
        mulsd     %xmm1, %xmm2                                  #523.28
        movsd     88(%rsp), %xmm1                               #523.31
        mulsd     %xmm2, %xmm1                                  #523.31
        movl      %eax, 104(%r15)                               #520.13

###         }
### 
###         //now adjust ry if required
###         if(words > cacheWords)

        comisd    64(%rsp), %xmm1                               #527.20
        jbe       ..B19.31      # Prob 50%                      #527.20
                                # LOE rbx rbp r14 r15 r12d r13d xmm2
..B19.18:                       # Preds ..B19.14 ..B19.17

###         {
###             double rzInit = cacheWords/(2.0*rx*ry);
### 
###             if(ryInit < ry_min)

        movsd     80(%rsp), %xmm0                               #531.25
        comisd    96(%rsp), %xmm0                               #531.25
        jbe       ..B19.20      # Prob 50%                      #531.25
                                # LOE rbx rbp r14 r15 r12d r13d xmm2
..B19.19:                       # Preds ..B19.18

###             {
###                 rzInit = rz_min;

        movl      $512, %eax                                    #533.17
        cmpl      $3, %r13d                                     #533.17
        pxor      %xmm1, %xmm1                                  #533.26
        cmovl     %eax, %r12d                                   #533.17
        cvtsi2sd  %r12d, %xmm1                                  #533.26
        jmp       ..B19.21      # Prob 100%                     #533.26
                                # LOE rbx rbp r14 r15 xmm1 xmm2
..B19.20:                       # Preds ..B19.18
        movsd     64(%rsp), %xmm1                               #529.48
        divsd     %xmm2, %xmm1                                  #529.48
                                # LOE rbx rbp r14 r15 xmm1 xmm2
..B19.21:                       # Preds ..B19.19 ..B19.20

###             }
### 
###             //Here used ceil; since now I can't do much
###             int factor_z = static_cast<int>(ceil(dz/rzInit));

        pxor      %xmm0, %xmm0                                  #537.50
        cvtsi2sd  128(%r15), %xmm0                              #537.50
        movsd     %xmm0, (%rsp)                                 #537.50
        divsd     %xmm1, %xmm0                                  #537.45
        movsd     %xmm2, 72(%rsp)                               #537.45
        call      ceil@PLT                                      #537.45
                                # LOE rbx rbp r14 r15 xmm0
..B19.49:                       # Preds ..B19.21

### 
###             rz = static_cast<int>(round(dz/((double)factor_z)));

        cvttsd2si %xmm0, %eax                                   #539.35
        pxor      %xmm1, %xmm1                                  #539.35
        pxor      %xmm3, %xmm3                                  #539.35
        cvtsi2sd  %eax, %xmm1                                   #539.35
        movsd     (%rsp), %xmm4                                 #539.35

### 
###             words = 2.0*rx*ry*rz;

        pxor      %xmm6, %xmm6                                  #541.31
        divsd     %xmm1, %xmm4                                  #539.35
        comisd    %xmm3, %xmm4                                  #539.35
        movsd     .L_2il0floatpacket.12(%rip), %xmm5            #539.35
        jae       ..L532        # Prob 50%                      #539.35
        movsd     .L_2il0floatpacket.13(%rip), %xmm5            #539.35
..L532:                                                         #
        movsd     72(%rsp), %xmm2                               #
        addsd     %xmm4, %xmm5                                  #539.35
        cvttsd2si %xmm5, %edx                                   #539.35
        cvtsi2sd  %edx, %xmm6                                   #541.31
        mulsd     %xmm2, %xmm6                                  #541.31
        movl      %edx, 112(%r15)                               #539.13

### 
###             if(words > cacheWords)

        comisd    64(%rsp), %xmm6                               #543.24
        jbe       ..B19.31      # Prob 50%                      #543.24
                                # LOE rbx rbp r14 r15
..B19.22:                       # Preds ..B19.49

###             {
###                 WARNING_PRINT("Temporal blocking might not be helpful please do it manually if required");

        movl      $1140850688, %edi                             #545.17
        lea       (%rsp), %rsi                                  #545.17
..___tag_value__ZN8yaskSite13temporalTunerEPcd.533:
#       MPI_Comm_rank(MPI_Comm, int *)
        call      MPI_Comm_rank@PLT                             #545.17
..___tag_value__ZN8yaskSite13temporalTunerEPcd.534:
                                # LOE rbx rbp r14 eax
..B19.23:                       # Preds ..B19.22
        testl     %eax, %eax                                    #545.17
        je        ..B19.25      # Prob 50%                      #545.17
                                # LOE rbx rbp r14
..B19.24:                       # Preds ..B19.23
        movl      $-1, (%rsp)                                   #545.17
        jmp       ..B19.28      # Prob 100%                     #545.17
                                # LOE rbx rbp r14
..B19.25:                       # Preds ..B19.23
        movl      (%rsp), %r9d                                  #545.17
        testl     %r9d, %r9d                                    #545.17
        jne       ..B19.28      # Prob 50%                      #545.17
                                # LOE rbx rbp r14 r9d
..B19.26:                       # Preds ..B19.25
        lea       .L_2__STRING.1(%rip), %rsi                    #545.17
        movl      $47, %eax                                     #545.17
        movq      %rsi, %rdx                                    #545.17
        movq      %rdx, %rcx                                    #545.17
        movd      %eax, %xmm1                                   #545.17
        andq      $-16, %rdx                                    #545.17
        punpcklbw %xmm1, %xmm1                                  #545.17
        andl      $15, %ecx                                     #545.17
        punpcklbw %xmm1, %xmm1                                  #545.17
        pshufd    $0, %xmm1, %xmm1                              #545.17
        pxor      %xmm0, %xmm0                                  #545.17
        movdqa    (%rdx), %xmm2                                 #545.17
        pcmpeqb   %xmm2, %xmm0                                  #545.17
        pmovmskb  %xmm0, %r10d                                  #545.17
        pcmpeqb   %xmm1, %xmm2                                  #545.17
        shrl      %cl, %r10d                                    #545.17
        lea       -1(%r10), %rax                                #545.17
        xorl      %eax, %r10d                                   #545.17
        pmovmskb  %xmm2, %eax                                   #545.17
        shrl      %cl, %eax                                     #545.17
        andl      %r10d, %eax                                   #545.17
        je        ..L535        # Prob 60%                      #545.17
        bsr       %rax, %rax                                    #545.17
        addq      %rcx, %rax                                    #545.17
        addq      %rdx, %rax                                    #545.17
..L535:                                                         #
        orl       %r10d, %r10d                                  #545.17
        jg        ..L537        # Prob 60%                      #545.17
..L536:                                                         #
        call      __intel_sse2_strrchr@PLT                      #545.17
..L537:                                                         #
                                # LOE rax rbx rbp rsi r14 r9d
..B19.51:                       # Preds ..B19.26
        testq     %rax, %rax                                    #545.17
        lea       1(%rax), %r8                                  #545.17
        movl      %r9d, %edx                                    #545.17
        lea       __$U7(%rip), %rcx                             #545.17
        cmove     %rsi, %r8                                     #545.17
        lea       .L_2__STRING.56(%rip), %rsi                   #545.17
        movl      $545, %r9d                                    #545.17
        xorl      %eax, %eax                                    #545.17
        movq      (%r14), %rdi                                  #545.17
#       fprintf(FILE *, const char *, ...)
        call      fprintf@PLT                                   #545.17
                                # LOE rbx rbp r14
..B19.27:                       # Preds ..B19.51
        movq      (%r14), %rdi                                  #545.17
#       fflush(FILE *)
        call      fflush@PLT                                    #545.17
                                # LOE rbx rbp r14
..B19.28:                       # Preds ..B19.24 ..B19.27 ..B19.25
        movl      $10, %edi                                     #545.17
        movq      (%r14), %rsi                                  #545.17
        call      fputc@PLT                                     #545.17
                                # LOE rbx rbp r14
..B19.29:                       # Preds ..B19.28
        movq      (%r14), %rdi                                  #545.17
#       fflush(FILE *)
        call      fflush@PLT                                    #545.17
                                # LOE rbx rbp
..B19.30:                       # Preds ..B19.29

###                 return false;

        xorl      %eax, %eax                                    #546.24
        addq      $104, %rsp                                    #546.24
	.cfi_def_cfa_offset 40
	.cfi_restore 15
        popq      %r15                                          #546.24
	.cfi_def_cfa_offset 32
	.cfi_restore 14
        popq      %r14                                          #546.24
	.cfi_def_cfa_offset 24
	.cfi_restore 13
        popq      %r13                                          #546.24
	.cfi_def_cfa_offset 16
	.cfi_restore 12
        popq      %r12                                          #546.24
	.cfi_def_cfa_offset 8
        ret                                                     #546.24
	.cfi_def_cfa_offset 144
	.cfi_offset 12, -16
	.cfi_offset 13, -24
	.cfi_offset 14, -32
	.cfi_offset 15, -40
                                # LOE
..B19.31:                       # Preds ..B19.49 ..B19.17 ..B19.13

###             }
###         }
###     }
### 
###     //Right now we use all the time available for 
###     //blocking; might need to restrict it;
###     //to say max 50;
###     rt = dt;

        movl      116(%r15), %eax                               #554.10

### 
###     INFO_PRINT("Found: rt=%d rx=%d ry=%d, rz=%d", rt, rx, ry, rz);

        movl      $1140850688, %edi                             #556.5
        movl      %eax, 100(%r15)                               #554.5
        lea       (%rsp), %rsi                                  #556.5
..___tag_value__ZN8yaskSite13temporalTunerEPcd.552:
#       MPI_Comm_rank(MPI_Comm, int *)
        call      MPI_Comm_rank@PLT                             #556.5
..___tag_value__ZN8yaskSite13temporalTunerEPcd.553:
                                # LOE rbx rbp r14 r15 eax
..B19.32:                       # Preds ..B19.31
        testl     %eax, %eax                                    #556.5
        je        ..B19.34      # Prob 50%                      #556.5
                                # LOE rbx rbp r14 r15
..B19.33:                       # Preds ..B19.32
        movl      $-1, (%rsp)                                   #556.5
        jmp       ..B19.37      # Prob 100%                     #556.5
                                # LOE rbx rbp r14
..B19.34:                       # Preds ..B19.32
        movl      (%rsp), %r9d                                  #556.5
        testl     %r9d, %r9d                                    #556.5
        jne       ..B19.37      # Prob 50%                      #556.5
                                # LOE rbx rbp r14 r15 r9d
..B19.35:                       # Preds ..B19.34
        lea       .L_2__STRING.1(%rip), %rsi                    #556.5
        movl      $47, %eax                                     #556.5
        movq      %rsi, %rdx                                    #556.5
        movq      %rdx, %rcx                                    #556.5
        movd      %eax, %xmm1                                   #556.5
        andq      $-16, %rdx                                    #556.5
        punpcklbw %xmm1, %xmm1                                  #556.5
        andl      $15, %ecx                                     #556.5
        punpcklbw %xmm1, %xmm1                                  #556.5
        pshufd    $0, %xmm1, %xmm1                              #556.5
        pxor      %xmm0, %xmm0                                  #556.5
        movdqa    (%rdx), %xmm2                                 #556.5
        pcmpeqb   %xmm2, %xmm0                                  #556.5
        pmovmskb  %xmm0, %r10d                                  #556.5
        pcmpeqb   %xmm1, %xmm2                                  #556.5
        shrl      %cl, %r10d                                    #556.5
        lea       -1(%r10), %rax                                #556.5
        xorl      %eax, %r10d                                   #556.5
        pmovmskb  %xmm2, %eax                                   #556.5
        shrl      %cl, %eax                                     #556.5
        andl      %r10d, %eax                                   #556.5
        je        ..L554        # Prob 60%                      #556.5
        bsr       %rax, %rax                                    #556.5
        addq      %rcx, %rax                                    #556.5
        addq      %rdx, %rax                                    #556.5
..L554:                                                         #
        orl       %r10d, %r10d                                  #556.5
        jg        ..L556        # Prob 60%                      #556.5
..L555:                                                         #
        call      __intel_sse2_strrchr@PLT                      #556.5
..L556:                                                         #
                                # LOE rax rbx rbp rsi r14 r15 r9d
..B19.54:                       # Preds ..B19.35
        movl      112(%r15), %r10d                              #556.5
        testq     %rax, %rax                                    #556.5
        pushq     %r10                                          #556.5
	.cfi_def_cfa_offset 152
        movl      108(%r15), %r11d                              #556.5
        lea       1(%rax), %r8                                  #556.5
        pushq     %r11                                          #556.5
	.cfi_def_cfa_offset 160
        movl      104(%r15), %r12d                              #556.5
        cmove     %rsi, %r8                                     #556.5
        pushq     %r12                                          #556.5
	.cfi_def_cfa_offset 168
        lea       .L_2__STRING.57(%rip), %rsi                   #556.5
        movl      %r9d, %edx                                    #556.5
        lea       __$U7(%rip), %rcx                             #556.5
        movl      $556, %r9d                                    #556.5
        xorl      %eax, %eax                                    #556.5
        movl      100(%r15), %r15d                              #556.5
        pushq     %r15                                          #556.5
	.cfi_def_cfa_offset 176
        movq      (%r14), %rdi                                  #556.5
#       fprintf(FILE *, const char *, ...)
        call      fprintf@PLT                                   #556.5
                                # LOE rbx rbp r14
..B19.53:                       # Preds ..B19.54
        addq      $32, %rsp                                     #556.5
	.cfi_def_cfa_offset 144
                                # LOE rbx rbp r14
..B19.36:                       # Preds ..B19.53
        movq      (%r14), %rdi                                  #556.5
#       fflush(FILE *)
        call      fflush@PLT                                    #556.5
                                # LOE rbx rbp r14
..B19.37:                       # Preds ..B19.33 ..B19.36 ..B19.34
        movl      $10, %edi                                     #556.5
        movq      (%r14), %rsi                                  #556.5
        call      fputc@PLT                                     #556.5
                                # LOE rbx rbp r14
..B19.38:                       # Preds ..B19.37
        movq      (%r14), %rdi                                  #556.5
#       fflush(FILE *)
        call      fflush@PLT                                    #556.5
                                # LOE rbx rbp
..B19.39:                       # Preds ..B19.38

###     return true;

        movl      $1, %eax                                      #557.12
        addq      $104, %rsp                                    #557.12
	.cfi_def_cfa_offset 40
	.cfi_restore 15
        popq      %r15                                          #557.12
	.cfi_def_cfa_offset 32
	.cfi_restore 14
        popq      %r14                                          #557.12
	.cfi_def_cfa_offset 24
	.cfi_restore 13
        popq      %r13                                          #557.12
	.cfi_def_cfa_offset 16
	.cfi_restore 12
        popq      %r12                                          #557.12
	.cfi_def_cfa_offset 8
        ret                                                     #557.12
	.cfi_def_cfa_offset 144
	.cfi_offset 12, -16
	.cfi_offset 13, -24
	.cfi_offset 14, -32
	.cfi_offset 15, -40
                                # LOE
..B19.55:                       # Preds ..B19.6
        movq      stderr@GOTPCREL(%rip), %r14                   #475.9
        jmp       ..B19.9       # Prob 100%                     #475.9
                                # LOE rbx rbp r14 r15 r13d
..B19.56:                       # Preds ..B19.2
        movq      stderr@GOTPCREL(%rip), %r14                   #475.9
        jmp       ..B19.11      # Prob 100%                     #475.9
        .align    16,0x90
	.cfi_endproc
                                # LOE rbx rbp r14 r15 r13d
# mark_end;
	.type	_ZN8yaskSite13temporalTunerEPcd,@function
	.size	_ZN8yaskSite13temporalTunerEPcd,.-_ZN8yaskSite13temporalTunerEPcd
	.data
# -- End  _ZN8yaskSite13temporalTunerEPcd
	.text
# -- Begin  _ZN8yaskSite12spatialTunerEPcS0_dd
	.text
# mark_begin;
       .align    16,0x90
	.globl _ZN8yaskSite12spatialTunerEPcS0_dd
# --- yaskSite::spatialTuner(yaskSite *, char *, char *, double, double)
_ZN8yaskSite12spatialTunerEPcS0_dd:
# parameter 1: %rdi
# parameter 2: %rsi
# parameter 3: %rdx
# parameter 4: %xmm0
# parameter 5: %xmm1
..B20.1:                        # Preds ..B20.0

### {

	.cfi_startproc
	.cfi_personality 0x93,DW.ref.__gxx_personality_v0
..___tag_value__ZN8yaskSite12spatialTunerEPcS0_dd.577:
..L578:
                                                        #355.1
        pushq     %r13                                          #355.1
	.cfi_def_cfa_offset 16
	.cfi_offset 13, -16
        pushq     %r14                                          #355.1
	.cfi_def_cfa_offset 24
	.cfi_offset 14, -24
        pushq     %r15                                          #355.1
	.cfi_def_cfa_offset 32
	.cfi_offset 15, -32
        pushq     %rbx                                          #355.1
	.cfi_def_cfa_offset 40
	.cfi_offset 3, -40
        pushq     %rbp                                          #355.1
	.cfi_def_cfa_offset 48
	.cfi_offset 6, -48
        subq      $112, %rsp                                    #355.1
	.cfi_def_cfa_offset 160
        movq      %rdi, %rbp                                    #355.1
        movaps    %xmm0, %xmm3                                  #355.1
        movq      %rdx, %r13                                    #355.1

###     if(dim==1)

        movl      140(%rbp), %eax                               #356.8
        cmpl      $1, %eax                                      #356.8
        je        ..B20.28      # Prob 33%                      #356.8
                                # LOE rbp rsi r12 r13 eax xmm1 xmm3
..B20.3:                        # Preds ..B20.1
        cmpl      $2, %eax                                      #356.8
        jne       ..B20.29      # Prob 50%                      #356.8
                                # LOE rbp rsi r12 r13 xmm1 xmm3
..B20.4:                        # Preds ..B20.3

###     {
###         return true;
###     }
### 
###     else if(dim==2)
###     {
###         bx=1;
###         by=ry;
### 
###         double layer = (2*radius+1+1); //layer width

        movl      136(%rbp), %edx                               #366.27
        pxor      %xmm0, %xmm0                                  #366.36
        movl      108(%rbp), %eax                               #364.12

###         cache_info OBC = cache(OBC_str);

        lea       (%rsp), %rdi                                  #367.32
        movl      $1, 88(%rbp)                                  #363.9
        movl      %eax, 92(%rbp)                                #364.9
        lea       2(%rdx,%rdx), %ecx                            #366.36
        cvtsi2sd  %ecx, %xmm0                                   #366.36
        movsd     %xmm0, 32(%rdi)                               #367.32
        movsd     %xmm3, 80(%rdi)                               #367.32
..___tag_value__ZN8yaskSite12spatialTunerEPcS0_dd.590:
#       cache(char *)
        call      _Z5cachePc@PLT                                #367.32
..___tag_value__ZN8yaskSite12spatialTunerEPcS0_dd.591:
                                # LOE rbp r12
..B20.5:                        # Preds ..B20.4
        movsd     80(%rsp), %xmm3                               #

###         double OBC_words = (OBC.shared)?(sf_OBC*OBC.words)/nthreads:(sf_OBC*OBC.words);

        movsd     8(%rsp), %xmm1                                #368.49
        movsd     32(%rsp), %xmm0                               #
        movl      56(%rbp), %eax                                #368.60
        mulsd     %xmm1, %xmm3                                  #368.49
        cmpb      $0, 24(%rsp)                                  #368.29
        je        ..B20.8       # Prob 50%                      #368.29
                                # LOE rbp r12 eax xmm0 xmm3 ymm0 zmm0
..B20.6:                        # Preds ..B20.5
        pxor      %xmm1, %xmm1                                  #368.60
        cvtsi2sd  %eax, %xmm1                                   #368.60
        divsd     %xmm1, %xmm3                                  #368.60
                                # LOE rbp r12 eax xmm0 xmm3 ymm0 zmm0
..B20.8:                        # Preds ..B20.5 ..B20.6

### 
###         double n_z = (layer*((double)rz))/(OBC_words);

        pxor      %xmm2, %xmm2                                  #370.38
        cvtsi2sd  112(%rbp), %xmm2                              #370.38
        mulsd     %xmm2, %xmm0                                  #370.38
        divsd     %xmm3, %xmm0                                  #370.43

###         //round n_z to next greatest multiple of nthreads
###         double n = ceil(n_z/nthreads)*nthreads;
### 
###         if(n_z>1)

        comisd    .L_2il0floatpacket.16(%rip), %xmm0            #374.16
        jbe       ..B20.18      # Prob 50%                      #374.16
                                # LOE rbp r12 eax xmm0 xmm2
..B20.9:                        # Preds ..B20.8
        pxor      %xmm1, %xmm1                                  #372.29
        cvtsi2sd  %eax, %xmm1                                   #372.29
        divsd     %xmm1, %xmm0                                  #372.20
        movsd     %xmm1, 32(%rsp)                               #372.29
        movsd     %xmm2, 40(%rsp)                               #372.20
        call      ceil@PLT                                      #372.20
                                # LOE rbp r12 xmm0
..B20.76:                       # Preds ..B20.9

###         {
###             bz = static_cast<int>(round(rz/n));

        mulsd     32(%rsp), %xmm0                               #376.35

###             setDefaultSubBlock();

        movq      %rbp, %rdi                                    #377.13
        movsd     40(%rsp), %xmm2                               #
        pxor      %xmm1, %xmm1                                  #376.35
        divsd     %xmm0, %xmm2                                  #376.35
        comisd    %xmm1, %xmm2                                  #376.35
        movsd     .L_2il0floatpacket.12(%rip), %xmm3            #376.35
        jae       ..L592        # Prob 50%                      #376.35
        movsd     .L_2il0floatpacket.13(%rip), %xmm3            #376.35
..L592:                                                         #
        addsd     %xmm2, %xmm3                                  #376.35
        cvttsd2si %xmm3, %eax                                   #376.35
        movl      %eax, 96(%rbp)                                #376.13
..___tag_value__ZN8yaskSite12spatialTunerEPcS0_dd.593:
#       yaskSite::setDefaultSubBlock(yaskSite *)
        call      _ZN8yaskSite18setDefaultSubBlockEv@PLT        #377.13
..___tag_value__ZN8yaskSite12spatialTunerEPcS0_dd.594:
                                # LOE rbp r12
..B20.10:                       # Preds ..B20.76

###             INFO_PRINT("Found: bx=%d by=%d, bz=%d", bx, by, bz);

        movl      $1140850688, %edi                             #378.13
        lea       32(%rsp), %rsi                                #378.13
..___tag_value__ZN8yaskSite12spatialTunerEPcS0_dd.595:
#       MPI_Comm_rank(MPI_Comm, int *)
        call      MPI_Comm_rank@PLT                             #378.13
..___tag_value__ZN8yaskSite12spatialTunerEPcS0_dd.596:
                                # LOE rbp r12 eax
..B20.11:                       # Preds ..B20.10
        testl     %eax, %eax                                    #378.13
        je        ..B20.13      # Prob 50%                      #378.13
                                # LOE rbp r12
..B20.12:                       # Preds ..B20.11
        movl      $-1, 32(%rsp)                                 #378.13
        movq      stderr@GOTPCREL(%rip), %r13                   #378.13
        jmp       ..B20.26      # Prob 100%                     #378.13
                                # LOE r12 r13
..B20.13:                       # Preds ..B20.11
        movl      32(%rsp), %ebx                                #378.13
        testl     %ebx, %ebx                                    #378.13
        jne       ..B20.95      # Prob 50%                      #378.13
                                # LOE rbp r12 ebx
..B20.14:                       # Preds ..B20.13
        lea       .L_2__STRING.1(%rip), %rsi                    #378.13
        movl      $47, %eax                                     #378.13
        movq      %rsi, %rdx                                    #378.13
        movq      %rdx, %rcx                                    #378.13
        movd      %eax, %xmm1                                   #378.13
        andq      $-16, %rdx                                    #378.13
        punpcklbw %xmm1, %xmm1                                  #378.13
        andl      $15, %ecx                                     #378.13
        punpcklbw %xmm1, %xmm1                                  #378.13
        pshufd    $0, %xmm1, %xmm1                              #378.13
        pxor      %xmm0, %xmm0                                  #378.13
        movdqa    (%rdx), %xmm2                                 #378.13
        pcmpeqb   %xmm2, %xmm0                                  #378.13
        pmovmskb  %xmm0, %r10d                                  #378.13
        pcmpeqb   %xmm1, %xmm2                                  #378.13
        shrl      %cl, %r10d                                    #378.13
        lea       -1(%r10), %rax                                #378.13
        xorl      %eax, %r10d                                   #378.13
        pmovmskb  %xmm2, %eax                                   #378.13
        shrl      %cl, %eax                                     #378.13
        andl      %r10d, %eax                                   #378.13
        je        ..L597        # Prob 60%                      #378.13
        bsr       %rax, %rax                                    #378.13
        addq      %rcx, %rax                                    #378.13
        addq      %rdx, %rax                                    #378.13
..L597:                                                         #
        orl       %r10d, %r10d                                  #378.13
        jg        ..L599        # Prob 60%                      #378.13
..L598:                                                         #
        call      __intel_sse2_strrchr@PLT                      #378.13
..L599:                                                         #
                                # LOE rax rbp rsi r12 ebx
..B20.79:                       # Preds ..B20.14
        addq      $-32, %rsp                                    #378.13
	.cfi_def_cfa_offset 192
        testq     %rax, %rax                                    #378.13
        movq      stderr@GOTPCREL(%rip), %r13                   #378.13
        lea       1(%rax), %r8                                  #378.13
        movl      88(%rbp), %r10d                               #378.13
        cmove     %rsi, %r8                                     #378.13
        movl      92(%rbp), %r11d                               #378.13
        lea       .L_2__STRING.52(%rip), %rsi                   #378.13
        movl      96(%rbp), %ebp                                #378.13
        movl      %ebx, %edx                                    #378.13
        lea       __$U6(%rip), %rcx                             #378.13
        movl      $378, %r9d                                    #378.13
        xorl      %eax, %eax                                    #378.13
        movl      %r10d, (%rsp)                                 #378.13
        movl      %r11d, 8(%rsp)                                #378.13
        movq      (%r13), %rdi                                  #378.13
        movl      %ebp, 16(%rsp)                                #378.13
#       fprintf(FILE *, const char *, ...)
        call      fprintf@PLT                                   #378.13
                                # LOE r12 r13
..B20.78:                       # Preds ..B20.79
        addq      $32, %rsp                                     #378.13
	.cfi_def_cfa_offset 160
        jmp       ..B20.25      # Prob 100%                     #378.13
                                # LOE r12 r13
..B20.18:                       # Preds ..B20.8

###         }
###         else
###         {
###             setDefaultBlock();

        movq      %rbp, %rdi                                    #382.13
..___tag_value__ZN8yaskSite12spatialTunerEPcS0_dd.602:
#       yaskSite::setDefaultBlock(yaskSite *)
        call      _ZN8yaskSite15setDefaultBlockEv@PLT           #382.13
..___tag_value__ZN8yaskSite12spatialTunerEPcS0_dd.603:
                                # LOE rbp r12
..B20.19:                       # Preds ..B20.18

###             setDefaultSubBlock();

        movq      %rbp, %rdi                                    #383.13
..___tag_value__ZN8yaskSite12spatialTunerEPcS0_dd.604:
#       yaskSite::setDefaultSubBlock(yaskSite *)
        call      _ZN8yaskSite18setDefaultSubBlockEv@PLT        #383.13
..___tag_value__ZN8yaskSite12spatialTunerEPcS0_dd.605:
                                # LOE r12
..B20.20:                       # Preds ..B20.19

###             INFO_PRINT("Spatial Blocking not carried out, dim fits in cache");

        movl      $1140850688, %edi                             #384.13
        lea       32(%rsp), %rsi                                #384.13
..___tag_value__ZN8yaskSite12spatialTunerEPcS0_dd.606:
#       MPI_Comm_rank(MPI_Comm, int *)
        call      MPI_Comm_rank@PLT                             #384.13
..___tag_value__ZN8yaskSite12spatialTunerEPcS0_dd.607:
                                # LOE r12 eax
..B20.21:                       # Preds ..B20.20
        testl     %eax, %eax                                    #384.13
        je        ..B20.23      # Prob 50%                      #384.13
                                # LOE r12
..B20.22:                       # Preds ..B20.21
        movl      $-1, 32(%rsp)                                 #384.13
        movq      stderr@GOTPCREL(%rip), %r13                   #384.13
        jmp       ..B20.26      # Prob 100%                     #384.13
                                # LOE r12 r13
..B20.23:                       # Preds ..B20.21
        movl      32(%rsp), %ebp                                #384.13
        testl     %ebp, %ebp                                    #384.13
        jne       ..B20.95      # Prob 50%                      #384.13
                                # LOE r12 ebp
..B20.24:                       # Preds ..B20.23
        lea       .L_2__STRING.1(%rip), %rbx                    #384.13
        movl      $47, %eax                                     #384.13
        movq      %rbx, %rdx                                    #384.13
        movq      %rdx, %rcx                                    #384.13
        movd      %eax, %xmm1                                   #384.13
        andq      $-16, %rdx                                    #384.13
        punpcklbw %xmm1, %xmm1                                  #384.13
        andl      $15, %ecx                                     #384.13
        punpcklbw %xmm1, %xmm1                                  #384.13
        pshufd    $0, %xmm1, %xmm1                              #384.13
        pxor      %xmm0, %xmm0                                  #384.13
        movdqa    (%rdx), %xmm2                                 #384.13
        pcmpeqb   %xmm2, %xmm0                                  #384.13
        pmovmskb  %xmm0, %r10d                                  #384.13
        pcmpeqb   %xmm1, %xmm2                                  #384.13
        shrl      %cl, %r10d                                    #384.13
        lea       -1(%r10), %rax                                #384.13
        xorl      %eax, %r10d                                   #384.13
        pmovmskb  %xmm2, %eax                                   #384.13
        shrl      %cl, %eax                                     #384.13
        andl      %r10d, %eax                                   #384.13
        je        ..L608        # Prob 60%                      #384.13
        bsr       %rax, %rax                                    #384.13
        addq      %rcx, %rax                                    #384.13
        addq      %rdx, %rax                                    #384.13
..L608:                                                         #
        orl       %r10d, %r10d                                  #384.13
        jg        ..L610        # Prob 60%                      #384.13
..L609:                                                         #
        call      __intel_sse2_strrchr@PLT                      #384.13
..L610:                                                         #
                                # LOE rax rbx r12 ebp
..B20.81:                       # Preds ..B20.24
        movq      stderr@GOTPCREL(%rip), %r13                   #384.13
        testq     %rax, %rax                                    #384.13
        lea       .L_2__STRING.53(%rip), %rsi                   #384.13
        lea       1(%rax), %r8                                  #384.13
        cmove     %rbx, %r8                                     #384.13
        movl      %ebp, %edx                                    #384.13
        lea       __$U6(%rip), %rcx                             #384.13
        movl      $384, %r9d                                    #384.13
        xorl      %eax, %eax                                    #384.13
        movq      (%r13), %rdi                                  #384.13
#       fprintf(FILE *, const char *, ...)
        call      fprintf@PLT                                   #384.13
                                # LOE r12 r13
..B20.25:                       # Preds ..B20.78 ..B20.81
        movq      (%r13), %rdi                                  #384.13
#       fflush(FILE *)
        call      fflush@PLT                                    #384.13
                                # LOE r12 r13
..B20.26:                       # Preds ..B20.12 ..B20.25 ..B20.95 ..B20.22
        movl      $10, %edi                                     #384.13
        movq      (%r13), %rsi                                  #384.13
        call      fputc@PLT                                     #384.13
                                # LOE r12 r13
..B20.27:                       # Preds ..B20.26
        movq      (%r13), %rdi                                  #384.13
#       fflush(FILE *)
        call      fflush@PLT                                    #384.13
                                # LOE r12
..B20.28:                       # Preds ..B20.1 ..B20.27

###         }
### 
###         return true;

        movl      $1, %eax                                      #387.16
        addq      $112, %rsp                                    #387.16
	.cfi_def_cfa_offset 48
	.cfi_restore 6
        popq      %rbp                                          #387.16
	.cfi_def_cfa_offset 40
	.cfi_restore 3
        popq      %rbx                                          #387.16
	.cfi_def_cfa_offset 32
	.cfi_restore 15
        popq      %r15                                          #387.16
	.cfi_def_cfa_offset 24
	.cfi_restore 14
        popq      %r14                                          #387.16
	.cfi_def_cfa_offset 16
	.cfi_restore 13
        popq      %r13                                          #387.16
	.cfi_def_cfa_offset 8
        ret                                                     #387.16
	.cfi_def_cfa_offset 160
	.cfi_offset 3, -40
	.cfi_offset 6, -48
	.cfi_offset 13, -16
	.cfi_offset 14, -24
	.cfi_offset 15, -32
                                # LOE
..B20.29:                       # Preds ..B20.3

###     }
###     else
###     {
###         //don't make bz very small since its the inner dimension
###         int bz_min = 128;
###         int by_min = 4;
### 
###         bool blocked = false;
### 
###         double layer = (2*radius+1+1); //layer width

        movl      136(%rbp), %edx                               #397.27
        pxor      %xmm0, %xmm0                                  #397.36

###         cache_info OBC = cache(OBC_str);

        movsd     %xmm1, 88(%rsp)                               #398.32
        lea       8(%rsp), %rdi                                 #398.32
        movsd     %xmm3, 72(%rdi)                               #398.32
        xorl      %ebx, %ebx                                    #395.22
        lea       2(%rdx,%rdx), %ecx                            #397.36
        cvtsi2sd  %ecx, %xmm0                                   #397.36
        movsd     %xmm0, (%rsp)                                 #397.36
..___tag_value__ZN8yaskSite12spatialTunerEPcS0_dd.628:
#       cache(char *)
        call      _Z5cachePc@PLT                                #398.32
..___tag_value__ZN8yaskSite12spatialTunerEPcS0_dd.629:
                                # LOE rbp r12 r13 ebx
..B20.30:                       # Preds ..B20.29

###         cache_info IBC = cache(IBC_str);

        movq      %r13, %rsi                                    #399.32
        lea       40(%rsp), %rdi                                #399.32
..___tag_value__ZN8yaskSite12spatialTunerEPcS0_dd.630:
#       cache(char *)
        call      _Z5cachePc@PLT                                #399.32
..___tag_value__ZN8yaskSite12spatialTunerEPcS0_dd.631:
                                # LOE rbp r12 ebx
..B20.31:                       # Preds ..B20.30

### 
###         //TODO: determine how many threads are currently sharing the resources
###         //if its in shared mode
###         double OBC_words = (OBC.shared)?(sf_OBC*OBC.words)/nthreads:(sf_OBC*OBC.words);

        pxor      %xmm0, %xmm0                                  #403.60
        cvtsi2sd  56(%rbp), %xmm0                               #403.60
        movsd     80(%rsp), %xmm3                               #
        movsd     88(%rsp), %xmm1                               #
        mulsd     16(%rsp), %xmm3                               #403.49
        movsd     %xmm0, 72(%rsp)                               #403.60
        cmpb      $0, 32(%rsp)                                  #403.29
        je        ..B20.34      # Prob 50%                      #403.29
                                # LOE rbp r12 ebx xmm1 xmm3 ymm1 zmm1
..B20.32:                       # Preds ..B20.31
        divsd     72(%rsp), %xmm3                               #403.60
                                # LOE rbp r12 ebx xmm1 xmm3 ymm1 zmm1
..B20.34:                       # Preds ..B20.31 ..B20.32

###         double IBC_words = (IBC.shared)?(sf_IBC*IBC.words)/nthreads:(sf_IBC*IBC.words);

        movsd     48(%rsp), %xmm2                               #404.49
        mulsd     %xmm1, %xmm2                                  #404.49
        cmpb      $0, 64(%rsp)                                  #404.29
        je        ..B20.37      # Prob 50%                      #404.29
                                # LOE rbp r12 ebx xmm2 xmm3
..B20.35:                       # Preds ..B20.34
        divsd     72(%rsp), %xmm2                               #404.60
                                # LOE rbp r12 ebx xmm2 xmm3
..B20.37:                       # Preds ..B20.34 ..B20.35

### 
###         double n_z = (layer*((double)ry)*((double)rz))/(OBC_words);

        pxor      %xmm0, %xmm0                                  #406.38
        pxor      %xmm1, %xmm1                                  #406.51
        movl      108(%rbp), %r15d                              #406.38
        cvtsi2sd  %r15d, %xmm0                                  #406.38
        movl      112(%rbp), %r14d                              #406.51
        cvtsi2sd  %r14d, %xmm1                                  #406.51
        mulsd     (%rsp), %xmm0                                 #406.38
        mulsd     %xmm1, %xmm0                                  #406.51
        divsd     %xmm3, %xmm0                                  #406.56
        movsd     %xmm0, 80(%rsp)                               #406.56

###         //round n_z to next greatest multiple of nthreads
###         double n = ceil(n_z/nthreads)*nthreads;

        divsd     72(%rsp), %xmm0                               #408.20
        movsd     %xmm1, 88(%rsp)                               #406.51
        movsd     %xmm2, 96(%rsp)                               #408.20
        call      ceil@PLT                                      #408.20
                                # LOE rbp r12 ebx r14d r15d xmm0
..B20.84:                       # Preds ..B20.37
        movsd     96(%rsp), %xmm2                               #

###         double bz_start = std::min(IBC_words/layer, (double)(rz));
###         double bz_end = bz_min;
### 
###         //find bz_start: such that its perfect multiples of rz (to avoid reminder)
###         int bz_ratio_start = static_cast<int>(ceil(rz/bz_start));

        divsd     (%rsp), %xmm2                                 #413.47
        movsd     72(%rsp), %xmm1                               #408.39
        mulsd     %xmm0, %xmm1                                  #408.39
        movsd     88(%rsp), %xmm0                               #413.47
        movaps    %xmm0, %xmm3                                  #413.47
        movsd     %xmm1, 72(%rsp)                               #408.39
        minsd     %xmm2, %xmm3                                  #413.47
        divsd     %xmm3, %xmm0                                  #413.47
        call      ceil@PLT                                      #413.47
                                # LOE rbp r12 ebx r14d r15d xmm0
..B20.83:                       # Preds ..B20.84
        cvttsd2si %xmm0, %r13d                                  #413.47

###         int bz_ratio_end   = static_cast<int>(floor(rz/bz_end));

        movsd     .L_2il0floatpacket.14(%rip), %xmm0            #414.47
        mulsd     88(%rsp), %xmm0                               #414.47
        call      floor@PLT                                     #414.47
                                # LOE rbp r12 ebx r13d r14d r15d xmm0
..B20.82:                       # Preds ..B20.83

### 
###         double bz_tune, by_tune;
### 
###         if(n_z > 1)

        movsd     80(%rsp), %xmm2                               #418.18
        pxor      %xmm1, %xmm1                                  #416.9
        cvttsd2si %xmm0, %edx                                   #414.47
        comisd    .L_2il0floatpacket.16(%rip), %xmm2            #418.18
        movaps    %xmm1, %xmm0                                  #416.9
        jbe       ..B20.63      # Prob 5%                       #418.18
                                # LOE rbp r12 edx ebx r13d r14d r15d xmm0 xmm1
..B20.38:                       # Preds ..B20.82

###         {
###             for(int bz_ratio = bz_ratio_start; bz_ratio<= bz_ratio_end; ++bz_ratio)

        cmpl      %edx, %r13d                                   #420.59
        jg        ..B20.43      # Prob 10%                      #420.59
                                # LOE rbp r12 edx ebx r13d r14d r15d xmm0 xmm1
..B20.39:                       # Preds ..B20.38

###             {
###                 //now get correct bz_start and bz_end; with perfect multiples of rz
###                 bz_tune = rz/(static_cast<double>(bz_ratio));
###                 by_tune = f(static_cast<double>(bz_tune));

        imull     %r14d, %r15d                                  #424.27
        pxor      %xmm3, %xmm3                                  #424.27
        movsd     .L_2il0floatpacket.15(%rip), %xmm2            #393.20
        movsd     72(%rsp), %xmm5                               #393.20
        movsd     88(%rsp), %xmm6                               #393.20
        cvtsi2sd  %r15d, %xmm3                                  #424.27
                                # LOE rbp r12 edx ebx r13d xmm2 xmm3 xmm5 xmm6
..B20.40:                       # Preds ..B20.41 ..B20.39
        pxor      %xmm0, %xmm0                                  #423.51
        movaps    %xmm6, %xmm1                                  #423.51
        cvtsi2sd  %r13d, %xmm0                                  #423.51
        divsd     %xmm0, %xmm1                                  #423.51
        movaps    %xmm5, %xmm4                                  #424.27
        movaps    %xmm3, %xmm0                                  #424.27
        mulsd     %xmm1, %xmm4                                  #424.27
        divsd     %xmm4, %xmm0                                  #424.27

### 
###                 if(by_tune > by_min)

        comisd    %xmm2, %xmm0                                  #426.30
        ja        ..B20.62      # Prob 20%                      #426.30
                                # LOE rbp r12 edx ebx r13d xmm0 xmm1 xmm2 xmm3 xmm5 xmm6
..B20.41:                       # Preds ..B20.40
        incl      %r13d                                         #420.75
        cmpl      %edx, %r13d                                   #420.59
        jle       ..B20.40      # Prob 82%                      #420.59
                                # LOE rbp r12 edx ebx r13d xmm0 xmm1 xmm2 xmm3 xmm5 xmm6
..B20.43:                       # Preds ..B20.41 ..B20.62 ..B20.38

###                 {
###                     blocked = true;
###                     break;
###                 }
###             }
### 
###             if(!blocked)

        testl     %ebx, %ebx                                    #433.17
        jne       ..B20.53      # Prob 5%                       #433.17
                                # LOE rbp r12 ebx xmm0 xmm1
..B20.44:                       # Preds ..B20.43

###             {
###                 WARNING_PRINT("Spatial Blocking might not be helpful; please block manually if needed");

        movl      $1140850688, %edi                             #435.17
        lea       (%rsp), %rsi                                  #435.17
..___tag_value__ZN8yaskSite12spatialTunerEPcS0_dd.632:
#       MPI_Comm_rank(MPI_Comm, int *)
        call      MPI_Comm_rank@PLT                             #435.17
..___tag_value__ZN8yaskSite12spatialTunerEPcS0_dd.633:
                                # LOE r12 eax ebx
..B20.45:                       # Preds ..B20.44
        testl     %eax, %eax                                    #435.17
        je        ..B20.47      # Prob 50%                      #435.17
                                # LOE r12 ebx
..B20.46:                       # Preds ..B20.45
        movl      $-1, (%rsp)                                   #435.17
        movq      stderr@GOTPCREL(%rip), %rbp                   #435.17
        jmp       ..B20.50      # Prob 100%                     #435.17
                                # LOE rbp r12 ebx
..B20.47:                       # Preds ..B20.45
        movl      (%rsp), %r9d                                  #435.17
        testl     %r9d, %r9d                                    #435.17
        jne       ..B20.94      # Prob 50%                      #435.17
                                # LOE r12 ebx r9d
..B20.48:                       # Preds ..B20.47
        lea       .L_2__STRING.1(%rip), %rsi                    #435.17
        movl      $47, %eax                                     #435.17
        movq      %rsi, %rdx                                    #435.17
        movq      %rdx, %rcx                                    #435.17
        movd      %eax, %xmm1                                   #435.17
        andq      $-16, %rdx                                    #435.17
        punpcklbw %xmm1, %xmm1                                  #435.17
        andl      $15, %ecx                                     #435.17
        punpcklbw %xmm1, %xmm1                                  #435.17
        pshufd    $0, %xmm1, %xmm1                              #435.17
        pxor      %xmm0, %xmm0                                  #435.17
        movdqa    (%rdx), %xmm2                                 #435.17
        pcmpeqb   %xmm2, %xmm0                                  #435.17
        pmovmskb  %xmm0, %r10d                                  #435.17
        pcmpeqb   %xmm1, %xmm2                                  #435.17
        shrl      %cl, %r10d                                    #435.17
        lea       -1(%r10), %rax                                #435.17
        xorl      %eax, %r10d                                   #435.17
        pmovmskb  %xmm2, %eax                                   #435.17
        shrl      %cl, %eax                                     #435.17
        andl      %r10d, %eax                                   #435.17
        je        ..L634        # Prob 60%                      #435.17
        bsr       %rax, %rax                                    #435.17
        addq      %rcx, %rax                                    #435.17
        addq      %rdx, %rax                                    #435.17
..L634:                                                         #
        orl       %r10d, %r10d                                  #435.17
        jg        ..L636        # Prob 60%                      #435.17
..L635:                                                         #
        call      __intel_sse2_strrchr@PLT                      #435.17
..L636:                                                         #
                                # LOE rax rsi r12 ebx r9d
..B20.86:                       # Preds ..B20.48
        movq      stderr@GOTPCREL(%rip), %rbp                   #435.17
        testq     %rax, %rax                                    #435.17
        movl      %r9d, %edx                                    #435.17
        lea       1(%rax), %r8                                  #435.17
        cmove     %rsi, %r8                                     #435.17
        lea       .L_2__STRING.54(%rip), %rsi                   #435.17
        lea       __$U6(%rip), %rcx                             #435.17
        movl      $435, %r9d                                    #435.17
        xorl      %eax, %eax                                    #435.17
        movq      (%rbp), %rdi                                  #435.17
#       fprintf(FILE *, const char *, ...)
        call      fprintf@PLT                                   #435.17
                                # LOE rbp r12 ebx
..B20.49:                       # Preds ..B20.86
        movq      (%rbp), %rdi                                  #435.17
#       fflush(FILE *)
        call      fflush@PLT                                    #435.17
                                # LOE rbp r12 ebx
..B20.50:                       # Preds ..B20.49 ..B20.94 ..B20.46
        movl      $10, %edi                                     #435.17
        movq      (%rbp), %rsi                                  #435.17
        call      fputc@PLT                                     #435.17
                                # LOE rbp r12 ebx
..B20.51:                       # Preds ..B20.50
        movq      (%rbp), %rdi                                  #435.17
#       fflush(FILE *)
        call      fflush@PLT                                    #435.17
                                # LOE r12 ebx
..B20.52:                       # Preds ..B20.51 ..B20.61 ..B20.73

###             }
###             else
###             {
###                 bx = rx;
###                 bz = static_cast<int>(round(bz_tune));
###                 by = static_cast<int>(round(by_tune));
###                 //now set subBlocks, based on by and bz
###                 setDefaultSubBlock();
### 
###                 INFO_PRINT("Found: bx=%d by=%d, bz=%d", bx, by, bz);
###             }
###         }
###         else
###         {
###             INFO_PRINT("Spatial Blocking not carried out, dim fits in cache");
###             setDefaultBlock();
###             setDefaultSubBlock();
###             blocked = true;
###         }
### 
###         return blocked;

        movl      %ebx, %eax                                    #456.16
        addq      $112, %rsp                                    #456.16
	.cfi_def_cfa_offset 48
	.cfi_restore 6
        popq      %rbp                                          #456.16
	.cfi_def_cfa_offset 40
	.cfi_restore 3
        popq      %rbx                                          #456.16
	.cfi_def_cfa_offset 32
	.cfi_restore 15
        popq      %r15                                          #456.16
	.cfi_def_cfa_offset 24
	.cfi_restore 14
        popq      %r14                                          #456.16
	.cfi_def_cfa_offset 16
	.cfi_restore 13
        popq      %r13                                          #456.16
	.cfi_def_cfa_offset 8
        ret                                                     #456.16
	.cfi_def_cfa_offset 160
	.cfi_offset 3, -40
	.cfi_offset 6, -48
	.cfi_offset 13, -16
	.cfi_offset 14, -24
	.cfi_offset 15, -32
                                # LOE
..B20.53:                       # Preds ..B20.43                # Infreq
        movsd     .L_2il0floatpacket.12(%rip), %xmm4            #440.39
        movq      %rbp, %rdi                                    #443.17
        pxor      %xmm2, %xmm2                                  #440.39
        movaps    %xmm4, %xmm3                                  #440.39
        comisd    %xmm2, %xmm1                                  #440.39
        movl      104(%rbp), %edx                               #439.22
        jae       ..L654        # Prob 50%                      #440.39
        movsd     .L_2il0floatpacket.13(%rip), %xmm3            #440.39
..L654:                                                         #
        movl      %edx, 88(%rbp)                                #439.17
        addsd     %xmm1, %xmm3                                  #440.39
        pxor      %xmm1, %xmm1                                  #441.39
        comisd    %xmm1, %xmm0                                  #441.39
        cvttsd2si %xmm3, %ecx                                   #440.39
        jae       ..L655        # Prob 50%                      #441.39
        movsd     .L_2il0floatpacket.13(%rip), %xmm4            #441.39
..L655:                                                         #
        movl      %ecx, 96(%rbp)                                #440.17
        addsd     %xmm0, %xmm4                                  #441.39
        cvttsd2si %xmm4, %esi                                   #441.39
        movl      %esi, 92(%rbp)                                #441.17
..___tag_value__ZN8yaskSite12spatialTunerEPcS0_dd.656:
#       yaskSite::setDefaultSubBlock(yaskSite *)
        call      _ZN8yaskSite18setDefaultSubBlockEv@PLT        #443.17
..___tag_value__ZN8yaskSite12spatialTunerEPcS0_dd.657:
                                # LOE rbp r12 ebx
..B20.54:                       # Preds ..B20.53                # Infreq
        movl      $1140850688, %edi                             #445.17
        lea       (%rsp), %rsi                                  #445.17
..___tag_value__ZN8yaskSite12spatialTunerEPcS0_dd.658:
#       MPI_Comm_rank(MPI_Comm, int *)
        call      MPI_Comm_rank@PLT                             #445.17
..___tag_value__ZN8yaskSite12spatialTunerEPcS0_dd.659:
                                # LOE rbp r12 eax ebx
..B20.55:                       # Preds ..B20.54                # Infreq
        testl     %eax, %eax                                    #445.17
        je        ..B20.57      # Prob 50%                      #445.17
                                # LOE rbp r12 ebx
..B20.56:                       # Preds ..B20.55                # Infreq
        movl      $-1, (%rsp)                                   #445.17
        movq      stderr@GOTPCREL(%rip), %r13                   #445.17
        jmp       ..B20.60      # Prob 100%                     #445.17
                                # LOE r12 r13 ebx
..B20.57:                       # Preds ..B20.55                # Infreq
        movl      (%rsp), %r9d                                  #445.17
        testl     %r9d, %r9d                                    #445.17
        jne       ..B20.93      # Prob 50%                      #445.17
                                # LOE rbp r12 ebx r9d
..B20.58:                       # Preds ..B20.57                # Infreq
        lea       .L_2__STRING.1(%rip), %rsi                    #445.17
        movl      $47, %eax                                     #445.17
        movq      %rsi, %rdx                                    #445.17
        movq      %rdx, %rcx                                    #445.17
        movd      %eax, %xmm1                                   #445.17
        andq      $-16, %rdx                                    #445.17
        punpcklbw %xmm1, %xmm1                                  #445.17
        andl      $15, %ecx                                     #445.17
        punpcklbw %xmm1, %xmm1                                  #445.17
        pshufd    $0, %xmm1, %xmm1                              #445.17
        pxor      %xmm0, %xmm0                                  #445.17
        movdqa    (%rdx), %xmm2                                 #445.17
        pcmpeqb   %xmm2, %xmm0                                  #445.17
        pmovmskb  %xmm0, %r10d                                  #445.17
        pcmpeqb   %xmm1, %xmm2                                  #445.17
        shrl      %cl, %r10d                                    #445.17
        lea       -1(%r10), %rax                                #445.17
        xorl      %eax, %r10d                                   #445.17
        pmovmskb  %xmm2, %eax                                   #445.17
        shrl      %cl, %eax                                     #445.17
        andl      %r10d, %eax                                   #445.17
        je        ..L660        # Prob 60%                      #445.17
        bsr       %rax, %rax                                    #445.17
        addq      %rcx, %rax                                    #445.17
        addq      %rdx, %rax                                    #445.17
..L660:                                                         #
        orl       %r10d, %r10d                                  #445.17
        jg        ..L662        # Prob 60%                      #445.17
..L661:                                                         #
        call      __intel_sse2_strrchr@PLT                      #445.17
..L662:                                                         #
                                # LOE rax rbp rsi r12 ebx r9d
..B20.89:                       # Preds ..B20.58                # Infreq
        addq      $-32, %rsp                                    #445.17
	.cfi_def_cfa_offset 192
        testq     %rax, %rax                                    #445.17
        movq      stderr@GOTPCREL(%rip), %r13                   #445.17
        lea       1(%rax), %r8                                  #445.17
        movl      88(%rbp), %r10d                               #445.17
        cmove     %rsi, %r8                                     #445.17
        movl      92(%rbp), %r11d                               #445.17
        lea       .L_2__STRING.52(%rip), %rsi                   #445.17
        movl      96(%rbp), %ebp                                #445.17
        movl      %r9d, %edx                                    #445.17
        lea       __$U6(%rip), %rcx                             #445.17
        movl      $445, %r9d                                    #445.17
        xorl      %eax, %eax                                    #445.17
        movl      %r10d, (%rsp)                                 #445.17
        movl      %r11d, 8(%rsp)                                #445.17
        movq      (%r13), %rdi                                  #445.17
        movl      %ebp, 16(%rsp)                                #445.17
#       fprintf(FILE *, const char *, ...)
        call      fprintf@PLT                                   #445.17
                                # LOE r12 r13 ebx
..B20.88:                       # Preds ..B20.89                # Infreq
        addq      $32, %rsp                                     #445.17
	.cfi_def_cfa_offset 160
                                # LOE r12 r13 ebx
..B20.59:                       # Preds ..B20.88                # Infreq
        movq      (%r13), %rdi                                  #445.17
#       fflush(FILE *)
        call      fflush@PLT                                    #445.17
                                # LOE r12 r13 ebx
..B20.60:                       # Preds ..B20.59 ..B20.93 ..B20.56 # Infreq
        movl      $10, %edi                                     #445.17
        movq      (%r13), %rsi                                  #445.17
        call      fputc@PLT                                     #445.17
                                # LOE r12 r13 ebx
..B20.61:                       # Preds ..B20.60                # Infreq
        movq      (%r13), %rdi                                  #445.17
#       fflush(FILE *)
        call      fflush@PLT                                    #445.17
        jmp       ..B20.52      # Prob 100%                     #445.17
                                # LOE r12 ebx
..B20.62:                       # Preds ..B20.40                # Infreq
        movl      $1, %ebx                                      #428.21
        jmp       ..B20.43      # Prob 100%                     #428.21
                                # LOE rbp r12 ebx xmm0 xmm1
..B20.63:                       # Preds ..B20.82                # Infreq
        movl      $1140850688, %edi                             #450.13
        lea       (%rsp), %rsi                                  #450.13
..___tag_value__ZN8yaskSite12spatialTunerEPcS0_dd.665:
#       MPI_Comm_rank(MPI_Comm, int *)
        call      MPI_Comm_rank@PLT                             #450.13
..___tag_value__ZN8yaskSite12spatialTunerEPcS0_dd.666:
                                # LOE rbp r12 eax
..B20.64:                       # Preds ..B20.63                # Infreq
        testl     %eax, %eax                                    #450.13
        je        ..B20.66      # Prob 50%                      #450.13
                                # LOE rbp r12
..B20.65:                       # Preds ..B20.64                # Infreq
        movl      $-1, (%rsp)                                   #450.13
        movq      stderr@GOTPCREL(%rip), %rbx                   #450.13
        jmp       ..B20.69      # Prob 100%                     #450.13
                                # LOE rbx rbp r12
..B20.66:                       # Preds ..B20.64                # Infreq
        movl      (%rsp), %r9d                                  #450.13
        testl     %r9d, %r9d                                    #450.13
        jne       ..B20.92      # Prob 50%                      #450.13
                                # LOE rbp r12 r9d
..B20.67:                       # Preds ..B20.66                # Infreq
        lea       .L_2__STRING.1(%rip), %rsi                    #450.13
        movl      $47, %eax                                     #450.13
        movq      %rsi, %rdx                                    #450.13
        movq      %rdx, %rcx                                    #450.13
        movd      %eax, %xmm1                                   #450.13
        andq      $-16, %rdx                                    #450.13
        punpcklbw %xmm1, %xmm1                                  #450.13
        andl      $15, %ecx                                     #450.13
        punpcklbw %xmm1, %xmm1                                  #450.13
        pshufd    $0, %xmm1, %xmm1                              #450.13
        pxor      %xmm0, %xmm0                                  #450.13
        movdqa    (%rdx), %xmm2                                 #450.13
        pcmpeqb   %xmm2, %xmm0                                  #450.13
        pmovmskb  %xmm0, %r10d                                  #450.13
        pcmpeqb   %xmm1, %xmm2                                  #450.13
        shrl      %cl, %r10d                                    #450.13
        lea       -1(%r10), %rax                                #450.13
        xorl      %eax, %r10d                                   #450.13
        pmovmskb  %xmm2, %eax                                   #450.13
        shrl      %cl, %eax                                     #450.13
        andl      %r10d, %eax                                   #450.13
        je        ..L667        # Prob 60%                      #450.13
        bsr       %rax, %rax                                    #450.13
        addq      %rcx, %rax                                    #450.13
        addq      %rdx, %rax                                    #450.13
..L667:                                                         #
        orl       %r10d, %r10d                                  #450.13
        jg        ..L669        # Prob 60%                      #450.13
..L668:                                                         #
        call      __intel_sse2_strrchr@PLT                      #450.13
..L669:                                                         #
                                # LOE rax rbp rsi r12 r9d
..B20.91:                       # Preds ..B20.67                # Infreq
        movq      stderr@GOTPCREL(%rip), %rbx                   #450.13
        testq     %rax, %rax                                    #450.13
        movl      %r9d, %edx                                    #450.13
        lea       1(%rax), %r8                                  #450.13
        cmove     %rsi, %r8                                     #450.13
        lea       .L_2__STRING.53(%rip), %rsi                   #450.13
        lea       __$U6(%rip), %rcx                             #450.13
        movl      $450, %r9d                                    #450.13
        xorl      %eax, %eax                                    #450.13
        movq      (%rbx), %rdi                                  #450.13
#       fprintf(FILE *, const char *, ...)
        call      fprintf@PLT                                   #450.13
                                # LOE rbx rbp r12
..B20.68:                       # Preds ..B20.91                # Infreq
        movq      (%rbx), %rdi                                  #450.13
#       fflush(FILE *)
        call      fflush@PLT                                    #450.13
                                # LOE rbx rbp r12
..B20.69:                       # Preds ..B20.68 ..B20.92 ..B20.65 # Infreq
        movl      $10, %edi                                     #450.13
        movq      (%rbx), %rsi                                  #450.13
        call      fputc@PLT                                     #450.13
                                # LOE rbx rbp r12
..B20.70:                       # Preds ..B20.69                # Infreq
        movq      (%rbx), %rdi                                  #450.13
#       fflush(FILE *)
        call      fflush@PLT                                    #450.13
                                # LOE rbp r12
..B20.71:                       # Preds ..B20.70                # Infreq
        movq      %rbp, %rdi                                    #451.13
..___tag_value__ZN8yaskSite12spatialTunerEPcS0_dd.670:
#       yaskSite::setDefaultBlock(yaskSite *)
        call      _ZN8yaskSite15setDefaultBlockEv@PLT           #451.13
..___tag_value__ZN8yaskSite12spatialTunerEPcS0_dd.671:
                                # LOE rbp r12
..B20.72:                       # Preds ..B20.71                # Infreq
        movq      %rbp, %rdi                                    #452.13
..___tag_value__ZN8yaskSite12spatialTunerEPcS0_dd.672:
#       yaskSite::setDefaultSubBlock(yaskSite *)
        call      _ZN8yaskSite18setDefaultSubBlockEv@PLT        #452.13
..___tag_value__ZN8yaskSite12spatialTunerEPcS0_dd.673:
                                # LOE r12
..B20.73:                       # Preds ..B20.72                # Infreq
        movl      $1, %ebx                                      #453.13
        jmp       ..B20.52      # Prob 100%                     #453.13
                                # LOE r12 ebx
..B20.92:                       # Preds ..B20.66                # Infreq
        movq      stderr@GOTPCREL(%rip), %rbx                   #378.13
        jmp       ..B20.69      # Prob 100%                     #378.13
                                # LOE rbx rbp r12
..B20.93:                       # Preds ..B20.57                # Infreq
        movq      stderr@GOTPCREL(%rip), %r13                   #378.13
        jmp       ..B20.60      # Prob 100%                     #378.13
                                # LOE r12 r13 ebx
..B20.94:                       # Preds ..B20.47                # Infreq
        movq      stderr@GOTPCREL(%rip), %rbp                   #378.13
        jmp       ..B20.50      # Prob 100%                     #378.13
                                # LOE rbp r12 ebx
..B20.95:                       # Preds ..B20.13 ..B20.23       # Infreq
        movq      stderr@GOTPCREL(%rip), %r13                   #378.13
        jmp       ..B20.26      # Prob 100%                     #378.13
        .align    16,0x90
	.cfi_endproc
                                # LOE r12 r13
# mark_end;
	.type	_ZN8yaskSite12spatialTunerEPcS0_dd,@function
	.size	_ZN8yaskSite12spatialTunerEPcS0_dd,.-_ZN8yaskSite12spatialTunerEPcS0_dd
	.data
# -- End  _ZN8yaskSite12spatialTunerEPcS0_dd
	.text
# -- Begin  _ZN8yaskSite8runBenchEv
	.text
# mark_begin;
       .align    16,0x90
	.globl _ZN8yaskSite8runBenchEv
# --- yaskSite::runBench(yaskSite *)
_ZN8yaskSite8runBenchEv:
# parameter 1: %rdi
..B21.1:                        # Preds ..B21.0

### {

	.cfi_startproc
	.cfi_personality 0x93,DW.ref.__gxx_personality_v0
..___tag_value__ZN8yaskSite8runBenchEv.675:
..L676:
                                                        #578.1
        pushq     %r14                                          #578.1
	.cfi_def_cfa_offset 16
	.cfi_offset 14, -16
        subq      $128, %rsp                                    #578.1
	.cfi_def_cfa_offset 144
        movq      %rdi, %r14                                    #578.1

###     SYSTEM(RUN_CMD);

        lea       112(%rsp), %rdi                               #579.5
        movl      56(%r14), %ecx                                #579.5
        movl      60(%r14), %r11d                               #579.5
        movl      116(%r14), %eax                               #579.5
        movl      120(%r14), %edx                               #579.5
        lea       -1(%rcx), %r10d                               #579.5
        movl      124(%r14), %esi                               #579.5
        movq      $0, (%rsp)                                    #579.5
        movl      %r10d, 8(%rsp)                                #579.5
        movl      128(%r14), %r8d                               #579.5
        movl      88(%r14), %r9d                                #579.5
        movl      %r11d, 16(%rsp)                               #579.5
        movl      %eax, 24(%rsp)                                #579.5
        movl      92(%r14), %r10d                               #579.5
        movl      96(%r14), %r11d                               #579.5
        movl      %edx, 32(%rsp)                                #579.5
        movl      %esi, 40(%rsp)                                #579.5
        lea       .L_2__STRING.58(%rip), %rsi                   #579.5
        movl      76(%r14), %eax                                #579.5
        movl      %r8d, 48(%rsp)                                #579.5
        movl      %r9d, 56(%rsp)                                #579.5
        movl      %r10d, 64(%rsp)                               #579.5
        movl      %r11d, 72(%rsp)                               #579.5
        movl      %eax, 80(%rsp)                                #579.5
        movl      80(%r14), %eax                                #579.5
        movl      %eax, 88(%rsp)                                #579.5
        movl      84(%r14), %eax                                #579.5
        movl      %eax, 96(%rsp)                                #579.5
        xorl      %eax, %eax                                    #579.5
        movq      40(%r14), %rdx                                #579.5
        movq      8(%r14), %r8                                  #579.5
        movq      16(%r14), %r9                                 #579.5
..___tag_value__ZN8yaskSite8runBenchEv.680:
#       asprintf(char **, const char *, ...)
        call      asprintf@PLT                                  #579.5
..___tag_value__ZN8yaskSite8runBenchEv.681:
                                # LOE rbx rbp r12 r13 r14 r15
..B21.9:                        # Preds ..B21.1
        addq      $112, %rsp                                    #579.5
	.cfi_def_cfa_offset 32
                                # LOE rbx rbp r12 r13 r14 r15
..B21.2:                        # Preds ..B21.9
        lea       .L_2__STRING.18(%rip), %rsi                   #579.5
        lea       8(%rsp), %rdi                                 #579.5
        lea       .L_2__STRING.17(%rip), %rcx                   #579.5
        xorl      %eax, %eax                                    #579.5
        movq      (%rsp), %rdx                                  #579.5
..___tag_value__ZN8yaskSite8runBenchEv.683:
#       asprintf(char **, const char *, ...)
        call      asprintf@PLT                                  #579.5
..___tag_value__ZN8yaskSite8runBenchEv.684:
                                # LOE rbx rbp r12 r13 r14 r15
..B21.3:                        # Preds ..B21.2
        movq      %r14, %rdi                                    #579.5
        movq      8(%rsp), %rsi                                 #579.5
..___tag_value__ZN8yaskSite8runBenchEv.685:
#       yaskSite::systemCall(yaskSite *, char *)
        call      _ZN8yaskSite10systemCallEPc@PLT               #579.5
..___tag_value__ZN8yaskSite8runBenchEv.686:
                                # LOE rbx rbp r12 r13 r15
..B21.4:                        # Preds ..B21.3
        movq      (%rsp), %rdi                                  #579.5
#       free(void *)
        call      free@PLT                                      #579.5
                                # LOE rbx rbp r12 r13 r15
..B21.5:                        # Preds ..B21.4
        movq      8(%rsp), %rdi                                 #579.5
#       free(void *)
        call      free@PLT                                      #579.5
                                # LOE rbx rbp r12 r13 r15
..B21.6:                        # Preds ..B21.5

### }

        addq      $16, %rsp                                     #580.1
	.cfi_def_cfa_offset 16
	.cfi_restore 14
        popq      %r14                                          #580.1
	.cfi_def_cfa_offset 8
        ret                                                     #580.1
        .align    16,0x90
	.cfi_endproc
                                # LOE
# mark_end;
	.type	_ZN8yaskSite8runBenchEv,@function
	.size	_ZN8yaskSite8runBenchEv,.-_ZN8yaskSite8runBenchEv
	.data
# -- End  _ZN8yaskSite8runBenchEv
	.text
# -- Begin  _ZN8yaskSite3runEv
	.text
# mark_begin;
       .align    16,0x90
	.globl _ZN8yaskSite3runEv
# --- yaskSite::run(yaskSite *)
_ZN8yaskSite3runEv:
# parameter 1: %rdi
..B22.1:                        # Preds ..B22.0

### {

	.cfi_startproc
	.cfi_personality 0x93,DW.ref.__gxx_personality_v0
..___tag_value__ZN8yaskSite3runEv.691:
..L692:
                                                        #625.1
        pushq     %r13                                          #625.1
	.cfi_def_cfa_offset 16
	.cfi_offset 13, -16
        pushq     %r14                                          #625.1
	.cfi_def_cfa_offset 24
	.cfi_offset 14, -24
        subq      $24, %rsp                                     #625.1
	.cfi_def_cfa_offset 48
        movq      %rdi, %r13                                    #625.1

###     if(needUpdate())

..___tag_value__ZN8yaskSite3runEv.698:
#       yaskSite::needUpdate(yaskSite *)
        call      _ZN8yaskSite10needUpdateEv@PLT                #626.8
..___tag_value__ZN8yaskSite3runEv.699:
                                # LOE rbx rbp r12 r13 r15 eax
..B22.2:                        # Preds ..B22.1
        testb     %al, %al                                      #626.8
        jne       ..B22.32      # Prob 5%                       #626.8
                                # LOE rbx rbp r12 r13 r15
..B22.3:                        # Preds ..B22.32 ..B22.2

###     {
###         init();
###     }
### 
###     INFO_PRINT("Running %s : nthreads=%d, dim='t=%d,x=%d,y=%d,z=%d' region='t=%d,x=%d,y=%d,z=%d' block='x=%d,y=%d,z=%d' subBlock='x=%d,y=%d,z=%d'", stencilCode, nthreads, dt,dx,dy,dz, rt, rx, ry, rz, bx,by,bz, sbx,sby,sbz);

        movl      $1140850688, %edi                             #631.5
        lea       8(%rsp), %rsi                                 #631.5
..___tag_value__ZN8yaskSite3runEv.700:
#       MPI_Comm_rank(MPI_Comm, int *)
        call      MPI_Comm_rank@PLT                             #631.5
..___tag_value__ZN8yaskSite3runEv.701:
                                # LOE rbx rbp r12 r13 r15 eax
..B22.4:                        # Preds ..B22.3
        testl     %eax, %eax                                    #631.5
        je        ..B22.6       # Prob 50%                      #631.5
                                # LOE rbx rbp r12 r13 r15
..B22.5:                        # Preds ..B22.4
        movl      $-1, 8(%rsp)                                  #631.5
        movq      stderr@GOTPCREL(%rip), %r14                   #631.5
        jmp       ..B22.9       # Prob 100%                     #631.5
                                # LOE rbx rbp r12 r13 r14 r15
..B22.6:                        # Preds ..B22.4
        movl      8(%rsp), %r9d                                 #631.5
        testl     %r9d, %r9d                                    #631.5
        jne       ..B22.44      # Prob 50%                      #631.5
                                # LOE rbx rbp r12 r13 r15 r9d
..B22.7:                        # Preds ..B22.6
        lea       .L_2__STRING.1(%rip), %rsi                    #631.5
        movl      $47, %eax                                     #631.5
        movq      %rsi, %rdx                                    #631.5
        movq      %rdx, %rcx                                    #631.5
        movd      %eax, %xmm1                                   #631.5
        andq      $-16, %rdx                                    #631.5
        punpcklbw %xmm1, %xmm1                                  #631.5
        andl      $15, %ecx                                     #631.5
        punpcklbw %xmm1, %xmm1                                  #631.5
        pshufd    $0, %xmm1, %xmm1                              #631.5
        pxor      %xmm0, %xmm0                                  #631.5
        movdqa    (%rdx), %xmm2                                 #631.5
        pcmpeqb   %xmm2, %xmm0                                  #631.5
        pmovmskb  %xmm0, %r10d                                  #631.5
        pcmpeqb   %xmm1, %xmm2                                  #631.5
        shrl      %cl, %r10d                                    #631.5
        lea       -1(%r10), %rax                                #631.5
        xorl      %eax, %r10d                                   #631.5
        pmovmskb  %xmm2, %eax                                   #631.5
        shrl      %cl, %eax                                     #631.5
        andl      %r10d, %eax                                   #631.5
        je        ..L702        # Prob 60%                      #631.5
        bsr       %rax, %rax                                    #631.5
        addq      %rcx, %rax                                    #631.5
        addq      %rdx, %rax                                    #631.5
..L702:                                                         #
        orl       %r10d, %r10d                                  #631.5
        jg        ..L704        # Prob 60%                      #631.5
..L703:                                                         #
        call      __intel_sse2_strrchr@PLT                      #631.5
..L704:                                                         #
                                # LOE rax rbx rbp rsi r12 r13 r15 r9d
..B22.38:                       # Preds ..B22.7
        movl      84(%r13), %r14d                               #631.5
        testq     %rax, %rax                                    #631.5
        pushq     %r14                                          #631.5
	.cfi_def_cfa_offset 56
        movl      80(%r13), %r10d                               #631.5
        movl      %r9d, %edx                                    #631.5
        pushq     %r10                                          #631.5
	.cfi_def_cfa_offset 64
        movl      76(%r13), %r11d                               #631.5
        pushq     %r11                                          #631.5
	.cfi_def_cfa_offset 72
        movl      96(%r13), %ecx                                #631.5
        pushq     %rcx                                          #631.5
	.cfi_def_cfa_offset 80
        movl      92(%r13), %r14d                               #631.5
        pushq     %r14                                          #631.5
	.cfi_def_cfa_offset 88
        movl      88(%r13), %r8d                                #631.5
        pushq     %r8                                           #631.5
	.cfi_def_cfa_offset 96
        movl      112(%r13), %r10d                              #631.5
        lea       1(%rax), %r8                                  #631.5
        pushq     %r10                                          #631.5
	.cfi_def_cfa_offset 104
        movl      108(%r13), %r11d                              #631.5
        cmove     %rsi, %r8                                     #631.5
        movl      $631, %r9d                                    #631.5
        pushq     %r11                                          #631.5
	.cfi_def_cfa_offset 112
        movl      104(%r13), %ecx                               #631.5
        lea       .L_2__STRING.59(%rip), %rsi                   #631.5
        pushq     %rcx                                          #631.5
	.cfi_def_cfa_offset 120
        movl      100(%r13), %ecx                               #631.5
        xorl      %eax, %eax                                    #631.5
        pushq     %rcx                                          #631.5
	.cfi_def_cfa_offset 128
        movl      128(%r13), %ecx                               #631.5
        pushq     %rcx                                          #631.5
	.cfi_def_cfa_offset 136
        movl      124(%r13), %ecx                               #631.5
        pushq     %rcx                                          #631.5
	.cfi_def_cfa_offset 144
        movl      120(%r13), %ecx                               #631.5
        pushq     %rcx                                          #631.5
	.cfi_def_cfa_offset 152
        movq      stderr@GOTPCREL(%rip), %r14                   #631.5
        movl      116(%r13), %ecx                               #631.5
        pushq     %rcx                                          #631.5
	.cfi_def_cfa_offset 160
        movl      56(%r13), %ecx                                #631.5
        pushq     %rcx                                          #631.5
	.cfi_def_cfa_offset 168
        lea       __$U9(%rip), %rcx                             #631.5
        pushq     32(%r13)                                      #631.5
	.cfi_def_cfa_offset 176
        movq      (%r14), %rdi                                  #631.5
#       fprintf(FILE *, const char *, ...)
        call      fprintf@PLT                                   #631.5
                                # LOE rbx rbp r12 r13 r14 r15
..B22.37:                       # Preds ..B22.38
        addq      $128, %rsp                                    #631.5
	.cfi_def_cfa_offset 48
                                # LOE rbx rbp r12 r13 r14 r15
..B22.8:                        # Preds ..B22.37
        movq      (%r14), %rdi                                  #631.5
#       fflush(FILE *)
        call      fflush@PLT                                    #631.5
                                # LOE rbx rbp r12 r13 r14 r15
..B22.9:                        # Preds ..B22.5 ..B22.8 ..B22.44
        movl      $10, %edi                                     #631.5
        movq      (%r14), %rsi                                  #631.5
        call      fputc@PLT                                     #631.5
                                # LOE rbx rbp r12 r13 r14 r15
..B22.10:                       # Preds ..B22.9
        movq      (%r14), %rdi                                  #631.5
#       fflush(FILE *)
        call      fflush@PLT                                    #631.5
                                # LOE rbx rbp r12 r13 r14 r15
..B22.11:                       # Preds ..B22.10

### 
### 
###     if( dz==-1 )

        cmpl      $-1, 128(%r13)                                #634.13
        je        ..B22.24      # Prob 16%                      #634.13
                                # LOE rbx rbp r12 r13 r14 r15
..B22.12:                       # Preds ..B22.31 ..B22.11

###     {
###         ERROR_PRINT("ERROR: It seems you haven't set the dimension\n");
###     }
### 
### #ifdef ENABLE_LOOPADAPT
###    printf("calling loop adapt begin\n");
###    loop_adapt_begin(totalTime, 0);
### #endif
### 
###     if(dynStencil(this)<0)

        movq      %r13, %rdi                                    #644.8
..___tag_value__ZN8yaskSite3runEv.722:
        call      *192(%r13)                                    #644.8
..___tag_value__ZN8yaskSite3runEv.723:
                                # LOE rbx rbp r12 r13 r14 r15 eax
..B22.13:                       # Preds ..B22.12
        testl     %eax, %eax                                    #644.25
        jl        ..B22.16      # Prob 16%                      #644.25
                                # LOE rbx rbp r12 r13 r14 r15
..B22.14:                       # Preds ..B22.23 ..B22.13

###     {
###         ERROR_PRINT("Stencil is not generated");
###     }
### 
### #ifdef ENABLE_LOOPADAPT
###     loop_adapt_end(totalTime, 0);
### #endif
### 
###     printf("totalTime = %d\n", totalTime);

        lea       .L_2__STRING.61(%rip), %rdi                   #653.5
        xorl      %eax, %eax                                    #653.5
        movl      132(%r13), %esi                               #653.5
..___tag_value__ZN8yaskSite3runEv.724:
#       printf(const char *, ...)
        call      printf@PLT                                    #653.5
..___tag_value__ZN8yaskSite3runEv.725:
                                # LOE rbx rbp r12 r13 r15
..B22.15:                       # Preds ..B22.14

###     totalTime+=dt;

        movl      116(%r13), %eax                               #654.16
        addl      %eax, 132(%r13)                               #654.5

### 
###     onceRun = true;

        movb      $1, 166(%r13)                                 #656.5

### }

        addq      $24, %rsp                                     #657.1
	.cfi_def_cfa_offset 24
	.cfi_restore 14
        popq      %r14                                          #657.1
	.cfi_def_cfa_offset 16
	.cfi_restore 13
        popq      %r13                                          #657.1
	.cfi_def_cfa_offset 8
        ret                                                     #657.1
	.cfi_def_cfa_offset 48
	.cfi_offset 13, -16
	.cfi_offset 14, -24
                                # LOE
..B22.16:                       # Preds ..B22.13                # Infreq
        movl      $1140850688, %edi                             #646.9
        lea       4(%rsp), %rsi                                 #646.9
..___tag_value__ZN8yaskSite3runEv.734:
#       MPI_Comm_rank(MPI_Comm, int *)
        call      MPI_Comm_rank@PLT                             #646.9
..___tag_value__ZN8yaskSite3runEv.735:
                                # LOE rbx rbp r12 r13 r14 r15 eax
..B22.17:                       # Preds ..B22.16                # Infreq
        testl     %eax, %eax                                    #646.9
        je        ..B22.19      # Prob 50%                      #646.9
                                # LOE rbx rbp r12 r13 r14 r15
..B22.18:                       # Preds ..B22.17                # Infreq
        movl      $-1, 4(%rsp)                                  #646.9
        jmp       ..B22.22      # Prob 100%                     #646.9
                                # LOE rbx rbp r12 r13 r14 r15
..B22.19:                       # Preds ..B22.17                # Infreq
        movl      4(%rsp), %r9d                                 #646.9
        testl     %r9d, %r9d                                    #646.9
        jne       ..B22.22      # Prob 50%                      #646.9
                                # LOE rbx rbp r12 r13 r14 r15 r9d
..B22.20:                       # Preds ..B22.19                # Infreq
        lea       .L_2__STRING.1(%rip), %rsi                    #646.9
        movl      $47, %eax                                     #646.9
        movq      %rsi, %rdx                                    #646.9
        movq      %rdx, %rcx                                    #646.9
        movd      %eax, %xmm1                                   #646.9
        andq      $-16, %rdx                                    #646.9
        punpcklbw %xmm1, %xmm1                                  #646.9
        andl      $15, %ecx                                     #646.9
        punpcklbw %xmm1, %xmm1                                  #646.9
        pshufd    $0, %xmm1, %xmm1                              #646.9
        pxor      %xmm0, %xmm0                                  #646.9
        movdqa    (%rdx), %xmm2                                 #646.9
        pcmpeqb   %xmm2, %xmm0                                  #646.9
        pmovmskb  %xmm0, %r10d                                  #646.9
        pcmpeqb   %xmm1, %xmm2                                  #646.9
        shrl      %cl, %r10d                                    #646.9
        lea       -1(%r10), %rax                                #646.9
        xorl      %eax, %r10d                                   #646.9
        pmovmskb  %xmm2, %eax                                   #646.9
        shrl      %cl, %eax                                     #646.9
        andl      %r10d, %eax                                   #646.9
        je        ..L736        # Prob 60%                      #646.9
        bsr       %rax, %rax                                    #646.9
        addq      %rcx, %rax                                    #646.9
        addq      %rdx, %rax                                    #646.9
..L736:                                                         #
        orl       %r10d, %r10d                                  #646.9
        jg        ..L738        # Prob 60%                      #646.9
..L737:                                                         #
        call      __intel_sse2_strrchr@PLT                      #646.9
..L738:                                                         #
                                # LOE rax rbx rbp rsi r12 r13 r14 r15 r9d
..B22.41:                       # Preds ..B22.20                # Infreq
        testq     %rax, %rax                                    #646.9
        lea       1(%rax), %r8                                  #646.9
        movl      %r9d, %edx                                    #646.9
        lea       __$U9(%rip), %rcx                             #646.9
        cmove     %rsi, %r8                                     #646.9
        lea       .L_2__STRING.46(%rip), %rsi                   #646.9
        movl      $646, %r9d                                    #646.9
        xorl      %eax, %eax                                    #646.9
        movq      (%r14), %rdi                                  #646.9
#       fprintf(FILE *, const char *, ...)
        call      fprintf@PLT                                   #646.9
                                # LOE rbx rbp r12 r13 r14 r15
..B22.21:                       # Preds ..B22.41                # Infreq
        movq      (%r14), %rdi                                  #646.9
#       fflush(FILE *)
        call      fflush@PLT                                    #646.9
                                # LOE rbx rbp r12 r13 r14 r15
..B22.22:                       # Preds ..B22.18 ..B22.21 ..B22.19 # Infreq
        movl      $10, %edi                                     #646.9
        movq      (%r14), %rsi                                  #646.9
        call      fputc@PLT                                     #646.9
                                # LOE rbx rbp r12 r13 r14 r15
..B22.23:                       # Preds ..B22.22                # Infreq
        movq      (%r14), %rdi                                  #646.9
#       fflush(FILE *)
        call      fflush@PLT                                    #646.9
        jmp       ..B22.14      # Prob 100%                     #646.9
                                # LOE rbx rbp r12 r13 r15
..B22.24:                       # Preds ..B22.11                # Infreq
        movl      $1140850688, %edi                             #636.9
        lea       (%rsp), %rsi                                  #636.9
..___tag_value__ZN8yaskSite3runEv.739:
#       MPI_Comm_rank(MPI_Comm, int *)
        call      MPI_Comm_rank@PLT                             #636.9
..___tag_value__ZN8yaskSite3runEv.740:
                                # LOE rbx rbp r12 r13 r14 r15 eax
..B22.25:                       # Preds ..B22.24                # Infreq
        testl     %eax, %eax                                    #636.9
        je        ..B22.27      # Prob 50%                      #636.9
                                # LOE rbx rbp r12 r13 r14 r15
..B22.26:                       # Preds ..B22.25                # Infreq
        movl      $-1, (%rsp)                                   #636.9
        jmp       ..B22.30      # Prob 100%                     #636.9
                                # LOE rbx rbp r12 r13 r14 r15
..B22.27:                       # Preds ..B22.25                # Infreq
        movl      (%rsp), %r9d                                  #636.9
        testl     %r9d, %r9d                                    #636.9
        jne       ..B22.30      # Prob 50%                      #636.9
                                # LOE rbx rbp r12 r13 r14 r15 r9d
..B22.28:                       # Preds ..B22.27                # Infreq
        lea       .L_2__STRING.1(%rip), %rsi                    #636.9
        movl      $47, %eax                                     #636.9
        movq      %rsi, %rdx                                    #636.9
        movq      %rdx, %rcx                                    #636.9
        movd      %eax, %xmm1                                   #636.9
        andq      $-16, %rdx                                    #636.9
        punpcklbw %xmm1, %xmm1                                  #636.9
        andl      $15, %ecx                                     #636.9
        punpcklbw %xmm1, %xmm1                                  #636.9
        pshufd    $0, %xmm1, %xmm1                              #636.9
        pxor      %xmm0, %xmm0                                  #636.9
        movdqa    (%rdx), %xmm2                                 #636.9
        pcmpeqb   %xmm2, %xmm0                                  #636.9
        pmovmskb  %xmm0, %r10d                                  #636.9
        pcmpeqb   %xmm1, %xmm2                                  #636.9
        shrl      %cl, %r10d                                    #636.9
        lea       -1(%r10), %rax                                #636.9
        xorl      %eax, %r10d                                   #636.9
        pmovmskb  %xmm2, %eax                                   #636.9
        shrl      %cl, %eax                                     #636.9
        andl      %r10d, %eax                                   #636.9
        je        ..L741        # Prob 60%                      #636.9
        bsr       %rax, %rax                                    #636.9
        addq      %rcx, %rax                                    #636.9
        addq      %rdx, %rax                                    #636.9
..L741:                                                         #
        orl       %r10d, %r10d                                  #636.9
        jg        ..L743        # Prob 60%                      #636.9
..L742:                                                         #
        call      __intel_sse2_strrchr@PLT                      #636.9
..L743:                                                         #
                                # LOE rax rbx rbp rsi r12 r13 r14 r15 r9d
..B22.43:                       # Preds ..B22.28                # Infreq
        testq     %rax, %rax                                    #636.9
        lea       1(%rax), %r8                                  #636.9
        movl      %r9d, %edx                                    #636.9
        lea       __$U9(%rip), %rcx                             #636.9
        cmove     %rsi, %r8                                     #636.9
        lea       .L_2__STRING.60(%rip), %rsi                   #636.9
        movl      $636, %r9d                                    #636.9
        xorl      %eax, %eax                                    #636.9
        movq      (%r14), %rdi                                  #636.9
#       fprintf(FILE *, const char *, ...)
        call      fprintf@PLT                                   #636.9
                                # LOE rbx rbp r12 r13 r14 r15
..B22.29:                       # Preds ..B22.43                # Infreq
        movq      (%r14), %rdi                                  #636.9
#       fflush(FILE *)
        call      fflush@PLT                                    #636.9
                                # LOE rbx rbp r12 r13 r14 r15
..B22.30:                       # Preds ..B22.26 ..B22.29 ..B22.27 # Infreq
        movl      $10, %edi                                     #636.9
        movq      (%r14), %rsi                                  #636.9
        call      fputc@PLT                                     #636.9
                                # LOE rbx rbp r12 r13 r14 r15
..B22.31:                       # Preds ..B22.30                # Infreq
        movq      (%r14), %rdi                                  #636.9
#       fflush(FILE *)
        call      fflush@PLT                                    #636.9
        jmp       ..B22.12      # Prob 100%                     #636.9
                                # LOE rbx rbp r12 r13 r14 r15
..B22.32:                       # Preds ..B22.2                 # Infreq
        movq      %r13, %rdi                                    #628.9
..___tag_value__ZN8yaskSite3runEv.744:
#       yaskSite::init(yaskSite *)
        call      _ZN8yaskSite4initEv@PLT                       #628.9
..___tag_value__ZN8yaskSite3runEv.745:
        jmp       ..B22.3       # Prob 100%                     #628.9
                                # LOE rbx rbp r12 r13 r15
..B22.44:                       # Preds ..B22.6                 # Infreq
        movq      stderr@GOTPCREL(%rip), %r14                   #631.5
        jmp       ..B22.9       # Prob 100%                     #631.5
        .align    16,0x90
	.cfi_endproc
                                # LOE rbx rbp r12 r13 r14 r15
# mark_end;
	.type	_ZN8yaskSite3runEv,@function
	.size	_ZN8yaskSite3runEv,.-_ZN8yaskSite3runEv
	.data
# -- End  _ZN8yaskSite3runEv
	.text
# -- Begin  _ZN8yaskSite10needUpdateEv
	.text
# mark_begin;
       .align    16,0x90
	.globl _ZN8yaskSite10needUpdateEv
# --- yaskSite::needUpdate(yaskSite *)
_ZN8yaskSite10needUpdateEv:
# parameter 1: %rdi
..B23.1:                        # Preds ..B23.0

### {

	.cfi_startproc
	.cfi_personality 0x93,DW.ref.__gxx_personality_v0
..___tag_value__ZN8yaskSite10needUpdateEv.747:
..L748:
                                                        #583.1

###     if( ( (dimUpdated)||(regionUpdated) )|| ((blockUpdated) || ((subBlockUpdated) || threadUpdated)) )

        movq      $0xffffffffff00, %rdx                         #584.12
        movl      $1, %ecx                                      #584.12
        xorl      %eax, %eax                                    #584.12
        testq     %rdx, 160(%rdi)                               #584.12

###     {
###         return true;

        cmovne    %ecx, %eax                                    #586.16
        ret                                                     #586.16
        .align    16,0x90
	.cfi_endproc
                                # LOE
# mark_end;
	.type	_ZN8yaskSite10needUpdateEv,@function
	.size	_ZN8yaskSite10needUpdateEv,.-_ZN8yaskSite10needUpdateEv
	.data
# -- End  _ZN8yaskSite10needUpdateEv
	.text
# -- Begin  _ZN8yaskSite9getOutputEPdPKc
	.text
# mark_begin;
       .align    16,0x90
	.globl _ZN8yaskSite9getOutputEPdPKc
# --- yaskSite::getOutput(yaskSite *, double *, const char *)
_ZN8yaskSite9getOutputEPdPKc:
# parameter 1: %rdi
# parameter 2: %rsi
# parameter 3: %rdx
..B24.1:                        # Preds ..B24.0

### {

	.cfi_startproc
	.cfi_personality 0x93,DW.ref.__gxx_personality_v0
..___tag_value__ZN8yaskSite9getOutputEPdPKc.750:
..L751:
                                                        #663.1
        pushq     %rbx                                          #663.1
	.cfi_def_cfa_offset 16
	.cfi_offset 3, -16
        pushq     %rbp                                          #663.1
	.cfi_def_cfa_offset 24
	.cfi_offset 6, -24
        subq      $104, %rsp                                    #663.1
	.cfi_def_cfa_offset 128
        movq      %rdi, %rbx                                    #663.1
        movq      %rsi, %r11                                    #663.1
        movq      %rdx, %rbp                                    #663.1

###     auto it = std::find(gridName.begin(), gridName.end(), grid_name);

        movq      232(%rbx), %r8                                #664.43
        movq      %r8, %rsi                                     #664.59
        movq      224(%rbx), %r9                                #664.25
        subq      %r9, %rsi                                     #664.59
        sarq      $5, %rsi                                      #664.59
        movq      %r9, %rcx                                     #664.59
        testq     %rsi, %rsi                                    #664.59
        jle       ..B24.9       # Prob 0%                       #664.59
                                # LOE rcx rbx rbp rsi r8 r9 r11 r12 r13 r14 r15
..B24.3:                        # Preds ..B24.1 ..B24.7
        cmpq      (%rcx), %rbp                                  #664.59
        je        ..B24.21      # Prob 20%                      #664.59
                                # LOE rcx rbx rbp rsi r8 r9 r11 r12 r13 r14 r15
..B24.4:                        # Preds ..B24.3
        cmpq      8(%rcx), %rbp                                 #664.59
        lea       8(%rcx), %rdx                                 #664.59
        je        ..B24.47      # Prob 20%                      #664.59
                                # LOE rdx rcx rbx rbp rsi r8 r9 r11 r12 r13 r14 r15
..B24.5:                        # Preds ..B24.4
        cmpq      8(%rdx), %rbp                                 #664.59
        lea       16(%rcx), %rax                                #664.59
        je        ..B24.46      # Prob 20%                      #664.59
                                # LOE rax rcx rbx rbp rsi r8 r9 r11 r12 r13 r14 r15
..B24.6:                        # Preds ..B24.5
        addq      $24, %rcx                                     #664.59
        cmpq      8(%rax), %rbp                                 #664.59
        je        ..B24.21      # Prob 20%                      #664.59
                                # LOE rcx rbx rbp rsi r8 r9 r11 r12 r13 r14 r15
..B24.7:                        # Preds ..B24.6
        decq      %rsi                                          #664.59
        addq      $8, %rcx                                      #664.59
        testq     %rsi, %rsi                                    #664.59
        jg        ..B24.3       # Prob 82%                      #664.59
                                # LOE rcx rbx rbp rsi r8 r9 r11 r12 r13 r14 r15
..B24.9:                        # Preds ..B24.7 ..B24.1
        movq      %r8, %rax                                     #664.59
        subq      %rcx, %rax                                    #664.59
        sarq      $3, %rax                                      #664.59
        cmpq      $3, %rax                                      #664.59
        je        ..B24.12      # Prob 25%                      #664.59
                                # LOE rax rcx rbx rbp r8 r9 r11 r12 r13 r14 r15
..B24.10:                       # Preds ..B24.9
        cmpq      $2, %rax                                      #664.59
        je        ..B24.15      # Prob 33%                      #664.59
                                # LOE rax rcx rbx rbp r8 r9 r11 r12 r13 r14 r15
..B24.11:                       # Preds ..B24.10
        cmpq      $1, %rax                                      #664.59
        je        ..B24.18      # Prob 50%                      #664.59
        jmp       ..B24.20      # Prob 100%                     #664.59
                                # LOE rcx rbx rbp r8 r9 r11 r12 r13 r14 r15
..B24.12:                       # Preds ..B24.9
        cmpq      (%rcx), %rbp                                  #664.59
        je        ..B24.21      # Prob 57%                      #664.59
                                # LOE rcx rbx rbp r8 r9 r11 r12 r13 r14 r15
..B24.14:                       # Preds ..B24.12
        addq      $8, %rcx                                      #664.59
                                # LOE rcx rbx rbp r8 r9 r11 r12 r13 r14 r15
..B24.15:                       # Preds ..B24.14 ..B24.10
        cmpq      (%rcx), %rbp                                  #664.59
        je        ..B24.21      # Prob 57%                      #664.59
                                # LOE rcx rbx rbp r8 r9 r11 r12 r13 r14 r15
..B24.17:                       # Preds ..B24.15
        addq      $8, %rcx                                      #664.59
                                # LOE rcx rbx rbp r8 r9 r11 r12 r13 r14 r15
..B24.18:                       # Preds ..B24.11 ..B24.17
        cmpq      (%rcx), %rbp                                  #664.59
        je        ..B24.21      # Prob 78%                      #664.59
                                # LOE rcx rbx rbp r8 r9 r11 r12 r13 r14 r15
..B24.20:                       # Preds ..B24.11 ..B24.18
        movq      %r8, %rcx                                     #664.59
                                # LOE rcx rbx rbp r8 r9 r11 r12 r13 r14 r15
..B24.21:                       # Preds ..B24.3 ..B24.6 ..B24.18 ..B24.15 ..B24.12
                                #       ..B24.20 ..B24.47 ..B24.46

###     if(it==gridName.end())

        cmpq      %r8, %rcx                                     #665.10
        jne       ..B24.31      # Prob 22%                      #665.10
                                # LOE rcx rbx rbp r9 r11 r12 r13 r14 r15
..B24.22:                       # Preds ..B24.21

###     {
###         ERROR_PRINT("The requested grid = %s does not exist", grid_name);

        movl      $1140850688, %edi                             #667.9
        lea       32(%rsp), %rsi                                #667.9
..___tag_value__ZN8yaskSite9getOutputEPdPKc.757:
#       MPI_Comm_rank(MPI_Comm, int *)
        call      MPI_Comm_rank@PLT                             #667.9
..___tag_value__ZN8yaskSite9getOutputEPdPKc.758:
                                # LOE rbp r12 r13 r14 r15 eax
..B24.23:                       # Preds ..B24.22
        testl     %eax, %eax                                    #667.9
        je        ..B24.25      # Prob 50%                      #667.9
                                # LOE rbp r12 r13 r14 r15
..B24.24:                       # Preds ..B24.23
        movl      $-1, 32(%rsp)                                 #667.9
        movq      stderr@GOTPCREL(%rip), %rbx                   #667.9
        jmp       ..B24.28      # Prob 100%                     #667.9
                                # LOE rbx r12 r13 r14 r15
..B24.25:                       # Preds ..B24.23
        movl      32(%rsp), %r9d                                #667.9
        testl     %r9d, %r9d                                    #667.9
        jne       ..B24.55      # Prob 50%                      #667.9
                                # LOE rbp r12 r13 r14 r15 r9d
..B24.26:                       # Preds ..B24.25
        lea       .L_2__STRING.1(%rip), %rsi                    #667.9
        movl      $47, %eax                                     #667.9
        movq      %rsi, %rdx                                    #667.9
        movq      %rdx, %rcx                                    #667.9
        movd      %eax, %xmm1                                   #667.9
        andq      $-16, %rdx                                    #667.9
        punpcklbw %xmm1, %xmm1                                  #667.9
        andl      $15, %ecx                                     #667.9
        punpcklbw %xmm1, %xmm1                                  #667.9
        pshufd    $0, %xmm1, %xmm1                              #667.9
        pxor      %xmm0, %xmm0                                  #667.9
        movdqa    (%rdx), %xmm2                                 #667.9
        pcmpeqb   %xmm2, %xmm0                                  #667.9
        pmovmskb  %xmm0, %r10d                                  #667.9
        pcmpeqb   %xmm1, %xmm2                                  #667.9
        shrl      %cl, %r10d                                    #667.9
        lea       -1(%r10), %rax                                #667.9
        xorl      %eax, %r10d                                   #667.9
        pmovmskb  %xmm2, %eax                                   #667.9
        shrl      %cl, %eax                                     #667.9
        andl      %r10d, %eax                                   #667.9
        je        ..L759        # Prob 60%                      #667.9
        bsr       %rax, %rax                                    #667.9
        addq      %rcx, %rax                                    #667.9
        addq      %rdx, %rax                                    #667.9
..L759:                                                         #
        orl       %r10d, %r10d                                  #667.9
        jg        ..L761        # Prob 60%                      #667.9
..L760:                                                         #
        call      __intel_sse2_strrchr@PLT                      #667.9
..L761:                                                         #
                                # LOE rax rbp rsi r12 r13 r14 r15 r9d
..B24.53:                       # Preds ..B24.26
        addq      $-16, %rsp                                    #667.9
	.cfi_def_cfa_offset 144
        testq     %rax, %rax                                    #667.9
        movq      stderr@GOTPCREL(%rip), %rbx                   #667.9
        lea       1(%rax), %r8                                  #667.9
        cmove     %rsi, %r8                                     #667.9
        lea       .L_2__STRING.62(%rip), %rsi                   #667.9
        movl      %r9d, %edx                                    #667.9
        lea       __$Ua(%rip), %rcx                             #667.9
        movl      $667, %r9d                                    #667.9
        xorl      %eax, %eax                                    #667.9
        movq      (%rbx), %rdi                                  #667.9
        movq      %rbp, (%rsp)                                  #667.9
#       fprintf(FILE *, const char *, ...)
        call      fprintf@PLT                                   #667.9
                                # LOE rbx r12 r13 r14 r15
..B24.52:                       # Preds ..B24.53
        addq      $16, %rsp                                     #667.9
	.cfi_def_cfa_offset 128
                                # LOE rbx r12 r13 r14 r15
..B24.27:                       # Preds ..B24.52
        movq      (%rbx), %rdi                                  #667.9
#       fflush(FILE *)
        call      fflush@PLT                                    #667.9
                                # LOE rbx r12 r13 r14 r15
..B24.28:                       # Preds ..B24.27 ..B24.55 ..B24.24
        movl      $10, %edi                                     #667.9
        movq      (%rbx), %rsi                                  #667.9
        call      fputc@PLT                                     #667.9
                                # LOE rbx r12 r13 r14 r15
..B24.29:                       # Preds ..B24.28
        movq      (%rbx), %rdi                                  #667.9
#       fflush(FILE *)
        call      fflush@PLT                                    #667.9
                                # LOE r12 r13 r14 r15
..B24.30:                       # Preds ..B24.29

###         return -1;

        movl      $-1, %eax                                     #668.16
        addq      $104, %rsp                                    #668.16
	.cfi_def_cfa_offset 24
	.cfi_restore 6
        popq      %rbp                                          #668.16
	.cfi_def_cfa_offset 16
	.cfi_restore 3
        popq      %rbx                                          #668.16
	.cfi_def_cfa_offset 8
        ret                                                     #668.16
	.cfi_def_cfa_offset 128
	.cfi_offset 3, -16
	.cfi_offset 6, -24
                                # LOE
..B24.31:                       # Preds ..B24.21

###     }
###     int idx = std::distance(gridName.begin(), it);

        subq      %r9, %rcx                                     #670.15

### 
###     EXTRACT_IDX(gridIdx[idx]);
### 
### #pragma omp parallel for collapse(3)
###     for(int x=x_start, loc_x=0; x<=x_end; ++x, ++loc_x)

        xorl      %r10d, %r10d                                  #675.29
        shrq      $3, %rcx                                      #670.15
        movslq    %ecx, %rcx                                    #670.15
        movq      248(%rbx), %rdx                               #672.5
        lea       (%rcx,%rcx,2), %rsi                           #672.5
        movq      (%rdx,%rsi,8), %rax                           #672.5
        movl      (%rax), %ebp                                  #672.5
        movl      4(%rax), %r8d                                 #672.5

###     {

        cmpl      %r8d, %ebp                                    #676.5
        movl      8(%rax), %r9d                                 #672.5
        movl      12(%rax), %edx                                #672.5
        movl      16(%rax), %esi                                #672.5
        movl      20(%rax), %eax                                #672.5
        jg        ..B24.44      # Prob 10%                      #676.5
                                # LOE rcx rbx r11 r12 r13 r14 r15 eax edx ebp esi r8d r9d r10d
..B24.32:                       # Preds ..B24.31
        movq      %r12, 24(%rsp)                                #
        movq      %r13, (%rsp)                                  #
        movq      %r14, 8(%rsp)                                 #
	.cfi_offset 12, -104
	.cfi_offset 13, -128
	.cfi_offset 14, -120
        movq      %rcx, %r14                                    #
        movq      %r15, 16(%rsp)                                #
	.cfi_offset 15, -112
        movl      %ebp, %r15d                                   #
        movq      %r11, %rbp                                    #
                                # LOE rbx rbp r14 eax edx esi r8d r9d r10d r15d
..B24.33:                       # Preds ..B24.42 ..B24.32

###         for(int y=y_start, loc_y=0; y<=y_end; ++y, ++loc_y)

        movl      %r9d, %edi                                    #677.19
        xorl      %ecx, %ecx                                    #677.33

###         {

        cmpl      %edx, %r9d                                    #678.9
        jg        ..B24.42      # Prob 10%                      #678.9
                                # LOE rbx rbp r14 eax edx ecx esi edi r8d r9d r10d r15d
..B24.34:                       # Preds ..B24.33
        movl      %r9d, 40(%rsp)                                #
        movl      %r10d, 72(%rsp)                               #
        movl      %r8d, 32(%rsp)                                #
                                # LOE rbx rbp r14 eax edx ecx esi edi r15d
..B24.35:                       # Preds ..B24.40 ..B24.34

###             for(int z=z_start, loc_z=0; z<=z_end; ++z, ++loc_z)

        movl      %esi, %r12d                                   #679.23
        xorl      %r13d, %r13d                                  #679.37

###             {

        cmpl      %eax, %esi                                    #680.13
        jg        ..B24.40      # Prob 10%                      #680.13
                                # LOE rbx rbp r13 r14 eax edx ecx esi edi r12d r15d
..B24.36:                       # Preds ..B24.35
        movl      %esi, 56(%rsp)                                #
        movl      %ecx, 88(%rsp)                                #
        movl      %edi, 80(%rsp)                                #
        movl      %eax, 64(%rsp)                                #
        movl      %edx, 48(%rsp)                                #
                                # LOE rbx rbp r13 r14 r12d r15d
..B24.37:                       # Preds ..B24.38 ..B24.36

###                 out[loc_x*dy*dz+loc_y*dz+loc_z] = this->getOutputAt(gridName[idx],x,y,z,false);

        addq      $-16, %rsp                                    #681.57
	.cfi_def_cfa_offset 144
        movq      %rbx, %rdi                                    #681.57
        movq      224(%rbx), %rax                               #681.57
        movl      %r15d, %ecx                                   #681.57
        movl      116(%rbx), %edx                               #681.57
        movl      %r12d, %r9d                                   #681.57
        movq      $0, (%rsp)                                    #681.57
        movq      (%rax,%r14,8), %rsi                           #681.57
        movl      96(%rsp), %r8d                                #681.57
..___tag_value__ZN8yaskSite9getOutputEPdPKc.777:
        call      *200(%rbx)                                    #681.57
..___tag_value__ZN8yaskSite9getOutputEPdPKc.778:
                                # LOE rax rbx rbp r13 r14 r12d r15d
..B24.54:                       # Preds ..B24.37
        movq      %rax, %rdx                                    #681.57
        addq      $16, %rsp                                     #681.57
	.cfi_def_cfa_offset 128
                                # LOE rdx rbx rbp r13 r14 r12d r15d
..B24.38:                       # Preds ..B24.54
        movl      72(%rsp), %eax                                #681.27
        incl      %r12d                                         #679.53
        imull     124(%rbx), %eax                               #681.27
        addl      88(%rsp), %eax                                #681.39
        imull     128(%rbx), %eax                               #681.39
        movslq    %eax, %rax                                    #681.17
        addq      %r13, %rax                                    #681.17
        incq      %r13                                          #679.58
        movq      (%rdx), %rdx                                  #681.57
        cmpl      64(%rsp), %r12d                               #680.13
        movq      %rdx, (%rbp,%rax,8)                           #681.17
        jle       ..B24.37      # Prob 82%                      #680.13
                                # LOE rbx rbp r13 r14 r12d r15d
..B24.39:                       # Preds ..B24.38
        movl      56(%rsp), %esi                                #
        movl      88(%rsp), %ecx                                #
        movl      80(%rsp), %edi                                #
        movl      64(%rsp), %eax                                #
        movl      48(%rsp), %edx                                #
                                # LOE rbx rbp r14 eax edx ecx esi edi r15d
..B24.40:                       # Preds ..B24.39 ..B24.35
        incl      %edi                                          #677.49
        incl      %ecx                                          #677.54
        cmpl      %edx, %edi                                    #678.9
        jle       ..B24.35      # Prob 82%                      #678.9
                                # LOE rbx rbp r14 eax edx ecx esi edi r15d
..B24.41:                       # Preds ..B24.40
        movl      40(%rsp), %r9d                                #
        movl      72(%rsp), %r10d                               #
        movl      32(%rsp), %r8d                                #
                                # LOE rbx rbp r14 eax edx esi r8d r9d r10d r15d
..B24.42:                       # Preds ..B24.41 ..B24.33
        incl      %r15d                                         #675.45
        incl      %r10d                                         #675.50
        cmpl      %r8d, %r15d                                   #676.5
        jle       ..B24.33      # Prob 82%                      #676.5
                                # LOE rbx rbp r14 eax edx esi r8d r9d r10d r15d
..B24.43:                       # Preds ..B24.42
        movq      24(%rsp), %r12                                #
	.cfi_restore 12
        movq      (%rsp), %r13                                  #
	.cfi_restore 13
        movq      8(%rsp), %r14                                 #
	.cfi_restore 14
        movq      16(%rsp), %r15                                #
	.cfi_restore 15
                                # LOE r12 r13 r14 r15
..B24.44:                       # Preds ..B24.43 ..B24.31

###             }
###         }
###     }
###     return 1;

        movl      $1, %eax                                      #685.12
        addq      $104, %rsp                                    #685.12
	.cfi_def_cfa_offset 24
	.cfi_restore 6
        popq      %rbp                                          #685.12
	.cfi_def_cfa_offset 16
	.cfi_restore 3
        popq      %rbx                                          #685.12
	.cfi_def_cfa_offset 8
        ret                                                     #685.12
	.cfi_def_cfa_offset 128
	.cfi_offset 3, -16
	.cfi_offset 6, -24
                                # LOE
..B24.46:                       # Preds ..B24.5                 # Infreq
        movq      %rax, %rcx                                    #664.59
        jmp       ..B24.21      # Prob 100%                     #664.59
                                # LOE rcx rbx rbp r8 r9 r11 r12 r13 r14 r15
..B24.47:                       # Preds ..B24.4                 # Infreq
        movq      %rdx, %rcx                                    #664.59
        jmp       ..B24.21      # Prob 100%                     #664.59
                                # LOE rcx rbx rbp r8 r9 r11 r12 r13 r14 r15
..B24.55:                       # Preds ..B24.25                # Infreq
        movq      stderr@GOTPCREL(%rip), %rbx                   #667.9
        jmp       ..B24.28      # Prob 100%                     #667.9
        .align    16,0x90
	.cfi_endproc
                                # LOE rbx r12 r13 r14 r15
# mark_end;
	.type	_ZN8yaskSite9getOutputEPdPKc,@function
	.size	_ZN8yaskSite9getOutputEPdPKc,.-_ZN8yaskSite9getOutputEPdPKc
	.data
# -- End  _ZN8yaskSite9getOutputEPdPKc
	.text
# -- Begin  _ZN8yaskSite8setInputEPdPKc
	.text
# mark_begin;
       .align    16,0x90
	.globl _ZN8yaskSite8setInputEPdPKc
# --- yaskSite::setInput(yaskSite *, double *, const char *)
_ZN8yaskSite8setInputEPdPKc:
# parameter 1: %rdi
# parameter 2: %rsi
# parameter 3: %rdx
..B25.1:                        # Preds ..B25.0

### {

	.cfi_startproc
	.cfi_personality 0x93,DW.ref.__gxx_personality_v0
..___tag_value__ZN8yaskSite8setInputEPdPKc.793:
..L794:
                                                        #691.1
        pushq     %rbx                                          #691.1
	.cfi_def_cfa_offset 16
	.cfi_offset 3, -16
        pushq     %rbp                                          #691.1
	.cfi_def_cfa_offset 24
	.cfi_offset 6, -24
        subq      $104, %rsp                                    #691.1
	.cfi_def_cfa_offset 128
        movq      %rdi, %rbx                                    #691.1
        movq      %rdx, %rbp                                    #691.1

###     auto it = std::find(gridName.begin(), gridName.end(), grid_name);

        movq      232(%rbx), %r9                                #692.43
        movq      %r9, %r8                                      #692.59
        movq      224(%rbx), %r10                               #692.25
        subq      %r10, %r8                                     #692.59
        sarq      $5, %r8                                       #692.59
        movq      %r10, %rcx                                    #692.59
        testq     %r8, %r8                                      #692.59
        jle       ..B25.9       # Prob 0%                       #692.59
                                # LOE rcx rbx rbp rsi r8 r9 r10 r12 r13 r14 r15
..B25.3:                        # Preds ..B25.1 ..B25.7
        cmpq      (%rcx), %rbp                                  #692.59
        je        ..B25.21      # Prob 20%                      #692.59
                                # LOE rcx rbx rbp rsi r8 r9 r10 r12 r13 r14 r15
..B25.4:                        # Preds ..B25.3
        cmpq      8(%rcx), %rbp                                 #692.59
        lea       8(%rcx), %rdx                                 #692.59
        je        ..B25.47      # Prob 20%                      #692.59
                                # LOE rdx rcx rbx rbp rsi r8 r9 r10 r12 r13 r14 r15
..B25.5:                        # Preds ..B25.4
        cmpq      8(%rdx), %rbp                                 #692.59
        lea       16(%rcx), %rax                                #692.59
        je        ..B25.46      # Prob 20%                      #692.59
                                # LOE rax rcx rbx rbp rsi r8 r9 r10 r12 r13 r14 r15
..B25.6:                        # Preds ..B25.5
        addq      $24, %rcx                                     #692.59
        cmpq      8(%rax), %rbp                                 #692.59
        je        ..B25.21      # Prob 20%                      #692.59
                                # LOE rcx rbx rbp rsi r8 r9 r10 r12 r13 r14 r15
..B25.7:                        # Preds ..B25.6
        decq      %r8                                           #692.59
        addq      $8, %rcx                                      #692.59
        testq     %r8, %r8                                      #692.59
        jg        ..B25.3       # Prob 82%                      #692.59
                                # LOE rcx rbx rbp rsi r8 r9 r10 r12 r13 r14 r15
..B25.9:                        # Preds ..B25.7 ..B25.1
        movq      %r9, %rax                                     #692.59
        subq      %rcx, %rax                                    #692.59
        sarq      $3, %rax                                      #692.59
        cmpq      $3, %rax                                      #692.59
        je        ..B25.12      # Prob 25%                      #692.59
                                # LOE rax rcx rbx rbp rsi r9 r10 r12 r13 r14 r15
..B25.10:                       # Preds ..B25.9
        cmpq      $2, %rax                                      #692.59
        je        ..B25.15      # Prob 33%                      #692.59
                                # LOE rax rcx rbx rbp rsi r9 r10 r12 r13 r14 r15
..B25.11:                       # Preds ..B25.10
        cmpq      $1, %rax                                      #692.59
        je        ..B25.18      # Prob 50%                      #692.59
        jmp       ..B25.20      # Prob 100%                     #692.59
                                # LOE rcx rbx rbp rsi r9 r10 r12 r13 r14 r15
..B25.12:                       # Preds ..B25.9
        cmpq      (%rcx), %rbp                                  #692.59
        je        ..B25.21      # Prob 57%                      #692.59
                                # LOE rcx rbx rbp rsi r9 r10 r12 r13 r14 r15
..B25.14:                       # Preds ..B25.12
        addq      $8, %rcx                                      #692.59
                                # LOE rcx rbx rbp rsi r9 r10 r12 r13 r14 r15
..B25.15:                       # Preds ..B25.14 ..B25.10
        cmpq      (%rcx), %rbp                                  #692.59
        je        ..B25.21      # Prob 57%                      #692.59
                                # LOE rcx rbx rbp rsi r9 r10 r12 r13 r14 r15
..B25.17:                       # Preds ..B25.15
        addq      $8, %rcx                                      #692.59
                                # LOE rcx rbx rbp rsi r9 r10 r12 r13 r14 r15
..B25.18:                       # Preds ..B25.11 ..B25.17
        cmpq      (%rcx), %rbp                                  #692.59
        je        ..B25.21      # Prob 78%                      #692.59
                                # LOE rcx rbx rbp rsi r9 r10 r12 r13 r14 r15
..B25.20:                       # Preds ..B25.11 ..B25.18
        movq      %r9, %rcx                                     #692.59
                                # LOE rcx rbx rbp rsi r9 r10 r12 r13 r14 r15
..B25.21:                       # Preds ..B25.3 ..B25.6 ..B25.18 ..B25.15 ..B25.12
                                #       ..B25.20 ..B25.47 ..B25.46

###     if(it==gridName.end())

        cmpq      %r9, %rcx                                     #693.10
        jne       ..B25.31      # Prob 22%                      #693.10
                                # LOE rcx rbx rbp rsi r10 r12 r13 r14 r15
..B25.22:                       # Preds ..B25.21

###     {
###         ERROR_PRINT("The requested grid = %s does not exist", grid_name);

        movl      $1140850688, %edi                             #695.9
        lea       32(%rsp), %rsi                                #695.9
..___tag_value__ZN8yaskSite8setInputEPdPKc.800:
#       MPI_Comm_rank(MPI_Comm, int *)
        call      MPI_Comm_rank@PLT                             #695.9
..___tag_value__ZN8yaskSite8setInputEPdPKc.801:
                                # LOE rbp r12 r13 r14 r15 eax
..B25.23:                       # Preds ..B25.22
        testl     %eax, %eax                                    #695.9
        je        ..B25.25      # Prob 50%                      #695.9
                                # LOE rbp r12 r13 r14 r15
..B25.24:                       # Preds ..B25.23
        movl      $-1, 32(%rsp)                                 #695.9
        movq      stderr@GOTPCREL(%rip), %rbx                   #695.9
        jmp       ..B25.28      # Prob 100%                     #695.9
                                # LOE rbx r12 r13 r14 r15
..B25.25:                       # Preds ..B25.23
        movl      32(%rsp), %r9d                                #695.9
        testl     %r9d, %r9d                                    #695.9
        jne       ..B25.55      # Prob 50%                      #695.9
                                # LOE rbp r12 r13 r14 r15 r9d
..B25.26:                       # Preds ..B25.25
        lea       .L_2__STRING.1(%rip), %rsi                    #695.9
        movl      $47, %eax                                     #695.9
        movq      %rsi, %rdx                                    #695.9
        movq      %rdx, %rcx                                    #695.9
        movd      %eax, %xmm1                                   #695.9
        andq      $-16, %rdx                                    #695.9
        punpcklbw %xmm1, %xmm1                                  #695.9
        andl      $15, %ecx                                     #695.9
        punpcklbw %xmm1, %xmm1                                  #695.9
        pshufd    $0, %xmm1, %xmm1                              #695.9
        pxor      %xmm0, %xmm0                                  #695.9
        movdqa    (%rdx), %xmm2                                 #695.9
        pcmpeqb   %xmm2, %xmm0                                  #695.9
        pmovmskb  %xmm0, %r10d                                  #695.9
        pcmpeqb   %xmm1, %xmm2                                  #695.9
        shrl      %cl, %r10d                                    #695.9
        lea       -1(%r10), %rax                                #695.9
        xorl      %eax, %r10d                                   #695.9
        pmovmskb  %xmm2, %eax                                   #695.9
        shrl      %cl, %eax                                     #695.9
        andl      %r10d, %eax                                   #695.9
        je        ..L802        # Prob 60%                      #695.9
        bsr       %rax, %rax                                    #695.9
        addq      %rcx, %rax                                    #695.9
        addq      %rdx, %rax                                    #695.9
..L802:                                                         #
        orl       %r10d, %r10d                                  #695.9
        jg        ..L804        # Prob 60%                      #695.9
..L803:                                                         #
        call      __intel_sse2_strrchr@PLT                      #695.9
..L804:                                                         #
                                # LOE rax rbp rsi r12 r13 r14 r15 r9d
..B25.53:                       # Preds ..B25.26
        addq      $-16, %rsp                                    #695.9
	.cfi_def_cfa_offset 144
        testq     %rax, %rax                                    #695.9
        movq      stderr@GOTPCREL(%rip), %rbx                   #695.9
        lea       1(%rax), %r8                                  #695.9
        cmove     %rsi, %r8                                     #695.9
        lea       .L_2__STRING.62(%rip), %rsi                   #695.9
        movl      %r9d, %edx                                    #695.9
        lea       __$Ub(%rip), %rcx                             #695.9
        movl      $695, %r9d                                    #695.9
        xorl      %eax, %eax                                    #695.9
        movq      (%rbx), %rdi                                  #695.9
        movq      %rbp, (%rsp)                                  #695.9
#       fprintf(FILE *, const char *, ...)
        call      fprintf@PLT                                   #695.9
                                # LOE rbx r12 r13 r14 r15
..B25.52:                       # Preds ..B25.53
        addq      $16, %rsp                                     #695.9
	.cfi_def_cfa_offset 128
                                # LOE rbx r12 r13 r14 r15
..B25.27:                       # Preds ..B25.52
        movq      (%rbx), %rdi                                  #695.9
#       fflush(FILE *)
        call      fflush@PLT                                    #695.9
                                # LOE rbx r12 r13 r14 r15
..B25.28:                       # Preds ..B25.27 ..B25.55 ..B25.24
        movl      $10, %edi                                     #695.9
        movq      (%rbx), %rsi                                  #695.9
        call      fputc@PLT                                     #695.9
                                # LOE rbx r12 r13 r14 r15
..B25.29:                       # Preds ..B25.28
        movq      (%rbx), %rdi                                  #695.9
#       fflush(FILE *)
        call      fflush@PLT                                    #695.9
                                # LOE r12 r13 r14 r15
..B25.30:                       # Preds ..B25.29

###         return -1;

        movl      $-1, %eax                                     #696.16
        addq      $104, %rsp                                    #696.16
	.cfi_def_cfa_offset 24
	.cfi_restore 6
        popq      %rbp                                          #696.16
	.cfi_def_cfa_offset 16
	.cfi_restore 3
        popq      %rbx                                          #696.16
	.cfi_def_cfa_offset 8
        ret                                                     #696.16
	.cfi_def_cfa_offset 128
	.cfi_offset 3, -16
	.cfi_offset 6, -24
                                # LOE
..B25.31:                       # Preds ..B25.21

###     }
###     int idx = std::distance(gridName.begin(), it);

        subq      %r10, %rcx                                    #698.15

### 
###     EXTRACT_IDX(gridIdx[idx]);
### 
### #pragma omp parallel for collapse(3)
###     for(int x=x_start, loc_x=0; x<=x_end; ++x, ++loc_x)

        xorl      %r11d, %r11d                                  #703.29
        shrq      $3, %rcx                                      #698.15
        movslq    %ecx, %rbp                                    #698.15
        movq      248(%rbx), %rax                               #700.5
        lea       (%rbp,%rbp,2), %rdx                           #700.5
        movq      (%rax,%rdx,8), %rcx                           #700.5
        movl      (%rcx), %r8d                                  #700.5
        movl      4(%rcx), %r9d                                 #700.5

###     {

        cmpl      %r9d, %r8d                                    #704.5
        movl      8(%rcx), %r10d                                #700.5
        movl      12(%rcx), %edx                                #700.5
        movl      16(%rcx), %eax                                #700.5
        movl      20(%rcx), %ecx                                #700.5
        jg        ..B25.44      # Prob 10%                      #704.5
                                # LOE rbx rbp rsi r12 r13 r14 r15 eax edx ecx r8d r9d r10d r11d
..B25.32:                       # Preds ..B25.31
        movq      %r12, 24(%rsp)                                #
        movq      %r13, (%rsp)                                  #
        movq      %r14, 8(%rsp)                                 #
	.cfi_offset 12, -104
	.cfi_offset 13, -128
	.cfi_offset 14, -120
        movq      %rbp, %r14                                    #
        movq      %r15, 16(%rsp)                                #
	.cfi_offset 15, -112
        movq      %rsi, %rbp                                    #
                                # LOE rbx rbp r14 eax edx ecx r8d r9d r10d r11d
..B25.33:                       # Preds ..B25.42 ..B25.32

###         for(int y=y_start, loc_y=0; y<=y_end; ++y, ++loc_y)

        movl      %r10d, %esi                                   #705.19
        xorl      %r15d, %r15d                                  #705.33

###         {

        cmpl      %edx, %r10d                                   #706.9
        jg        ..B25.42      # Prob 10%                      #706.9
                                # LOE rbx rbp r14 eax edx ecx esi r8d r9d r10d r11d r15d
..B25.34:                       # Preds ..B25.33
        movl      %r10d, 40(%rsp)                               #
        movl      %r11d, 80(%rsp)                               #
        movl      %r9d, 32(%rsp)                                #
        movl      %r8d, 64(%rsp)                                #
                                # LOE rbx rbp r14 eax edx ecx esi r15d
..B25.35:                       # Preds ..B25.40 ..B25.34

###             for(int z=z_start, loc_z=0; z<=z_end; ++z, ++loc_z)

        movl      %eax, %r12d                                   #707.23
        xorl      %r13d, %r13d                                  #707.37

###             {

        cmpl      %ecx, %eax                                    #708.13
        jg        ..B25.40      # Prob 10%                      #708.13
                                # LOE rbx rbp r13 r14 eax edx ecx esi r12d r15d
..B25.36:                       # Preds ..B25.35
        movl      %eax, 56(%rsp)                                #
        movl      %r15d, 96(%rsp)                               #
        movl      %esi, 88(%rsp)                                #
        movl      %ecx, 72(%rsp)                                #
        movl      %edx, 48(%rsp)                                #
                                # LOE rbx rbp r13 r14 r12d
..B25.37:                       # Preds ..B25.38 ..B25.36

###                 this->setInputAt(in[loc_x*dy*dz+loc_y*dz+loc_z],gridName[idx],x,y,z,false);

        movl      80(%rsp), %r15d                               #709.43
        movq      %rbx, %rdi                                    #709.23
        imull     124(%rbx), %r15d                              #709.43
        xorl      %edx, %edx                                    #709.23
        addl      96(%rsp), %r15d                               #709.55
        addq      $-16, %rsp                                    #709.23
	.cfi_def_cfa_offset 144
        imull     128(%rbx), %r15d                              #709.55
        movl      %r12d, %r9d                                   #709.23
        movslq    %r15d, %r15                                   #709.34
        movq      224(%rbx), %rax                               #709.73
        addq      %r13, %r15                                    #709.34
        movq      $0, (%rsp)                                    #709.23
        movl      80(%rsp), %ecx                                #709.23
        movl      104(%rsp), %r8d                               #709.23
        movq      (%rax,%r14,8), %rsi                           #709.23
        movq      (%rbp,%r15,8), %r15                           #709.34
..___tag_value__ZN8yaskSite8setInputEPdPKc.820:
        call      *200(%rbx)                                    #709.23
..___tag_value__ZN8yaskSite8setInputEPdPKc.821:
                                # LOE rax rbx rbp r13 r14 r15 r12d
..B25.54:                       # Preds ..B25.37
        addq      $16, %rsp                                     #709.23
	.cfi_def_cfa_offset 128
                                # LOE rax rbx rbp r13 r14 r15 r12d
..B25.38:                       # Preds ..B25.54
        incl      %r12d                                         #707.53
        incq      %r13                                          #707.58
        movq      %r15, (%rax)                                  #709.23
        cmpl      72(%rsp), %r12d                               #708.13
        jle       ..B25.37      # Prob 82%                      #708.13
                                # LOE rbx rbp r13 r14 r12d
..B25.39:                       # Preds ..B25.38
        movl      56(%rsp), %eax                                #
        movl      96(%rsp), %r15d                               #
        movl      88(%rsp), %esi                                #
        movl      72(%rsp), %ecx                                #
        movl      48(%rsp), %edx                                #
                                # LOE rbx rbp r14 eax edx ecx esi r15d
..B25.40:                       # Preds ..B25.39 ..B25.35
        incl      %esi                                          #705.49
        incl      %r15d                                         #705.54
        cmpl      %edx, %esi                                    #706.9
        jle       ..B25.35      # Prob 82%                      #706.9
                                # LOE rbx rbp r14 eax edx ecx esi r15d
..B25.41:                       # Preds ..B25.40
        movl      40(%rsp), %r10d                               #
        movl      80(%rsp), %r11d                               #
        movl      32(%rsp), %r9d                                #
        movl      64(%rsp), %r8d                                #
                                # LOE rbx rbp r14 eax edx ecx r8d r9d r10d r11d
..B25.42:                       # Preds ..B25.41 ..B25.33
        incl      %r8d                                          #703.45
        incl      %r11d                                         #703.50
        cmpl      %r9d, %r8d                                    #704.5
        jle       ..B25.33      # Prob 82%                      #704.5
                                # LOE rbx rbp r14 eax edx ecx r8d r9d r10d r11d
..B25.43:                       # Preds ..B25.42
        movq      24(%rsp), %r12                                #
	.cfi_restore 12
        movq      (%rsp), %r13                                  #
	.cfi_restore 13
        movq      8(%rsp), %r14                                 #
	.cfi_restore 14
        movq      16(%rsp), %r15                                #
	.cfi_restore 15
                                # LOE r12 r13 r14 r15
..B25.44:                       # Preds ..B25.43 ..B25.31

###             }
###         }
###     }
###     return 1;

        movl      $1, %eax                                      #713.12
        addq      $104, %rsp                                    #713.12
	.cfi_def_cfa_offset 24
	.cfi_restore 6
        popq      %rbp                                          #713.12
	.cfi_def_cfa_offset 16
	.cfi_restore 3
        popq      %rbx                                          #713.12
	.cfi_def_cfa_offset 8
        ret                                                     #713.12
	.cfi_def_cfa_offset 128
	.cfi_offset 3, -16
	.cfi_offset 6, -24
                                # LOE
..B25.46:                       # Preds ..B25.5                 # Infreq
        movq      %rax, %rcx                                    #692.59
        jmp       ..B25.21      # Prob 100%                     #692.59
                                # LOE rcx rbx rbp rsi r9 r10 r12 r13 r14 r15
..B25.47:                       # Preds ..B25.4                 # Infreq
        movq      %rdx, %rcx                                    #692.59
        jmp       ..B25.21      # Prob 100%                     #692.59
                                # LOE rcx rbx rbp rsi r9 r10 r12 r13 r14 r15
..B25.55:                       # Preds ..B25.25                # Infreq
        movq      stderr@GOTPCREL(%rip), %rbx                   #695.9
        jmp       ..B25.28      # Prob 100%                     #695.9
        .align    16,0x90
	.cfi_endproc
                                # LOE rbx r12 r13 r14 r15
# mark_end;
	.type	_ZN8yaskSite8setInputEPdPKc,@function
	.size	_ZN8yaskSite8setInputEPdPKc,.-_ZN8yaskSite8setInputEPdPKc
	.data
# -- End  _ZN8yaskSite8setInputEPdPKc
	.text
# -- Begin  _ZN8yaskSite12transferDataEPS_Pc, L__ZN8yaskSite12transferDataEPS_Pc_799__par_loop0_2.17
	.text
# mark_begin;
       .align    16,0x90
	.globl _ZN8yaskSite12transferDataEPS_Pc
# --- yaskSite::transferData(yaskSite *, yaskSite *, char *)
_ZN8yaskSite12transferDataEPS_Pc:
# parameter 1: %rdi
# parameter 2: %rsi
# parameter 3: %rdx
..B26.1:                        # Preds ..B26.0

### {

	.cfi_startproc
	.cfi_personality 0x93,DW.ref.__gxx_personality_v0
..___tag_value__ZN8yaskSite12transferDataEPS_Pc.836:
..L837:
                                                        #742.1
        subq      $184, %rsp                                    #742.1
	.cfi_def_cfa_offset 192
        movq      %rdi, 56(%rsp)                                #742.1
        lea       .2.248_2_kmpc_loc_struct_pack.465(%rip), %rdi #742.1
        movq      %rbp, 48(%rsp)                                #742.1
        movq      %rbx, 40(%rsp)                                #742.1
        movq      %r15, 8(%rsp)                                 #742.1
        movq      %r14, 16(%rsp)                                #742.1
        movq      %r13, 24(%rsp)                                #742.1
        movq      %r12, 32(%rsp)                                #742.1
	.cfi_offset 3, -152
	.cfi_offset 6, -144
	.cfi_offset 12, -160
	.cfi_offset 13, -168
	.cfi_offset 14, -176
	.cfi_offset 15, -184
        movq      %rdx, %r12                                    #742.1
        movq      %rsi, 64(%rsp)                                #742.1
        call      __kmpc_global_thread_num@PLT                  #742.1
                                # LOE r12 eax
..B26.120:                      # Preds ..B26.1

###     if(needUpdate())

        movq      56(%rsp), %rbx                                #743.8
        movq      %rbx, %rdi                                    #743.8
        movl      %eax, 100(%rsp)                               #742.1
..___tag_value__ZN8yaskSite12transferDataEPS_Pc.845:
#       yaskSite::needUpdate(yaskSite *)
        call      _ZN8yaskSite10needUpdateEv@PLT                #743.8
..___tag_value__ZN8yaskSite12transferDataEPS_Pc.846:
                                # LOE rbx r12 eax
..B26.2:                        # Preds ..B26.120
        testb     %al, %al                                      #743.8
        jne       ..B26.104     # Prob 5%                       #743.8
                                # LOE rbx r12
..B26.3:                        # Preds ..B26.105 ..B26.2

###     {
###         init();
###     }
### 
###     //check for compatibility between stencil
###     int compatible = checkCompatibility(stencilOther);

        movq      64(%rsp), %rbp                                #749.41
        movq      %rbx, %rdi                                    #749.22
        movq      %rbp, %rsi                                    #749.22
..___tag_value__ZN8yaskSite12transferDataEPS_Pc.847:
#       yaskSite::checkCompatibility(yaskSite *, yaskSite *)
        call      _ZN8yaskSite18checkCompatibilityEPS_@PLT      #749.22
..___tag_value__ZN8yaskSite12transferDataEPS_Pc.848:
                                # LOE rbx rbp r12 eax
..B26.4:                        # Preds ..B26.3

###     if(compatible == 0)

        testl     %eax, %eax                                    #750.22
        jne       ..B26.14      # Prob 50%                      #750.22
                                # LOE rbx rbp r12
..B26.5:                        # Preds ..B26.4

###     {
###         ERROR_PRINT("Can't transfer data between stencils");

        movl      $1140850688, %edi                             #752.9
        lea       (%rsp), %rsi                                  #752.9
..___tag_value__ZN8yaskSite12transferDataEPS_Pc.849:
#       MPI_Comm_rank(MPI_Comm, int *)
        call      MPI_Comm_rank@PLT                             #752.9
..___tag_value__ZN8yaskSite12transferDataEPS_Pc.850:
                                # LOE eax
..B26.6:                        # Preds ..B26.5
        testl     %eax, %eax                                    #752.9
        je        ..B26.8       # Prob 50%                      #752.9
                                # LOE
..B26.7:                        # Preds ..B26.6
        movl      $-1, (%rsp)                                   #752.9
        movq      stderr@GOTPCREL(%rip), %r12                   #752.9
        jmp       ..B26.11      # Prob 100%                     #752.9
                                # LOE r12
..B26.8:                        # Preds ..B26.6
        movl      (%rsp), %ebp                                  #752.9
        testl     %ebp, %ebp                                    #752.9
        jne       ..B26.140     # Prob 50%                      #752.9
                                # LOE ebp
..B26.9:                        # Preds ..B26.8
        lea       .L_2__STRING.1(%rip), %rbx                    #752.9
        movl      $47, %eax                                     #752.9
        movq      %rbx, %rdx                                    #752.9
        movq      %rdx, %rcx                                    #752.9
        movd      %eax, %xmm1                                   #752.9
        andq      $-16, %rdx                                    #752.9
        punpcklbw %xmm1, %xmm1                                  #752.9
        andl      $15, %ecx                                     #752.9
        punpcklbw %xmm1, %xmm1                                  #752.9
        pshufd    $0, %xmm1, %xmm1                              #752.9
        pxor      %xmm0, %xmm0                                  #752.9
        movdqa    (%rdx), %xmm2                                 #752.9
        pcmpeqb   %xmm2, %xmm0                                  #752.9
        pmovmskb  %xmm0, %r10d                                  #752.9
        pcmpeqb   %xmm1, %xmm2                                  #752.9
        shrl      %cl, %r10d                                    #752.9
        lea       -1(%r10), %rax                                #752.9
        xorl      %eax, %r10d                                   #752.9
        pmovmskb  %xmm2, %eax                                   #752.9
        shrl      %cl, %eax                                     #752.9
        andl      %r10d, %eax                                   #752.9
        je        ..L851        # Prob 60%                      #752.9
        bsr       %rax, %rax                                    #752.9
        addq      %rcx, %rax                                    #752.9
        addq      %rdx, %rax                                    #752.9
..L851:                                                         #
        orl       %r10d, %r10d                                  #752.9
        jg        ..L853        # Prob 60%                      #752.9
..L852:                                                         #
        call      __intel_sse2_strrchr@PLT                      #752.9
..L853:                                                         #
                                # LOE rax rbx ebp
..B26.123:                      # Preds ..B26.9
        movq      stderr@GOTPCREL(%rip), %r12                   #752.9
        testq     %rax, %rax                                    #752.9
        lea       .L_2__STRING.63(%rip), %rsi                   #752.9
        lea       1(%rax), %r8                                  #752.9
        cmove     %rbx, %r8                                     #752.9
        movl      %ebp, %edx                                    #752.9
        lea       __$Uc(%rip), %rcx                             #752.9
        movl      $752, %r9d                                    #752.9
        xorl      %eax, %eax                                    #752.9
        movq      (%r12), %rdi                                  #752.9
#       fprintf(FILE *, const char *, ...)
        call      fprintf@PLT                                   #752.9
                                # LOE r12
..B26.10:                       # Preds ..B26.123
        movq      (%r12), %rdi                                  #752.9
#       fflush(FILE *)
        call      fflush@PLT                                    #752.9
                                # LOE r12
..B26.11:                       # Preds ..B26.10 ..B26.140 ..B26.7
        movl      $10, %edi                                     #752.9
        movq      (%r12), %rsi                                  #752.9
        call      fputc@PLT                                     #752.9
                                # LOE r12
..B26.12:                       # Preds ..B26.11
        movq      (%r12), %rdi                                  #752.9
#       fflush(FILE *)
        call      fflush@PLT                                    #752.9
                                # LOE
..B26.13:                       # Preds ..B26.12

###         return 0;

        movq      8(%rsp), %r15                                 #753.16
	.cfi_restore 15
        xorl      %eax, %eax                                    #753.16
        movq      16(%rsp), %r14                                #753.16
	.cfi_restore 14
        movq      24(%rsp), %r13                                #753.16
	.cfi_restore 13
        movq      32(%rsp), %r12                                #753.16
	.cfi_restore 12
        movq      40(%rsp), %rbx                                #753.16
	.cfi_restore 3
        movq      48(%rsp), %rbp                                #753.16
	.cfi_restore 6
        addq      $184, %rsp                                    #753.16
	.cfi_def_cfa_offset 8
        ret                                                     #753.16
	.cfi_def_cfa_offset 192
	.cfi_offset 3, -152
	.cfi_offset 6, -144
	.cfi_offset 12, -160
	.cfi_offset 13, -168
	.cfi_offset 14, -176
	.cfi_offset 15, -184
                                # LOE
..B26.14:                       # Preds ..B26.4

###     }
### 
###     int grid_start, grid_end, other_grid_start;
### 
###     //grids give idx to each grid
###     //and creates a vector of strings
###     if(strcmp(data, "all")==0)

        movq      %r12, %rdi                                    #760.8
        lea       .L_2__STRING.65(%rip), %rsi                   #760.8
..L868:                                                         #760.8
        movb      (%rdi), %dl                                   #760.8
        cmpb      (%rsi), %dl                                   #760.8
        jne       ..L870        # Prob 50%                      #760.8
        testb     %dl, %dl                                      #760.8
        je        ..L869        # Prob 50%                      #760.8
        movb      1(%rdi), %dl                                  #760.8
        cmpb      1(%rsi), %dl                                  #760.8
        jne       ..L870        # Prob 50%                      #760.8
        addq      $2, %rdi                                      #760.8
        addq      $2, %rsi                                      #760.8
        testb     %dl, %dl                                      #760.8
        jne       ..L868        # Prob 50%                      #760.8
..L869:                                                         #
        xorl      %eax, %eax                                    #760.8
        jmp       ..L871        # Prob 100%                     #760.8
..L870:                                                         #
        sbbl      %eax, %eax                                    #760.8
        orl       $1, %eax                                      #760.8
..L871:                                                         #
                                # LOE rbx rbp r12 eax
..B26.124:                      # Preds ..B26.14

###     {
###         grid_start=0;
###         other_grid_start=grid_start;
###         grid_end=gridName.size();

        movq      232(%rbx), %r9                                #764.27
        movq      224(%rbx), %r8                                #764.27
        movq      %r9, %rbx                                     #764.27
        subq      %r8, %rbx                                     #764.27
        testl     %eax, %eax                                    #760.29
        jne       ..B26.20      # Prob 50%                      #760.29
                                # LOE rbx rbp r8 r9 r12
..B26.15:                       # Preds ..B26.124
        shrq      $3, %rbx                                      #764.27
        xorl      %r9d, %r9d                                    #762.9
        movslq    %ebx, %rbx                                    #764.9
        xorl      %ecx, %ecx                                    #763.9

### 
###         //check if both grid names are equal; else quit
###         for(int i=grid_start; i<grid_end; ++i)

        xorl      %r12d, %r12d                                  #767.19
        testq     %rbx, %rbx                                    #767.33
        jle       ..B26.19      # Prob 10%                      #767.33
                                # LOE rbx rbp r8 r9 r12 ecx
..B26.16:                       # Preds ..B26.15

###         {
###             if(strcmp(gridName[i],stencilOther->gridName[i])!=0)

        movq      224(%rbp), %r13                               #769.57
                                # LOE rbx rbp r8 r9 r12 r13 ecx
..B26.17:                       # Preds ..B26.18 ..B26.16
        movq      (%r8,%r12,8), %rdi                            #769.16
        movq      (%r13,%r12,8), %rsi                           #769.16
..L872:                                                         #769.16
        movb      (%rdi), %dl                                   #769.16
        cmpb      (%rsi), %dl                                   #769.16
        jne       ..L874        # Prob 50%                      #769.16
        testb     %dl, %dl                                      #769.16
        je        ..L873        # Prob 50%                      #769.16
        movb      1(%rdi), %dl                                  #769.16
        cmpb      1(%rsi), %dl                                  #769.16
        jne       ..L874        # Prob 50%                      #769.16
        addq      $2, %rdi                                      #769.16
        addq      $2, %rsi                                      #769.16
        testb     %dl, %dl                                      #769.16
        jne       ..L872        # Prob 50%                      #769.16
..L873:                                                         #
        xorl      %eax, %eax                                    #769.16
        jmp       ..L875        # Prob 100%                     #769.16
..L874:                                                         #
        sbbl      %eax, %eax                                    #769.16
        orl       $1, %eax                                      #769.16
..L875:                                                         #
                                # LOE rbx rbp r8 r9 r12 r13 eax ecx
..B26.125:                      # Preds ..B26.17
        testl     %eax, %eax                                    #769.63
        jne       ..B26.106     # Prob 20%                      #769.63
                                # LOE rbx rbp r8 r9 r12 r13 ecx
..B26.18:                       # Preds ..B26.125
        incq      %r12                                          #767.45
        cmpq      %rbx, %r12                                    #767.33
        jl        ..B26.17      # Prob 82%                      #767.33
                                # LOE rbx rbp r8 r9 r12 r13 ecx
..B26.19:                       # Preds ..B26.15 ..B26.18

###             {
###                 ERROR_PRINT("The requested grid = %s does not exist in the stencil to be copied from", gridName[i]);
###                 return 0;
###             }
###         }
### 
###     }
###     else
###     {
###         auto it = std::find(gridName.begin(), gridName.end(), data);
###         if(it==gridName.end())
###         {
###             ERROR_PRINT("The requested grid = %s does not exist", data);
###             return 0;
###         }
### 
###         grid_start = std::distance(gridName.begin(), it);
###         grid_end=grid_start+1;
### 
###         other_grid_start = std::distance(stencilOther->gridName.begin(), std::find(stencilOther->gridName.begin(), stencilOther->gridName.end(), data));
###     }
### 
###     //find newest timestep to transfer;
###     int t = (stencilOther->dt);
### 
###     for(int idx=grid_start, other_idx=other_grid_start; idx<grid_end; ++idx, ++other_idx)

        xorl      %r13d, %r13d                                  #795.17
        jmp       ..B26.71      # Prob 100%                     #795.17
                                # LOE rbx rbp r9 ecx r13d
..B26.20:                       # Preds ..B26.124
        sarq      $5, %rbx                                      #779.63
        movq      %r8, %rcx                                     #779.63
        testq     %rbx, %rbx                                    #779.63
        jle       ..B26.28      # Prob 0%                       #779.63
                                # LOE rcx rbx rbp r8 r9 r12
..B26.22:                       # Preds ..B26.20 ..B26.26
        cmpq      (%rcx), %r12                                  #779.63
        je        ..B26.40      # Prob 20%                      #779.63
                                # LOE rcx rbx rbp r8 r9 r12
..B26.23:                       # Preds ..B26.22
        cmpq      8(%rcx), %r12                                 #779.63
        lea       8(%rcx), %rdx                                 #779.63
        je        ..B26.102     # Prob 20%                      #779.63
                                # LOE rdx rcx rbx rbp r8 r9 r12
..B26.24:                       # Preds ..B26.23
        cmpq      8(%rdx), %r12                                 #779.63
        lea       16(%rcx), %rax                                #779.63
        je        ..B26.101     # Prob 20%                      #779.63
                                # LOE rax rcx rbx rbp r8 r9 r12
..B26.25:                       # Preds ..B26.24
        addq      $24, %rcx                                     #779.63
        cmpq      8(%rax), %r12                                 #779.63
        je        ..B26.40      # Prob 20%                      #779.63
                                # LOE rcx rbx rbp r8 r9 r12
..B26.26:                       # Preds ..B26.25
        decq      %rbx                                          #779.63
        addq      $8, %rcx                                      #779.63
        testq     %rbx, %rbx                                    #779.63
        jg        ..B26.22      # Prob 82%                      #779.63
                                # LOE rcx rbx rbp r8 r9 r12
..B26.28:                       # Preds ..B26.26 ..B26.20
        movq      %r9, %rax                                     #779.63
        subq      %rcx, %rax                                    #779.63
        sarq      $3, %rax                                      #779.63
        cmpq      $3, %rax                                      #779.63
        je        ..B26.31      # Prob 25%                      #779.63
                                # LOE rax rcx rbp r8 r9 r12
..B26.29:                       # Preds ..B26.28
        cmpq      $2, %rax                                      #779.63
        je        ..B26.34      # Prob 33%                      #779.63
                                # LOE rax rcx rbp r8 r9 r12
..B26.30:                       # Preds ..B26.29
        cmpq      $1, %rax                                      #779.63
        je        ..B26.37      # Prob 50%                      #779.63
        jmp       ..B26.39      # Prob 100%                     #779.63
                                # LOE rcx rbp r8 r9 r12
..B26.31:                       # Preds ..B26.28
        cmpq      (%rcx), %r12                                  #779.63
        je        ..B26.40      # Prob 57%                      #779.63
                                # LOE rcx rbp r8 r9 r12
..B26.33:                       # Preds ..B26.31
        addq      $8, %rcx                                      #779.63
                                # LOE rcx rbp r8 r9 r12
..B26.34:                       # Preds ..B26.33 ..B26.29
        cmpq      (%rcx), %r12                                  #779.63
        je        ..B26.40      # Prob 57%                      #779.63
                                # LOE rcx rbp r8 r9 r12
..B26.36:                       # Preds ..B26.34
        addq      $8, %rcx                                      #779.63
                                # LOE rcx rbp r8 r9 r12
..B26.37:                       # Preds ..B26.30 ..B26.36
        cmpq      (%rcx), %r12                                  #779.63
        je        ..B26.40      # Prob 78%                      #779.63
                                # LOE rcx rbp r8 r9 r12
..B26.39:                       # Preds ..B26.30 ..B26.37
        movq      %r9, %rcx                                     #779.63
                                # LOE rcx rbp r8 r9 r12
..B26.40:                       # Preds ..B26.22 ..B26.25 ..B26.37 ..B26.34 ..B26.31
                                #       ..B26.39 ..B26.102 ..B26.101
        cmpq      %r9, %rcx                                     #780.14
        jne       ..B26.50      # Prob 22%                      #780.14
                                # LOE rcx rbp r8 r12
..B26.41:                       # Preds ..B26.40
        movl      $1140850688, %edi                             #782.13
        lea       (%rsp), %rsi                                  #782.13
..___tag_value__ZN8yaskSite12transferDataEPS_Pc.876:
#       MPI_Comm_rank(MPI_Comm, int *)
        call      MPI_Comm_rank@PLT                             #782.13
..___tag_value__ZN8yaskSite12transferDataEPS_Pc.877:
                                # LOE r12 eax
..B26.42:                       # Preds ..B26.41
        testl     %eax, %eax                                    #782.13
        je        ..B26.44      # Prob 50%                      #782.13
                                # LOE r12
..B26.43:                       # Preds ..B26.42
        movl      $-1, (%rsp)                                   #782.13
        movq      stderr@GOTPCREL(%rip), %r13                   #782.13
        jmp       ..B26.47      # Prob 100%                     #782.13
                                # LOE r13
..B26.44:                       # Preds ..B26.42
        movl      (%rsp), %ebp                                  #782.13
        testl     %ebp, %ebp                                    #782.13
        jne       ..B26.139     # Prob 50%                      #782.13
                                # LOE r12 ebp
..B26.45:                       # Preds ..B26.44
        lea       .L_2__STRING.1(%rip), %rbx                    #782.13
        movl      $47, %eax                                     #782.13
        movq      %rbx, %rdx                                    #782.13
        movq      %rdx, %rcx                                    #782.13
        movd      %eax, %xmm1                                   #782.13
        andq      $-16, %rdx                                    #782.13
        punpcklbw %xmm1, %xmm1                                  #782.13
        andl      $15, %ecx                                     #782.13
        punpcklbw %xmm1, %xmm1                                  #782.13
        pshufd    $0, %xmm1, %xmm1                              #782.13
        pxor      %xmm0, %xmm0                                  #782.13
        movdqa    (%rdx), %xmm2                                 #782.13
        pcmpeqb   %xmm2, %xmm0                                  #782.13
        pmovmskb  %xmm0, %r10d                                  #782.13
        pcmpeqb   %xmm1, %xmm2                                  #782.13
        shrl      %cl, %r10d                                    #782.13
        lea       -1(%r10), %rax                                #782.13
        xorl      %eax, %r10d                                   #782.13
        pmovmskb  %xmm2, %eax                                   #782.13
        shrl      %cl, %eax                                     #782.13
        andl      %r10d, %eax                                   #782.13
        je        ..L878        # Prob 60%                      #782.13
        bsr       %rax, %rax                                    #782.13
        addq      %rcx, %rax                                    #782.13
        addq      %rdx, %rax                                    #782.13
..L878:                                                         #
        orl       %r10d, %r10d                                  #782.13
        jg        ..L880        # Prob 60%                      #782.13
..L879:                                                         #
        call      __intel_sse2_strrchr@PLT                      #782.13
..L880:                                                         #
                                # LOE rax rbx r12 ebp
..B26.128:                      # Preds ..B26.45
        addq      $-16, %rsp                                    #782.13
	.cfi_def_cfa_offset 208
        testq     %rax, %rax                                    #782.13
        movq      stderr@GOTPCREL(%rip), %r13                   #782.13
        lea       1(%rax), %r8                                  #782.13
        cmove     %rbx, %r8                                     #782.13
        lea       .L_2__STRING.62(%rip), %rsi                   #782.13
        movl      %ebp, %edx                                    #782.13
        lea       __$Uc(%rip), %rcx                             #782.13
        movl      $782, %r9d                                    #782.13
        xorl      %eax, %eax                                    #782.13
        movq      (%r13), %rdi                                  #782.13
        movq      %r12, (%rsp)                                  #782.13
#       fprintf(FILE *, const char *, ...)
        call      fprintf@PLT                                   #782.13
                                # LOE r13
..B26.127:                      # Preds ..B26.128
        addq      $16, %rsp                                     #782.13
	.cfi_def_cfa_offset 192
                                # LOE r13
..B26.46:                       # Preds ..B26.127
        movq      (%r13), %rdi                                  #782.13
#       fflush(FILE *)
        call      fflush@PLT                                    #782.13
                                # LOE r13
..B26.47:                       # Preds ..B26.46 ..B26.139 ..B26.43
        movl      $10, %edi                                     #782.13
        movq      (%r13), %rsi                                  #782.13
        call      fputc@PLT                                     #782.13
                                # LOE r13
..B26.48:                       # Preds ..B26.47
        movq      (%r13), %rdi                                  #782.13
#       fflush(FILE *)
        call      fflush@PLT                                    #782.13
                                # LOE
..B26.49:                       # Preds ..B26.48
        movq      8(%rsp), %r15                                 #783.20
	.cfi_restore 15
        xorl      %eax, %eax                                    #783.20
        movq      16(%rsp), %r14                                #783.20
	.cfi_restore 14
        movq      24(%rsp), %r13                                #783.20
	.cfi_restore 13
        movq      32(%rsp), %r12                                #783.20
	.cfi_restore 12
        movq      40(%rsp), %rbx                                #783.20
	.cfi_restore 3
        movq      48(%rsp), %rbp                                #783.20
	.cfi_restore 6
        addq      $184, %rsp                                    #783.20
	.cfi_def_cfa_offset 8
        ret                                                     #783.20
	.cfi_def_cfa_offset 192
	.cfi_offset 3, -152
	.cfi_offset 6, -144
	.cfi_offset 12, -160
	.cfi_offset 13, -168
	.cfi_offset 14, -176
	.cfi_offset 15, -184
                                # LOE
..B26.50:                       # Preds ..B26.40
        subq      %r8, %rcx                                     #786.22
        shrq      $3, %rcx                                      #786.22
        movslq    %ecx, %r9                                     #786.9
        movq      232(%rbp), %rcx                               #789.116
        movq      %rcx, %r10                                    #789.146
        movq      224(%rbp), %r11                               #789.42
        subq      %r11, %r10                                    #789.146
        sarq      $5, %r10                                      #789.146
        movl      %r9d, %r13d                                   #787.9
        movq      %r11, %r8                                     #789.146
        lea       1(%r9), %rbx                                  #787.29
        testq     %r10, %r10                                    #789.146
        jle       ..B26.58      # Prob 0%                       #789.146
                                # LOE rcx rbx rbp r8 r9 r10 r11 r12 r13d
..B26.52:                       # Preds ..B26.50 ..B26.56
        cmpq      (%r8), %r12                                   #789.146
        je        ..B26.68      # Prob 20%                      #789.146
                                # LOE rcx rbx rbp r8 r9 r10 r11 r12 r13d
..B26.53:                       # Preds ..B26.52
        cmpq      8(%r8), %r12                                  #789.146
        lea       8(%r8), %rax                                  #789.146
        je        ..B26.96      # Prob 20%                      #789.146
                                # LOE rax rcx rbx rbp r8 r9 r10 r11 r12 r13d
..B26.54:                       # Preds ..B26.53
        cmpq      8(%rax), %r12                                 #789.146
        lea       16(%r8), %rdx                                 #789.146
        je        ..B26.97      # Prob 20%                      #789.146
                                # LOE rdx rcx rbx rbp r8 r9 r10 r11 r12 r13d
..B26.55:                       # Preds ..B26.54
        cmpq      8(%rdx), %r12                                 #789.146
        lea       24(%r8), %rax                                 #789.146
        je        ..B26.96      # Prob 20%                      #789.146
                                # LOE rax rcx rbx rbp r8 r9 r10 r11 r12 r13d
..B26.56:                       # Preds ..B26.55
        decq      %r10                                          #789.146
        addq      $32, %r8                                      #789.146
        testq     %r10, %r10                                    #789.146
        jg        ..B26.52      # Prob 82%                      #789.146
                                # LOE rcx rbx rbp r8 r9 r10 r11 r12 r13d
..B26.58:                       # Preds ..B26.56 ..B26.50
        movq      %rcx, %rax                                    #789.146
        subq      %r8, %rax                                     #789.146
        sarq      $3, %rax                                      #789.146
        cmpq      $3, %rax                                      #789.146
        je        ..B26.61      # Prob 25%                      #789.146
                                # LOE rax rcx rbx rbp r8 r9 r11 r12 r13d
..B26.59:                       # Preds ..B26.58
        cmpq      $2, %rax                                      #789.146
        je        ..B26.64      # Prob 33%                      #789.146
                                # LOE rax rcx rbx rbp r8 r9 r11 r12 r13d
..B26.60:                       # Preds ..B26.59
        cmpq      $1, %rax                                      #789.146
        je        ..B26.67      # Prob 50%                      #789.146
        jmp       ..B26.70      # Prob 100%                     #789.146
                                # LOE rcx rbx rbp r8 r9 r11 r12 r13d
..B26.61:                       # Preds ..B26.58
        cmpq      (%r8), %r12                                   #789.146
        je        ..B26.68      # Prob 57%                      #789.146
                                # LOE rcx rbx rbp r8 r9 r11 r12 r13d
..B26.63:                       # Preds ..B26.61
        addq      $8, %r8                                       #789.146
                                # LOE rcx rbx rbp r8 r9 r11 r12 r13d
..B26.64:                       # Preds ..B26.63 ..B26.59
        cmpq      (%r8), %r12                                   #789.146
        je        ..B26.68      # Prob 57%                      #789.146
                                # LOE rcx rbx rbp r8 r9 r11 r12 r13d
..B26.66:                       # Preds ..B26.64
        addq      $8, %r8                                       #789.146
                                # LOE rcx rbx rbp r8 r9 r11 r12 r13d
..B26.67:                       # Preds ..B26.60 ..B26.66
        cmpq      (%r8), %r12                                   #789.146
        jne       ..B26.70      # Prob 22%                      #789.146
                                # LOE rcx rbx rbp r8 r9 r11 r13d
..B26.68:                       # Preds ..B26.52 ..B26.64 ..B26.61 ..B26.67
        movq      %r8, %rcx                                     #789.146
                                # LOE rcx rbx rbp r9 r11 r13d
..B26.70:                       # Preds ..B26.60 ..B26.67 ..B26.68 ..B26.97 ..B26.96
                                #      
        subq      %r11, %rcx                                    #789.28
        shrq      $3, %rcx                                      #789.28
                                # LOE rbx rbp r9 ecx r13d
..B26.71:                       # Preds ..B26.19 ..B26.70
        movl      116(%rbp), %eax                               #793.14
        cmpq      %rbx, %r9                                     #795.61
        jge       ..B26.95      # Prob 10%                      #795.61
                                # LOE rbx r9 eax ecx r13d
..B26.72:                       # Preds ..B26.71
        movl      %ecx, 4(%rsp)                                 #795.38
        movl      %r13d, 72(%rsp)                               #795.16
        movl      %eax, (%rsp)                                  #793.11
        jmp       ..B26.73      # Prob 100%                     #793.11
                                # LOE rbx r9
..B26.80:                       # Preds ..B26.79
        movl      %eax, 4(%rsp)                                 #795.38
        movl      %r9d, 72(%rsp)                                #795.16
                                # LOE rbx r9
..B26.73:                       # Preds ..B26.80 ..B26.72

###     {
###         EXTRACT_IDX(gridIdx[idx]);

        movq      56(%rsp), %rdx                                #797.9
        lea       (%r9,%r9,2), %rbp                             #797.9

### 
### #pragma omp parallel for collapse(3)

        lea       .2.248_2_kmpc_loc_struct_pack.473(%rip), %rdi #799.1
        xorl      %eax, %eax                                    #799.1
        movq      248(%rdx), %rcx                               #797.9
        movq      (%rcx,%rbp,8), %r12                           #797.9
        movl      (%r12), %esi                                  #797.9
        movl      4(%r12), %r8d                                 #797.9
        movl      8(%r12), %r9d                                 #797.9
        movl      12(%r12), %r10d                               #797.9
        movl      16(%r12), %r11d                               #797.9
        movl      20(%r12), %r13d                               #797.9
        movl      %esi, 76(%rsp)                                #797.9
        movl      %r8d, 80(%rsp)                                #797.9
        movl      %r9d, 84(%rsp)                                #797.9
        movl      %r10d, 88(%rsp)                               #797.9
        movl      %r11d, 92(%rsp)                               #797.9
        movl      %r13d, 96(%rsp)                               #797.9
..___tag_value__ZN8yaskSite12transferDataEPS_Pc.897:
        call      __kmpc_ok_to_fork@PLT                         #799.1
..___tag_value__ZN8yaskSite12transferDataEPS_Pc.898:
                                # LOE rbx eax
..B26.74:                       # Preds ..B26.73
        testl     %eax, %eax                                    #799.1
        je        ..B26.76      # Prob 50%                      #799.1
                                # LOE rbx
..B26.75:                       # Preds ..B26.74
        lea       L__ZN8yaskSite12transferDataEPS_Pc_799__par_loop0_2.17(%rip), %rdx #799.1
        lea       56(%rsp), %rbp                                #799.1
        pushq     %rbp                                          #799.1
	.cfi_def_cfa_offset 200
        lea       .2.248_2_kmpc_loc_struct_pack.473(%rip), %rdi #799.1
        lea       8(%rsp), %r10                                 #799.1
        pushq     %r10                                          #799.1
	.cfi_def_cfa_offset 208
        xorl      %eax, %eax                                    #799.1
        lea       -52(%rbp), %r11                               #799.1
        pushq     %r11                                          #799.1
	.cfi_def_cfa_offset 216
        lea       8(%rbp), %r12                                 #799.1
        pushq     %r12                                          #799.1
	.cfi_def_cfa_offset 224
        lea       16(%rbp), %r13                                #799.1
        pushq     %r13                                          #799.1
	.cfi_def_cfa_offset 232
        lea       40(%rbp), %r14                                #799.1
        pushq     %r14                                          #799.1
	.cfi_def_cfa_offset 240
        lea       36(%rbp), %r15                                #799.1
        pushq     %r15                                          #799.1
	.cfi_def_cfa_offset 248
        lea       32(%rbp), %rsi                                #799.1
        pushq     %rsi                                          #799.1
	.cfi_def_cfa_offset 256
        movl      $11, %esi                                     #799.1
        lea       20(%rbp), %rcx                                #799.1
        lea       4(%rcx), %r8                                  #799.1
        lea       8(%rcx), %r9                                  #799.1
..___tag_value__ZN8yaskSite12transferDataEPS_Pc.907:
        call      __kmpc_fork_call@PLT                          #799.1
..___tag_value__ZN8yaskSite12transferDataEPS_Pc.908:
                                # LOE rbx
..B26.130:                      # Preds ..B26.75
        addq      $64, %rsp                                     #799.1
	.cfi_def_cfa_offset 192
        jmp       ..B26.79      # Prob 100%                     #799.1
                                # LOE rbx
..B26.76:                       # Preds ..B26.74
        lea       .2.248_2_kmpc_loc_struct_pack.473(%rip), %rdi #799.1
        xorl      %eax, %eax                                    #799.1
        movl      100(%rsp), %esi                               #799.1
..___tag_value__ZN8yaskSite12transferDataEPS_Pc.910:
        call      __kmpc_serialized_parallel@PLT                #799.1
..___tag_value__ZN8yaskSite12transferDataEPS_Pc.911:
                                # LOE rbx
..B26.77:                       # Preds ..B26.76
        addq      $-64, %rsp                                    #799.1
	.cfi_def_cfa_offset 256
        lea       ___kmpv_zero_ZN8yaskSite12transferDataEPS_Pc_0(%rip), %rsi #799.1
        lea       156(%rsp), %rax                               #799.1
        lea       4(%rax), %rbp                                 #799.1
        lea       8(%rax), %rdi                                 #799.1
        movq      %rax, (%rsp)                                  #799.1
        lea       -20(%rax), %r10                               #799.1
        movq      %rbp, 8(%rsp)                                 #799.1
        lea       -16(%rax), %rdx                               #799.1
        movq      %r10, 16(%rsp)                                #799.1
        lea       -12(%rax), %rcx                               #799.1
        lea       -8(%rax), %r8                                 #799.1
        lea       -4(%rax), %r9                                 #799.1
        lea       -28(%rax), %r11                               #799.1
        movq      %r11, 24(%rsp)                                #799.1
        lea       -88(%rax), %r12                               #799.1
        movq      %r12, 32(%rsp)                                #799.1
        lea       64(%rsp), %r13                                #799.1
        movq      %r13, 40(%rsp)                                #799.1
        lea       -36(%rax), %r14                               #799.1
        movq      %r14, 48(%rsp)                                #799.1
..___tag_value__ZN8yaskSite12transferDataEPS_Pc.913:
        call      L__ZN8yaskSite12transferDataEPS_Pc_799__par_loop0_2.17 #799.1
..___tag_value__ZN8yaskSite12transferDataEPS_Pc.914:
                                # LOE rbx
..B26.131:                      # Preds ..B26.77
        addq      $64, %rsp                                     #799.1
	.cfi_def_cfa_offset 192
                                # LOE rbx
..B26.78:                       # Preds ..B26.131
        lea       .2.248_2_kmpc_loc_struct_pack.473(%rip), %rdi #799.1
        xorl      %eax, %eax                                    #799.1
        movl      100(%rsp), %esi                               #799.1
..___tag_value__ZN8yaskSite12transferDataEPS_Pc.916:
        call      __kmpc_end_serialized_parallel@PLT            #799.1
..___tag_value__ZN8yaskSite12transferDataEPS_Pc.917:
                                # LOE rbx
..B26.79:                       # Preds ..B26.130 ..B26.78
        movslq    72(%rsp), %r9                                 #795.73
        incq      %r9                                           #795.73
        movl      4(%rsp), %eax                                 #795.80
        incl      %eax                                          #795.80
        cmpq      %rbx, %r9                                     #795.61
        jl        ..B26.80      # Prob 82%                      #795.61
        jmp       ..B26.95      # Prob 100%                     #795.61
	.cfi_restore 3
	.cfi_restore 6
	.cfi_restore 12
	.cfi_restore 13
	.cfi_restore 14
	.cfi_restore 15
                                # LOE rbx r9 eax
L__ZN8yaskSite12transferDataEPS_Pc_799__par_loop0_2.17:
# parameter 1: %rdi
# parameter 2: %rsi
# parameter 3: %rdx
# parameter 4: %rcx
# parameter 5: %r8
# parameter 6: %r9
# parameter 7: 192 + %rsp
# parameter 8: 200 + %rsp
# parameter 9: 208 + %rsp
# parameter 10: 216 + %rsp
# parameter 11: 224 + %rsp
# parameter 12: 232 + %rsp
# parameter 13: 240 + %rsp
..B26.81:                       # Preds ..B26.0
        subq      $184, %rsp                                    #799.1
        movq      %rbp, 48(%rsp)                                #799.1
	.cfi_offset 6, -144
        movq      208(%rsp), %rbp                               #799.1
        movq      %r15, 8(%rsp)                                 #799.1
	.cfi_offset 15, -184
        movq      200(%rsp), %r15                               #799.1
        movq      192(%rsp), %rax                               #799.1
        movq      232(%rsp), %r11                               #799.1
        movq      224(%rsp), %rsi                               #799.1
        movslq    (%rbp), %rbp                                  #799.1
        movq      %r14, 16(%rsp)                                #799.1
        movq      %r13, 24(%rsp)                                #799.1
	.cfi_offset 13, -168
	.cfi_offset 14, -176
        movq      216(%rsp), %r14                               #799.1
        movq      240(%rsp), %r13                               #799.1
        movl      (%rdi), %r10d                                 #799.1
        movq      %rbp, 112(%rsp)                               #799.1
        movl      (%r15), %ebp                                  #799.1
        movl      (%rax), %r15d                                 #799.1
        movq      %rbx, 40(%rsp)                                #799.1
        movl      %r10d, 64(%rsp)                               #799.1
	.cfi_offset 3, -152
        movl      (%r11), %ebx                                  #799.1
        movslq    (%rsi), %r10                                  #799.1
        movl      (%r9), %eax                                   #799.1
        movl      (%r8), %r8d                                   #799.1
        movl      (%rdx), %edx                                  #799.1
        movl      %r15d, 144(%rsp)                              #799.1
        movl      (%rcx), %r15d                                 #799.1

###         for(int x=x_start; x<=x_end; ++x)
###         {

        cmpl      %r15d, %edx                                   #801.9
        movq      %r12, 32(%rsp)                                #799.1
        movl      %ebx, 128(%rsp)                               #799.1
	.cfi_offset 12, -160
        movq      (%r13), %r12                                  #799.1
        movq      %r10, 120(%rsp)                               #799.1
        movq      (%r14), %rbx                                  #799.1
        movl      %eax, 56(%rsp)                                #799.1
        movl      %r8d, 136(%rsp)                               #799.1
        movl      %edx, 72(%rsp)                                #799.1
        jg        ..B26.86      # Prob 10%                      #801.9
                                # LOE rax rbx r12 r13 r14 eax ebp r15d al ah
..B26.82:                       # Preds ..B26.81
        xorl      %r10d, %r10d                                  #799.1

###             for(int y=y_start; y<=y_end; ++y)
###             {
###                 for(int z=z_start; z<=z_end; ++z)

        subl      144(%rsp), %ebp                               #804.17
        lea       .2.248_2_kmpc_loc_struct_pack.473(%rip), %rdi #799.1
        subl      136(%rsp), %eax                               #802.13
        incl      %ebp                                          #804.17
        incl      %eax                                          #802.13
        movl      $34, %edx                                     #799.1
        imull     %ebp, %eax                                    #802.23
        subl      72(%rsp), %r15d                               #800.9
        incl      %r15d                                         #800.9
        imull     %eax, %r15d                                   #800.19
        movl      %eax, 80(%rsp)                                #802.23
        decl      %r15d                                         #799.1
        movl      $1, %eax                                      #799.1
        movl      %r10d, 96(%rsp)                               #799.1
        movl      %r15d, 100(%rsp)                              #799.1
        movl      %r10d, 104(%rsp)                              #799.1
        movl      %eax, 108(%rsp)                               #799.1
        addq      $-32, %rsp                                    #799.1
	.cfi_def_cfa_offset 224
        lea       140(%rsp), %r11                               #799.1
        lea       136(%rsp), %rcx                               #799.1
        lea       128(%rsp), %r8                                #799.1
        movq      %r11, (%rsp)                                  #799.1
        lea       132(%rsp), %r9                                #799.1
        movl      %eax, 8(%rsp)                                 #799.1
        movl      %eax, 16(%rsp)                                #799.1
        movl      -40(%rcx), %esi                               #799.1
        call      __kmpc_for_static_init_4@PLT                  #799.1
                                # LOE rbx r12 r13 r14 ebp r15d
..B26.132:                      # Preds ..B26.82
        addq      $32, %rsp                                     #799.1
	.cfi_def_cfa_offset 192
                                # LOE rbx r12 r13 r14 ebp r15d
..B26.83:                       # Preds ..B26.132
        movl      96(%rsp), %ecx                                #799.1
        cmpl      %r15d, %ecx                                   #799.1
        movl      100(%rsp), %eax                               #799.1
        jg        ..B26.85      # Prob 50%                      #799.1
                                # LOE rbx r12 r13 r14 eax ecx ebp r15d
..B26.84:                       # Preds ..B26.83
        cmpl      %r15d, %eax                                   #799.1
        cmovl     %eax, %r15d                                   #799.1
        cmpl      %r15d, %ecx                                   #800.9
        jle       ..B26.87      # Prob 50%                      #800.9
                                # LOE rbx r12 r13 r14 ecx ebp r15d
..B26.85:                       # Preds ..B26.115 ..B26.91 ..B26.84 ..B26.83
        lea       .2.248_2_kmpc_loc_struct_pack.473(%rip), %rdi #799.1
        movl      64(%rsp), %esi                                #799.1
        call      __kmpc_for_static_fini@PLT                    #799.1
                                # LOE
..B26.86:                       # Preds ..B26.85 ..B26.81
        movq      8(%rsp), %r15                                 #799.1
	.cfi_restore 15
        movq      16(%rsp), %r14                                #799.1
	.cfi_restore 14
        movq      24(%rsp), %r13                                #799.1
	.cfi_restore 13
        movq      32(%rsp), %r12                                #799.1
	.cfi_restore 12
        movq      40(%rsp), %rbx                                #799.1
	.cfi_restore 3
        movq      48(%rsp), %rbp                                #799.1
	.cfi_restore 6
        addq      $184, %rsp                                    #799.1
	.cfi_def_cfa_offset 8
        ret                                                     #799.1
	.cfi_def_cfa_offset 192
	.cfi_offset 3, -152
	.cfi_offset 6, -144
	.cfi_offset 12, -160
	.cfi_offset 13, -168
	.cfi_offset 14, -176
	.cfi_offset 15, -184
                                # LOE
..B26.87:                       # Preds ..B26.84

###                 {
###                     *(this->getPtrAt(gridName[idx],0,x,y,z,false)) = *(stencilOther->getPtrAt(stencilOther->gridName[other_idx],t,x,y,z,false));

        movq      (%r14), %rdx                                  #806.95
        movq      (%r13), %rax                                  #806.38
        movq      %rax, 168(%rsp)                               #806.38
        movq      %rdx, 160(%rsp)                               #806.38
        movl      %r15d, (%rsp)                                 #806.38
        movl      %ecx, 88(%rsp)                                #806.38
        movl      %ebp, 152(%rsp)                               #806.38
                                # LOE rbx r12
..B26.88:                       # Preds ..B26.91 ..B26.115 ..B26.87
        movl      88(%rsp), %eax                                #800.19
        cltd                                                    #800.19
        idivl     80(%rsp)                                      #800.19
        movl      %eax, %r15d                                   #800.19
        movl      136(%rsp), %ebp                               #803.13
        addl      72(%rsp), %r15d                               #800.19
        cmpl      56(%rsp), %ebp                                #803.13
        jg        ..B26.115     # Prob 10%                      #803.13
                                # LOE rbx r12 edx r15d
..B26.89:                       # Preds ..B26.88
        movl      %edx, %eax                                    #802.23
        movq      %rbx, %rdi                                    #806.86
        cltd                                                    #802.23
        idivl     152(%rsp)                                     #802.23
        movl      %edx, %r14d                                   #802.23
        movl      %eax, %r13d                                   #802.23
        addl      136(%rsp), %r13d                              #802.23
        movl      %r15d, %ecx                                   #806.86
        addl      144(%rsp), %r14d                              #804.27
        addq      $-16, %rsp                                    #806.86
	.cfi_def_cfa_offset 208
        movq      176(%rsp), %rbp                               #806.86
        movl      %r13d, %r8d                                   #806.86
        movl      %r14d, %r9d                                   #806.86
        movq      $0, (%rsp)                                    #806.86
        movq      224(%rbp), %r10                               #806.86
        movq      136(%rsp), %r11                               #806.86
        movl      144(%rsp), %edx                               #806.86
        movq      (%r10,%r11,8), %rsi                           #806.86
..___tag_value__ZN8yaskSite12transferDataEPS_Pc.948:
        call      *200(%rbx)                                    #806.86
..___tag_value__ZN8yaskSite12transferDataEPS_Pc.949:
                                # LOE rax rbx r12 r13d r14d r15d
..B26.90:                       # Preds ..B26.89
        movq      %r12, %rdi                                    #806.29
        movq      (%rax), %rbp                                  #806.86
        xorl      %edx, %edx                                    #806.29
        movq      184(%rsp), %rax                               #806.29
        movl      %r15d, %ecx                                   #806.29
        movq      128(%rsp), %r11                               #806.29
        movl      %r13d, %r8d                                   #806.29
        movl      %r14d, %r9d                                   #806.29
        movq      224(%rax), %r10                               #806.29
        movq      $0, (%rsp)                                    #806.29
        movq      (%r10,%r11,8), %rsi                           #806.29
..___tag_value__ZN8yaskSite12transferDataEPS_Pc.950:
        call      *200(%r12)                                    #806.29
..___tag_value__ZN8yaskSite12transferDataEPS_Pc.951:
                                # LOE rax rbx rbp r12
..B26.134:                      # Preds ..B26.90
        addq      $16, %rsp                                     #806.29
	.cfi_def_cfa_offset 192
                                # LOE rax rbx rbp r12
..B26.91:                       # Preds ..B26.134
        movq      %rbp, (%rax)                                  #806.29
        movl      88(%rsp), %eax                                #800.40
        incl      %eax                                          #800.40
        movl      %eax, 88(%rsp)                                #800.40
        cmpl      (%rsp), %eax                                  #800.9
        jle       ..B26.88      # Prob 82%                      #800.9
        jmp       ..B26.85      # Prob 100%                     #800.9
                                # LOE rbx r12
..B26.95:                       # Preds ..B26.79 ..B26.71       # Infreq

###                 }
###             }
###         }
###     }
### 
###     return 1;

        movq      8(%rsp), %r15                                 #812.12
	.cfi_restore 15
        movl      $1, %eax                                      #812.12
        movq      16(%rsp), %r14                                #812.12
	.cfi_restore 14
        movq      24(%rsp), %r13                                #812.12
	.cfi_restore 13
        movq      32(%rsp), %r12                                #812.12
	.cfi_restore 12
        movq      40(%rsp), %rbx                                #812.12
	.cfi_restore 3
        movq      48(%rsp), %rbp                                #812.12
	.cfi_restore 6
        addq      $184, %rsp                                    #812.12
	.cfi_def_cfa_offset 8
        ret                                                     #812.12
	.cfi_def_cfa_offset 192
	.cfi_offset 3, -152
	.cfi_offset 6, -144
	.cfi_offset 12, -160
	.cfi_offset 13, -168
	.cfi_offset 14, -176
	.cfi_offset 15, -184
                                # LOE
..B26.96:                       # Preds ..B26.53 ..B26.55       # Infreq
        movq      %rax, %rcx                                    #789.146
        jmp       ..B26.70      # Prob 100%                     #789.146
                                # LOE rcx rbx rbp r9 r11 r13d
..B26.97:                       # Preds ..B26.54                # Infreq
        movq      %rdx, %rcx                                    #789.146
        jmp       ..B26.70      # Prob 100%                     #789.146
                                # LOE rcx rbx rbp r9 r11 r13d
..B26.101:                      # Preds ..B26.24                # Infreq
        movq      %rax, %rcx                                    #779.63
        jmp       ..B26.40      # Prob 100%                     #779.63
                                # LOE rcx rbp r8 r9 r12
..B26.102:                      # Preds ..B26.23                # Infreq
        movq      %rdx, %rcx                                    #779.63
        jmp       ..B26.40      # Prob 100%                     #779.63
                                # LOE rcx rbp r8 r9 r12
..B26.104:                      # Preds ..B26.2                 # Infreq
        movq      %rbx, %rdi                                    #745.9
..___tag_value__ZN8yaskSite12transferDataEPS_Pc.967:
#       yaskSite::init(yaskSite *)
        call      _ZN8yaskSite4initEv@PLT                       #745.9
..___tag_value__ZN8yaskSite12transferDataEPS_Pc.968:
                                # LOE r12
..B26.105:                      # Preds ..B26.104               # Infreq
        movq      56(%rsp), %rbx                                #749.22
        jmp       ..B26.3       # Prob 100%                     #749.22
                                # LOE rbx r12
..B26.106:                      # Preds ..B26.125               # Infreq
        movl      $1140850688, %edi                             #771.17
        lea       (%rsp), %rsi                                  #771.17
..___tag_value__ZN8yaskSite12transferDataEPS_Pc.969:
#       MPI_Comm_rank(MPI_Comm, int *)
        call      MPI_Comm_rank@PLT                             #771.17
..___tag_value__ZN8yaskSite12transferDataEPS_Pc.970:
                                # LOE r12 eax
..B26.107:                      # Preds ..B26.106               # Infreq
        testl     %eax, %eax                                    #771.17
        je        ..B26.109     # Prob 50%                      #771.17
                                # LOE r12
..B26.108:                      # Preds ..B26.107               # Infreq
        movl      $-1, (%rsp)                                   #771.17
        movq      stderr@GOTPCREL(%rip), %rbp                   #771.17
        jmp       ..B26.112     # Prob 100%                     #771.17
                                # LOE rbp
..B26.109:                      # Preds ..B26.107               # Infreq
        movl      (%rsp), %ebx                                  #771.17
        testl     %ebx, %ebx                                    #771.17
        jne       ..B26.138     # Prob 50%                      #771.17
                                # LOE r12 ebx
..B26.110:                      # Preds ..B26.109               # Infreq
        lea       .L_2__STRING.1(%rip), %rsi                    #771.17
        movl      $47, %eax                                     #771.17
        movq      %rsi, %rdx                                    #771.17
        movq      %rdx, %rcx                                    #771.17
        movd      %eax, %xmm1                                   #771.17
        andq      $-16, %rdx                                    #771.17
        punpcklbw %xmm1, %xmm1                                  #771.17
        andl      $15, %ecx                                     #771.17
        punpcklbw %xmm1, %xmm1                                  #771.17
        pshufd    $0, %xmm1, %xmm1                              #771.17
        pxor      %xmm0, %xmm0                                  #771.17
        movdqa    (%rdx), %xmm2                                 #771.17
        pcmpeqb   %xmm2, %xmm0                                  #771.17
        pmovmskb  %xmm0, %r10d                                  #771.17
        pcmpeqb   %xmm1, %xmm2                                  #771.17
        shrl      %cl, %r10d                                    #771.17
        lea       -1(%r10), %rax                                #771.17
        xorl      %eax, %r10d                                   #771.17
        pmovmskb  %xmm2, %eax                                   #771.17
        shrl      %cl, %eax                                     #771.17
        andl      %r10d, %eax                                   #771.17
        je        ..L971        # Prob 60%                      #771.17
        bsr       %rax, %rax                                    #771.17
        addq      %rcx, %rax                                    #771.17
        addq      %rdx, %rax                                    #771.17
..L971:                                                         #
        orl       %r10d, %r10d                                  #771.17
        jg        ..L973        # Prob 60%                      #771.17
..L972:                                                         #
        call      __intel_sse2_strrchr@PLT                      #771.17
..L973:                                                         #
                                # LOE rax rsi r12 ebx
..B26.137:                      # Preds ..B26.110               # Infreq
        addq      $-16, %rsp                                    #771.17
	.cfi_def_cfa_offset 208
        testq     %rax, %rax                                    #771.17
        movq      72(%rsp), %r10                                #771.17
        lea       1(%rax), %r8                                  #771.17
        movq      stderr@GOTPCREL(%rip), %rbp                   #771.17
        cmove     %rsi, %r8                                     #771.17
        lea       .L_2__STRING.64(%rip), %rsi                   #771.17
        movl      %ebx, %edx                                    #771.17
        movq      224(%r10), %r11                               #771.17
        lea       __$Uc(%rip), %rcx                             #771.17
        movl      $771, %r9d                                    #771.17
        xorl      %eax, %eax                                    #771.17
        movq      (%rbp), %rdi                                  #771.17
        movq      (%r11,%r12,8), %r12                           #771.17
        movq      %r12, (%rsp)                                  #771.17
#       fprintf(FILE *, const char *, ...)
        call      fprintf@PLT                                   #771.17
                                # LOE rbp
..B26.136:                      # Preds ..B26.137               # Infreq
        addq      $16, %rsp                                     #771.17
	.cfi_def_cfa_offset 192
                                # LOE rbp
..B26.111:                      # Preds ..B26.136               # Infreq
        movq      (%rbp), %rdi                                  #771.17
#       fflush(FILE *)
        call      fflush@PLT                                    #771.17
                                # LOE rbp
..B26.112:                      # Preds ..B26.111 ..B26.138 ..B26.108 # Infreq
        movl      $10, %edi                                     #771.17
        movq      (%rbp), %rsi                                  #771.17
        call      fputc@PLT                                     #771.17
                                # LOE rbp
..B26.113:                      # Preds ..B26.112               # Infreq
        movq      (%rbp), %rdi                                  #771.17
#       fflush(FILE *)
        call      fflush@PLT                                    #771.17
                                # LOE
..B26.114:                      # Preds ..B26.113               # Infreq
        movq      8(%rsp), %r15                                 #772.24
	.cfi_restore 15
        xorl      %eax, %eax                                    #772.24
        movq      16(%rsp), %r14                                #772.24
	.cfi_restore 14
        movq      24(%rsp), %r13                                #772.24
	.cfi_restore 13
        movq      32(%rsp), %r12                                #772.24
	.cfi_restore 12
        movq      40(%rsp), %rbx                                #772.24
	.cfi_restore 3
        movq      48(%rsp), %rbp                                #772.24
	.cfi_restore 6
        addq      $184, %rsp                                    #772.24
	.cfi_def_cfa_offset 8
        ret                                                     #772.24
	.cfi_def_cfa_offset 192
	.cfi_offset 3, -152
	.cfi_offset 6, -144
	.cfi_offset 12, -160
	.cfi_offset 13, -168
	.cfi_offset 14, -176
	.cfi_offset 15, -184
                                # LOE
..B26.115:                      # Preds ..B26.88                # Infreq
        movl      88(%rsp), %eax                                #800.40
        incl      %eax                                          #800.40
        movl      %eax, 88(%rsp)                                #800.40
        cmpl      (%rsp), %eax                                  #800.9
        jle       ..B26.88      # Prob 82%                      #800.9
        jmp       ..B26.85      # Prob 100%                     #800.9
                                # LOE rbx r12
..B26.138:                      # Preds ..B26.109               # Infreq
        movq      stderr@GOTPCREL(%rip), %rbp                   #752.9
        jmp       ..B26.112     # Prob 100%                     #752.9
                                # LOE rbp
..B26.139:                      # Preds ..B26.44                # Infreq
        movq      stderr@GOTPCREL(%rip), %r13                   #752.9
        jmp       ..B26.47      # Prob 100%                     #752.9
                                # LOE r13
..B26.140:                      # Preds ..B26.8                 # Infreq
        movq      stderr@GOTPCREL(%rip), %r12                   #752.9
        jmp       ..B26.11      # Prob 100%                     #752.9
        .align    16,0x90
	.cfi_endproc
                                # LOE r12
# mark_end;
	.type	_ZN8yaskSite12transferDataEPS_Pc,@function
	.size	_ZN8yaskSite12transferDataEPS_Pc,.-_ZN8yaskSite12transferDataEPS_Pc
	.data
	.align 4
.2.248_2_kmpc_loc_struct_pack.465:
	.long	0
	.long	2
	.long	0
	.long	0
	.quad	.2.248_2__kmpc_loc_pack.464
	.align 4
.2.248_2__kmpc_loc_pack.464:
	.byte	59
	.byte	117
	.byte	110
	.byte	107
	.byte	110
	.byte	111
	.byte	119
	.byte	110
	.byte	59
	.byte	116
	.byte	114
	.byte	97
	.byte	110
	.byte	115
	.byte	102
	.byte	101
	.byte	114
	.byte	68
	.byte	97
	.byte	116
	.byte	97
	.byte	59
	.byte	55
	.byte	52
	.byte	50
	.byte	59
	.byte	55
	.byte	52
	.byte	50
	.byte	59
	.byte	59
	.space 1, 0x00 	# pad
	.align 4
.2.248_2_kmpc_loc_struct_pack.473:
	.long	0
	.long	2
	.long	0
	.long	0
	.quad	.2.248_2__kmpc_loc_pack.472
	.align 4
.2.248_2__kmpc_loc_pack.472:
	.byte	59
	.byte	117
	.byte	110
	.byte	107
	.byte	110
	.byte	111
	.byte	119
	.byte	110
	.byte	59
	.byte	116
	.byte	114
	.byte	97
	.byte	110
	.byte	115
	.byte	102
	.byte	101
	.byte	114
	.byte	68
	.byte	97
	.byte	116
	.byte	97
	.byte	59
	.byte	55
	.byte	57
	.byte	57
	.byte	59
	.byte	56
	.byte	48
	.byte	57
	.byte	59
	.byte	59
	.data
# -- End  _ZN8yaskSite12transferDataEPS_Pc, L__ZN8yaskSite12transferDataEPS_Pc_799__par_loop0_2.17
	.text
# -- Begin  _ZN8yaskSite18checkCompatibilityEPS_
	.text
# mark_begin;
       .align    16,0x90
	.globl _ZN8yaskSite18checkCompatibilityEPS_
# --- yaskSite::checkCompatibility(yaskSite *, yaskSite *)
_ZN8yaskSite18checkCompatibilityEPS_:
# parameter 1: %rdi
# parameter 2: %rsi
..B27.1:                        # Preds ..B27.0

### {

	.cfi_startproc
	.cfi_personality 0x93,DW.ref.__gxx_personality_v0
..___tag_value__ZN8yaskSite18checkCompatibilityEPS_.991:
..L992:
                                                        #724.1
        movq      %rdi, %rcx                                    #724.1
        movq      %rsi, %r8                                     #724.1

###     if( (dx!=otherStencil->dx) || ((dy!=otherStencil->dy) || (dz!=otherStencil->dz)) )

        movl      120(%rcx), %eax                               #725.10
        cmpl      120(%r8), %eax                                #725.14
        jne       ..B27.10      # Prob 28%                      #725.14
                                # LOE rcx rbx rbp r8 r12 r13 r14 r15
..B27.2:                        # Preds ..B27.1
        movl      124(%rcx), %eax                               #725.37
        cmpl      124(%r8), %eax                                #725.41
        jne       ..B27.10      # Prob 28%                      #725.41
                                # LOE rcx rbx rbp r8 r12 r13 r14 r15
..B27.3:                        # Preds ..B27.2
        movl      128(%rcx), %eax                               #725.63
        cmpl      128(%r8), %eax                                #725.67
        jne       ..B27.10      # Prob 28%                      #725.67
                                # LOE rcx rbx rbp r8 r12 r13 r14 r15
..B27.4:                        # Preds ..B27.3

###     {
###         return 0;
###     }
###     else
###     {
###         if( ( (strcmp(path, otherStencil->path)!=0) || (fold_x!=otherStencil->fold_x) ) || ( (fold_y!=otherStencil->fold_y) || (fold_z!=otherStencil->fold_z) ) )

        movq      152(%rcx), %rdi                               #731.16
        movq      152(%r8), %rsi                                #731.16
..L993:                                                         #731.16
        movb      (%rdi), %dl                                   #731.16
        cmpb      (%rsi), %dl                                   #731.16
        jne       ..L995        # Prob 50%                      #731.16
        testb     %dl, %dl                                      #731.16
        je        ..L994        # Prob 50%                      #731.16
        movb      1(%rdi), %dl                                  #731.16
        cmpb      1(%rsi), %dl                                  #731.16
        jne       ..L995        # Prob 50%                      #731.16
        addq      $2, %rdi                                      #731.16
        addq      $2, %rsi                                      #731.16
        testb     %dl, %dl                                      #731.16
        jne       ..L993        # Prob 50%                      #731.16
..L994:                                                         #
        xorl      %eax, %eax                                    #731.16
        jmp       ..L996        # Prob 100%                     #731.16
..L995:                                                         #
        sbbl      %eax, %eax                                    #731.16
        orl       $1, %eax                                      #731.16
..L996:                                                         #
                                # LOE rcx rbx rbp r8 r12 r13 r14 r15 eax
..B27.13:                       # Preds ..B27.4
        testl     %eax, %eax                                    #731.50
        jne       ..B27.9       # Prob 28%                      #731.50
                                # LOE rcx rbx rbp r8 r12 r13 r14 r15
..B27.5:                        # Preds ..B27.13
        movl      64(%rcx), %eax                                #731.57
        cmpl      64(%r8), %eax                                 #731.65
        jne       ..B27.9       # Prob 28%                      #731.65
                                # LOE rcx rbx rbp r8 r12 r13 r14 r15
..B27.6:                        # Preds ..B27.5
        movl      68(%rcx), %eax                                #731.95
        cmpl      68(%r8), %eax                                 #731.103
        jne       ..B27.9       # Prob 28%                      #731.103
                                # LOE rcx rbx rbp r8 r12 r13 r14 r15
..B27.7:                        # Preds ..B27.6
        movl      72(%rcx), %eax                                #731.129
        cmpl      72(%r8), %eax                                 #731.137
        jne       ..B27.9       # Prob 50%                      #731.137
                                # LOE rbx rbp r12 r13 r14 r15
..B27.8:                        # Preds ..B27.7

###         {
###             return 1;
###         }
###     }
###     return 2;

        movl      $2, %eax                                      #736.12
        ret                                                     #736.12
                                # LOE
..B27.9:                        # Preds ..B27.7 ..B27.6 ..B27.13 ..B27.5
        movl      $1, %eax                                      #733.20
        ret                                                     #733.20
                                # LOE
..B27.10:                       # Preds ..B27.1 ..B27.2 ..B27.3
        xorl      %eax, %eax                                    #727.16
        ret                                                     #727.16
        .align    16,0x90
	.cfi_endproc
                                # LOE
# mark_end;
	.type	_ZN8yaskSite18checkCompatibilityEPS_,@function
	.size	_ZN8yaskSite18checkCompatibilityEPS_,.-_ZN8yaskSite18checkCompatibilityEPS_
	.data
# -- End  _ZN8yaskSite18checkCompatibilityEPS_
	.text
# -- Begin  __sti__$E
	.text
# mark_begin;
       .align    16,0x90
# --- __sti__$E()
__sti__$E:
..B28.1:                        # Preds ..B28.0
	.cfi_startproc
	.cfi_personality 0x93,DW.ref.__gxx_personality_v0
..___tag_value___sti__$E.998:
..L999:
                                                        #
        pushq     %rsi                                          #
	.cfi_def_cfa_offset 16

### static cache_info L1(L1_cache);

        lea       L1(%rip), %rdi                                #18.22
        lea       .L_2__STRING.66(%rip), %rsi                   #18.22
        movl      $8, %edx                                      #18.22
..___tag_value___sti__$E.1001:
#       cache_info::cache_info(cache_info *, char *, int)
        call      _ZN10cache_infoC1EPci@PLT                     #18.22
..___tag_value___sti__$E.1002:
                                # LOE rbx rbp r12 r13 r14 r15
..B28.2:                        # Preds ..B28.1
        lea       L2(%rip), %rdi                                #18.22
        lea       .L_2__STRING.67(%rip), %rsi                   #18.22
        movl      $8, %edx                                      #18.22
..___tag_value___sti__$E.1003:
#       cache_info::cache_info(cache_info *, char *, int)
        call      _ZN10cache_infoC1EPci@PLT                     #18.22
..___tag_value___sti__$E.1004:
                                # LOE rbx rbp r12 r13 r14 r15
..B28.3:                        # Preds ..B28.2
        lea       L3(%rip), %rdi                                #18.22
        lea       .L_2__STRING.68(%rip), %rsi                   #18.22
        movl      $8, %edx                                      #18.22
        addq      $8, %rsp                                      #18.22
	.cfi_def_cfa_offset 8
#       cache_info::cache_info(cache_info *, char *, int)
        jmp       _ZN10cache_infoC1EPci@PLT                     #18.22
        .align    16,0x90
	.cfi_endproc
                                # LOE
# mark_end;
	.type	__sti__$E,@function
	.size	__sti__$E,.-__sti__$E
	.data
# -- End  __sti__$E
	.text
# -- Begin  _ZN8yaskSite12assignUpdateEb
	.text
# mark_begin;
       .align    16,0x90
	.globl _ZN8yaskSite12assignUpdateEb
# --- yaskSite::assignUpdate(yaskSite *, bool)
_ZN8yaskSite12assignUpdateEb:
# parameter 1: %rdi
# parameter 2: %esi
..B29.1:                        # Preds ..B29.0

### {

	.cfi_startproc
	.cfi_personality 0x93,DW.ref.__gxx_personality_v0
..___tag_value__ZN8yaskSite12assignUpdateEb.1007:
..L1008:
                                                       #595.1

###     threadUpdated=val;

        movb      %sil, 165(%rdi)                               #596.5

###     dimUpdated=val;

        movb      %sil, 164(%rdi)                               #597.5

###     regionUpdated=val;

        movb      %sil, 163(%rdi)                               #598.5

###     blockUpdated=val;

        movb      %sil, 162(%rdi)                               #599.5

###     subBlockUpdated=val;

        movb      %sil, 161(%rdi)                               #600.5

### }

        ret                                                     #601.1
        .align    16,0x90
	.cfi_endproc
                                # LOE
# mark_end;
	.type	_ZN8yaskSite12assignUpdateEb,@function
	.size	_ZN8yaskSite12assignUpdateEb,.-_ZN8yaskSite12assignUpdateEb
	.data
# -- End  _ZN8yaskSite12assignUpdateEb
	.text
# -- Begin  _ZN8yaskSite5buildEv, L__ZN8yaskSite5buildEv_108__par_region0_2.18, L__ZN8yaskSite5buildEv_120__par_region1_2.19
	.text
# mark_begin;
       .align    16,0x90
	.globl _ZN8yaskSite5buildEv
# --- yaskSite::build(yaskSite *)
_ZN8yaskSite5buildEv:
# parameter 1: %rdi
..B30.1:                        # Preds ..B30.0

### {

	.cfi_startproc
	.cfi_personality 0x93,DW.ref.__gxx_personality_v0
..___tag_value__ZN8yaskSite5buildEv.1010:
..L1011:
                                                       #91.1
        subq      $104, %rsp                                    #91.1
	.cfi_def_cfa_offset 112
        movq      %rdi, %rax                                    #91.1
        movq      %rbp, 88(%rsp)                                #91.1
        movq      %rbx, 80(%rsp)                                #91.1
        movq      %r15, 48(%rsp)                                #91.1
        movq      %r14, 56(%rsp)                                #91.1
        movq      %r13, 64(%rsp)                                #91.1
        movq      %r12, 72(%rsp)                                #91.1
        movq      %rax, 24(%rsp)                                #91.1

###     SYNC_WITH_DIM(fold_z, fold_y, fold_x, "fold");

        cmpl      $1, 140(%rax)                                 #92.5
        je        ..B30.165     # Prob 16%                      #92.5
	.cfi_offset 3, -32
	.cfi_offset 6, -24
	.cfi_offset 12, -40
	.cfi_offset 13, -48
	.cfi_offset 14, -56
	.cfi_offset 15, -64
                                # LOE rax
..B30.2:                        # Preds ..B30.184 ..B30.175 ..B30.1
        cmpl      $2, 140(%rax)                                 #92.5
        je        ..B30.155     # Prob 16%                      #92.5
                                # LOE rax
..B30.3:                        # Preds ..B30.164 ..B30.155 ..B30.2

### 
###     char *lib;
###     STRINGIFY(lib, "%s/lib/libYASK.so", localDir);

        movq      40(%rax), %rdx                                #95.5
        lea       32(%rsp), %rdi                                #95.5
        lea       .L_2__STRING.5(%rip), %rsi                    #95.5
        xorl      %eax, %eax                                    #95.5
..___tag_value__ZN8yaskSite5buildEv.1019:
#       asprintf(char **, const char *, ...)
        call      asprintf@PLT                                  #95.5
..___tag_value__ZN8yaskSite5buildEv.1020:
                                # LOE
..B30.4:                        # Preds ..B30.3

### 
###     //check if library already exists, if yes don't rebuild
###     void* test_open = dlopen(lib, RTLD_LOCAL|RTLD_NOW);

        movl      $2, %esi                                      #98.23
        movq      32(%rsp), %rdi                                #98.23
..___tag_value__ZN8yaskSite5buildEv.1021:
#       dlopen(const char *, int)
        call      dlopen@PLT                                    #98.23
..___tag_value__ZN8yaskSite5buildEv.1022:
                                # LOE rax
..B30.196:                      # Preds ..B30.4
        movq      %rax, %rbp                                    #98.23
                                # LOE rbp
..B30.5:                        # Preds ..B30.196

### 
###     if(test_open == NULL)

        testq     %rbp, %rbp                                    #100.21
        je        ..B30.139     # Prob 3%                       #100.21
                                # LOE rbp
..B30.6:                        # Preds ..B30.5

###     {
###         //Need to newly build
### 
###         //TODO: check for previous builds
###         //clenaing source build before doing anything
###         cleanBuild();
### 
###         LOAD_PRINT_START("Building %s : stencil=%s arch=%s fold='x=%d,y=%d,z=%d' real_bytes=8 path=%s", stencilCode, stencil, arch, fold_x, fold_y, fold_z, (strcmp(path,"")==0)?"default":path);
### 
###         SYSTEM(BUILD_CMD);
###         SYSTEM("cp %s/bin/yask.%s.%s.exe %s/bin/.", yaskDir, stencil, arch, localDir);
### 
###         //create YASK library
###         SYSTEM("%s/createYASKLib.sh %s %s %s %s %s %s", TOOL_DIR, yaskDir, stencil, arch, SRC_DIR, INC_DIR, localDir);
### 
###         LOAD_PRINT_END();
### 
###         //dlopen and link them
###         //generated library
###         LOAD_PRINT_START("Loading %s", stencilCode);
### 
###         dl_handle = dlopen(lib, RTLD_LOCAL|RTLD_NOW);
###         if(!dl_handle)
###         {
###             ERROR_PRINT("Could not open generated library. Error: %s\n", dlerror());
###         }
### 
###         LOAD_PRINT_END();
###     }
###     else
###     {
###         INFO_PRINT("Stencil %s : found in cache", stencilCode);

        movl      $1140850688, %edi                             #132.9
        lea       100(%rsp), %rsi                               #132.9
..___tag_value__ZN8yaskSite5buildEv.1023:
#       MPI_Comm_rank(MPI_Comm, int *)
        call      MPI_Comm_rank@PLT                             #132.9
..___tag_value__ZN8yaskSite5buildEv.1024:
                                # LOE rbp eax
..B30.7:                        # Preds ..B30.6
        testl     %eax, %eax                                    #132.9
        je        ..B30.9       # Prob 50%                      #132.9
                                # LOE rbp
..B30.8:                        # Preds ..B30.7
        movl      $-1, 100(%rsp)                                #132.9
        movq      stderr@GOTPCREL(%rip), %rbx                   #132.9
        jmp       ..B30.12      # Prob 100%                     #132.9
                                # LOE rbx rbp
..B30.9:                        # Preds ..B30.7
        movl      100(%rsp), %r9d                               #132.9
        testl     %r9d, %r9d                                    #132.9
        jne       ..B30.254     # Prob 50%                      #132.9
                                # LOE rbp r9d
..B30.10:                       # Preds ..B30.9
        lea       .L_2__STRING.1(%rip), %rsi                    #132.9
        movl      $47, %eax                                     #132.9
        movq      %rsi, %rdx                                    #132.9
        movq      %rdx, %rcx                                    #132.9
        movd      %eax, %xmm1                                   #132.9
        andq      $-16, %rdx                                    #132.9
        punpcklbw %xmm1, %xmm1                                  #132.9
        andl      $15, %ecx                                     #132.9
        punpcklbw %xmm1, %xmm1                                  #132.9
        pshufd    $0, %xmm1, %xmm1                              #132.9
        pxor      %xmm0, %xmm0                                  #132.9
        movdqa    (%rdx), %xmm2                                 #132.9
        pcmpeqb   %xmm2, %xmm0                                  #132.9
        pmovmskb  %xmm0, %r10d                                  #132.9
        pcmpeqb   %xmm1, %xmm2                                  #132.9
        shrl      %cl, %r10d                                    #132.9
        lea       -1(%r10), %rax                                #132.9
        xorl      %eax, %r10d                                   #132.9
        pmovmskb  %xmm2, %eax                                   #132.9
        shrl      %cl, %eax                                     #132.9
        andl      %r10d, %eax                                   #132.9
        je        ..L1025       # Prob 60%                      #132.9
        bsr       %rax, %rax                                    #132.9
        addq      %rcx, %rax                                    #132.9
        addq      %rdx, %rax                                    #132.9
..L1025:                                                        #
        orl       %r10d, %r10d                                  #132.9
        jg        ..L1027       # Prob 60%                      #132.9
..L1026:                                                        #
        call      __intel_sse2_strrchr@PLT                      #132.9
..L1027:                                                        #
                                # LOE rax rbp rsi r9d
..B30.199:                      # Preds ..B30.10
        addq      $-16, %rsp                                    #132.9
	.cfi_def_cfa_offset 128
        testq     %rax, %rax                                    #132.9
        movq      40(%rsp), %r10                                #132.9
        lea       1(%rax), %r8                                  #132.9
        movq      stderr@GOTPCREL(%rip), %rbx                   #132.9
        cmove     %rsi, %r8                                     #132.9
        lea       .L_2__STRING.26(%rip), %rsi                   #132.9
        movl      %r9d, %edx                                    #132.9
        movq      32(%r10), %r11                                #132.9
        lea       __$U0(%rip), %rcx                             #132.9
        movl      $132, %r9d                                    #132.9
        xorl      %eax, %eax                                    #132.9
        movq      (%rbx), %rdi                                  #132.9
        movq      %r11, (%rsp)                                  #132.9
#       fprintf(FILE *, const char *, ...)
        call      fprintf@PLT                                   #132.9
                                # LOE rbx rbp
..B30.198:                      # Preds ..B30.199
        addq      $16, %rsp                                     #132.9
	.cfi_def_cfa_offset 112
                                # LOE rbx rbp
..B30.11:                       # Preds ..B30.198
        movq      (%rbx), %rdi                                  #132.9
#       fflush(FILE *)
        call      fflush@PLT                                    #132.9
                                # LOE rbx rbp
..B30.12:                       # Preds ..B30.11 ..B30.254 ..B30.8
        movl      $10, %edi                                     #132.9
        movq      (%rbx), %rsi                                  #132.9
        call      fputc@PLT                                     #132.9
                                # LOE rbx rbp
..B30.13:                       # Preds ..B30.12
        movq      (%rbx), %rdi                                  #132.9
#       fflush(FILE *)
        call      fflush@PLT                                    #132.9
                                # LOE rbp
..B30.14:                       # Preds ..B30.13

###         dl_handle = test_open;

        movq      24(%rsp), %rax                                #133.9
        movq      %rbp, 168(%rax)                               #133.9
                                # LOE
..B30.15:                       # Preds ..B30.153 ..B30.150 ..B30.14

###     }
### 
###     //reset error
###     dlerror();

..___tag_value__ZN8yaskSite5buildEv.1030:
#       dlerror()
        call      dlerror@PLT                                   #137.5
..___tag_value__ZN8yaskSite5buildEv.1031:
                                # LOE
..B30.16:                       # Preds ..B30.15

###     dynInit = (fn1_t) dlsym(dl_handle, "YASKinit");

        movq      24(%rsp), %rax                                #138.23
        lea       .L_2__STRING.27(%rip), %rsi                   #138.23
        movq      168(%rax), %rdi                               #138.23
..___tag_value__ZN8yaskSite5buildEv.1032:
#       dlsym(void *, const char *)
        call      dlsym@PLT                                     #138.23
..___tag_value__ZN8yaskSite5buildEv.1033:
                                # LOE rax
..B30.17:                       # Preds ..B30.16
        movq      24(%rsp), %rdx                                #138.5
        movq      %rax, 176(%rdx)                               #138.5

### 
###     if(dlerror())

..___tag_value__ZN8yaskSite5buildEv.1034:
#       dlerror()
        call      dlerror@PLT                                   #140.8
..___tag_value__ZN8yaskSite5buildEv.1035:
                                # LOE rax
..B30.18:                       # Preds ..B30.17
        testq     %rax, %rax                                    #140.8
        je        ..B30.27      # Prob 12%                      #140.8
                                # LOE
..B30.19:                       # Preds ..B30.18

###     {
###         ERROR_PRINT("Error couldn't find symbol with name YASKinit");

        movl      $1140850688, %edi                             #142.9
        lea       20(%rsp), %rsi                                #142.9
..___tag_value__ZN8yaskSite5buildEv.1036:
#       MPI_Comm_rank(MPI_Comm, int *)
        call      MPI_Comm_rank@PLT                             #142.9
..___tag_value__ZN8yaskSite5buildEv.1037:
                                # LOE eax
..B30.20:                       # Preds ..B30.19
        testl     %eax, %eax                                    #142.9
        je        ..B30.22      # Prob 50%                      #142.9
                                # LOE
..B30.21:                       # Preds ..B30.20
        movl      $-1, 20(%rsp)                                 #142.9
        movq      stderr@GOTPCREL(%rip), %r12                   #142.9
        jmp       ..B30.25      # Prob 100%                     #142.9
                                # LOE r12
..B30.22:                       # Preds ..B30.20
        movl      20(%rsp), %ebp                                #142.9
        testl     %ebp, %ebp                                    #142.9
        jne       ..B30.253     # Prob 50%                      #142.9
                                # LOE ebp
..B30.23:                       # Preds ..B30.22
        lea       .L_2__STRING.1(%rip), %rbx                    #142.9
        movl      $47, %eax                                     #142.9
        movq      %rbx, %rdx                                    #142.9
        movq      %rdx, %rcx                                    #142.9
        movd      %eax, %xmm1                                   #142.9
        andq      $-16, %rdx                                    #142.9
        punpcklbw %xmm1, %xmm1                                  #142.9
        andl      $15, %ecx                                     #142.9
        punpcklbw %xmm1, %xmm1                                  #142.9
        pshufd    $0, %xmm1, %xmm1                              #142.9
        pxor      %xmm0, %xmm0                                  #142.9
        movdqa    (%rdx), %xmm2                                 #142.9
        pcmpeqb   %xmm2, %xmm0                                  #142.9
        pmovmskb  %xmm0, %r10d                                  #142.9
        pcmpeqb   %xmm1, %xmm2                                  #142.9
        shrl      %cl, %r10d                                    #142.9
        lea       -1(%r10), %rax                                #142.9
        xorl      %eax, %r10d                                   #142.9
        pmovmskb  %xmm2, %eax                                   #142.9
        shrl      %cl, %eax                                     #142.9
        andl      %r10d, %eax                                   #142.9
        je        ..L1038       # Prob 60%                      #142.9
        bsr       %rax, %rax                                    #142.9
        addq      %rcx, %rax                                    #142.9
        addq      %rdx, %rax                                    #142.9
..L1038:                                                        #
        orl       %r10d, %r10d                                  #142.9
        jg        ..L1040       # Prob 60%                      #142.9
..L1039:                                                        #
        call      __intel_sse2_strrchr@PLT                      #142.9
..L1040:                                                        #
                                # LOE rax rbx ebp
..B30.203:                      # Preds ..B30.23
        movq      stderr@GOTPCREL(%rip), %r12                   #142.9
        testq     %rax, %rax                                    #142.9
        lea       .L_2__STRING.28(%rip), %rsi                   #142.9
        lea       1(%rax), %r8                                  #142.9
        cmove     %rbx, %r8                                     #142.9
        movl      %ebp, %edx                                    #142.9
        lea       __$U0(%rip), %rcx                             #142.9
        movl      $142, %r9d                                    #142.9
        xorl      %eax, %eax                                    #142.9
        movq      (%r12), %rdi                                  #142.9
#       fprintf(FILE *, const char *, ...)
        call      fprintf@PLT                                   #142.9
                                # LOE r12
..B30.24:                       # Preds ..B30.203
        movq      (%r12), %rdi                                  #142.9
#       fflush(FILE *)
        call      fflush@PLT                                    #142.9
                                # LOE r12
..B30.25:                       # Preds ..B30.24 ..B30.253 ..B30.21
        movl      $10, %edi                                     #142.9
        movq      (%r12), %rsi                                  #142.9
        call      fputc@PLT                                     #142.9
                                # LOE r12
..B30.26:                       # Preds ..B30.25
        movq      (%r12), %rdi                                  #142.9
#       fflush(FILE *)
        call      fflush@PLT                                    #142.9
                                # LOE
..B30.27:                       # Preds ..B30.26 ..B30.18

###     }
###     //reset error
###     dlerror();

..___tag_value__ZN8yaskSite5buildEv.1041:
#       dlerror()
        call      dlerror@PLT                                   #145.5
..___tag_value__ZN8yaskSite5buildEv.1042:
                                # LOE
..B30.28:                       # Preds ..B30.27

###     dynFinalize = (fn1_t) dlsym(dl_handle, "YASKfinalize");

        movq      24(%rsp), %rax                                #146.27
        lea       .L_2__STRING.29(%rip), %rsi                   #146.27
        movq      168(%rax), %rdi                               #146.27
..___tag_value__ZN8yaskSite5buildEv.1043:
#       dlsym(void *, const char *)
        call      dlsym@PLT                                     #146.27
..___tag_value__ZN8yaskSite5buildEv.1044:
                                # LOE rax
..B30.29:                       # Preds ..B30.28
        movq      24(%rsp), %rdx                                #146.5
        movq      %rax, 184(%rdx)                               #146.5

###     if(dlerror())

..___tag_value__ZN8yaskSite5buildEv.1045:
#       dlerror()
        call      dlerror@PLT                                   #147.8
..___tag_value__ZN8yaskSite5buildEv.1046:
                                # LOE rax
..B30.30:                       # Preds ..B30.29
        testq     %rax, %rax                                    #147.8
        je        ..B30.39      # Prob 12%                      #147.8
                                # LOE
..B30.31:                       # Preds ..B30.30

###     {
###         ERROR_PRINT("Error couldn't find symbol with name YASKfinalize");

        movl      $1140850688, %edi                             #149.9
        lea       40(%rsp), %rsi                                #149.9
..___tag_value__ZN8yaskSite5buildEv.1047:
#       MPI_Comm_rank(MPI_Comm, int *)
        call      MPI_Comm_rank@PLT                             #149.9
..___tag_value__ZN8yaskSite5buildEv.1048:
                                # LOE eax
..B30.32:                       # Preds ..B30.31
        testl     %eax, %eax                                    #149.9
        je        ..B30.34      # Prob 50%                      #149.9
                                # LOE
..B30.33:                       # Preds ..B30.32
        movl      $-1, 40(%rsp)                                 #149.9
        movq      stderr@GOTPCREL(%rip), %r12                   #149.9
        jmp       ..B30.37      # Prob 100%                     #149.9
                                # LOE r12
..B30.34:                       # Preds ..B30.32
        movl      40(%rsp), %ebp                                #149.9
        testl     %ebp, %ebp                                    #149.9
        jne       ..B30.252     # Prob 50%                      #149.9
                                # LOE ebp
..B30.35:                       # Preds ..B30.34
        lea       .L_2__STRING.1(%rip), %rbx                    #149.9
        movl      $47, %eax                                     #149.9
        movq      %rbx, %rdx                                    #149.9
        movq      %rdx, %rcx                                    #149.9
        movd      %eax, %xmm1                                   #149.9
        andq      $-16, %rdx                                    #149.9
        punpcklbw %xmm1, %xmm1                                  #149.9
        andl      $15, %ecx                                     #149.9
        punpcklbw %xmm1, %xmm1                                  #149.9
        pshufd    $0, %xmm1, %xmm1                              #149.9
        pxor      %xmm0, %xmm0                                  #149.9
        movdqa    (%rdx), %xmm2                                 #149.9
        pcmpeqb   %xmm2, %xmm0                                  #149.9
        pmovmskb  %xmm0, %r10d                                  #149.9
        pcmpeqb   %xmm1, %xmm2                                  #149.9
        shrl      %cl, %r10d                                    #149.9
        lea       -1(%r10), %rax                                #149.9
        xorl      %eax, %r10d                                   #149.9
        pmovmskb  %xmm2, %eax                                   #149.9
        shrl      %cl, %eax                                     #149.9
        andl      %r10d, %eax                                   #149.9
        je        ..L1049       # Prob 60%                      #149.9
        bsr       %rax, %rax                                    #149.9
        addq      %rcx, %rax                                    #149.9
        addq      %rdx, %rax                                    #149.9
..L1049:                                                        #
        orl       %r10d, %r10d                                  #149.9
        jg        ..L1051       # Prob 60%                      #149.9
..L1050:                                                        #
        call      __intel_sse2_strrchr@PLT                      #149.9
..L1051:                                                        #
                                # LOE rax rbx ebp
..B30.207:                      # Preds ..B30.35
        movq      stderr@GOTPCREL(%rip), %r12                   #149.9
        testq     %rax, %rax                                    #149.9
        lea       .L_2__STRING.30(%rip), %rsi                   #149.9
        lea       1(%rax), %r8                                  #149.9
        cmove     %rbx, %r8                                     #149.9
        movl      %ebp, %edx                                    #149.9
        lea       __$U0(%rip), %rcx                             #149.9
        movl      $149, %r9d                                    #149.9
        xorl      %eax, %eax                                    #149.9
        movq      (%r12), %rdi                                  #149.9
#       fprintf(FILE *, const char *, ...)
        call      fprintf@PLT                                   #149.9
                                # LOE r12
..B30.36:                       # Preds ..B30.207
        movq      (%r12), %rdi                                  #149.9
#       fflush(FILE *)
        call      fflush@PLT                                    #149.9
                                # LOE r12
..B30.37:                       # Preds ..B30.36 ..B30.252 ..B30.33
        movl      $10, %edi                                     #149.9
        movq      (%r12), %rsi                                  #149.9
        call      fputc@PLT                                     #149.9
                                # LOE r12
..B30.38:                       # Preds ..B30.37
        movq      (%r12), %rdi                                  #149.9
#       fflush(FILE *)
        call      fflush@PLT                                    #149.9
                                # LOE
..B30.39:                       # Preds ..B30.38 ..B30.30

###     }
###     //reset error
###     dlerror();

..___tag_value__ZN8yaskSite5buildEv.1052:
#       dlerror()
        call      dlerror@PLT                                   #152.5
..___tag_value__ZN8yaskSite5buildEv.1053:
                                # LOE
..B30.40:                       # Preds ..B30.39

###     dynStencil = (fn1_t) dlsym(dl_handle, "YASKstencil");

        movq      24(%rsp), %rax                                #153.26
        lea       .L_2__STRING.31(%rip), %rsi                   #153.26
        movq      168(%rax), %rdi                               #153.26
..___tag_value__ZN8yaskSite5buildEv.1054:
#       dlsym(void *, const char *)
        call      dlsym@PLT                                     #153.26
..___tag_value__ZN8yaskSite5buildEv.1055:
                                # LOE rax
..B30.41:                       # Preds ..B30.40
        movq      24(%rsp), %rdx                                #153.5
        movq      %rax, 192(%rdx)                               #153.5

###     if(dlerror())

..___tag_value__ZN8yaskSite5buildEv.1056:
#       dlerror()
        call      dlerror@PLT                                   #154.8
..___tag_value__ZN8yaskSite5buildEv.1057:
                                # LOE rax
..B30.42:                       # Preds ..B30.41
        testq     %rax, %rax                                    #154.8
        je        ..B30.51      # Prob 12%                      #154.8
                                # LOE
..B30.43:                       # Preds ..B30.42

###     {
###         ERROR_PRINT("Error couldn't find symbol with name YASKstencil");

        movl      $1140850688, %edi                             #156.9
        lea       44(%rsp), %rsi                                #156.9
..___tag_value__ZN8yaskSite5buildEv.1058:
#       MPI_Comm_rank(MPI_Comm, int *)
        call      MPI_Comm_rank@PLT                             #156.9
..___tag_value__ZN8yaskSite5buildEv.1059:
                                # LOE eax
..B30.44:                       # Preds ..B30.43
        testl     %eax, %eax                                    #156.9
        je        ..B30.46      # Prob 50%                      #156.9
                                # LOE
..B30.45:                       # Preds ..B30.44
        movl      $-1, 44(%rsp)                                 #156.9
        movq      stderr@GOTPCREL(%rip), %r12                   #156.9
        jmp       ..B30.49      # Prob 100%                     #156.9
                                # LOE r12
..B30.46:                       # Preds ..B30.44
        movl      44(%rsp), %ebp                                #156.9
        testl     %ebp, %ebp                                    #156.9
        jne       ..B30.251     # Prob 50%                      #156.9
                                # LOE ebp
..B30.47:                       # Preds ..B30.46
        lea       .L_2__STRING.1(%rip), %rbx                    #156.9
        movl      $47, %eax                                     #156.9
        movq      %rbx, %rdx                                    #156.9
        movq      %rdx, %rcx                                    #156.9
        movd      %eax, %xmm1                                   #156.9
        andq      $-16, %rdx                                    #156.9
        punpcklbw %xmm1, %xmm1                                  #156.9
        andl      $15, %ecx                                     #156.9
        punpcklbw %xmm1, %xmm1                                  #156.9
        pshufd    $0, %xmm1, %xmm1                              #156.9
        pxor      %xmm0, %xmm0                                  #156.9
        movdqa    (%rdx), %xmm2                                 #156.9
        pcmpeqb   %xmm2, %xmm0                                  #156.9
        pmovmskb  %xmm0, %r10d                                  #156.9
        pcmpeqb   %xmm1, %xmm2                                  #156.9
        shrl      %cl, %r10d                                    #156.9
        lea       -1(%r10), %rax                                #156.9
        xorl      %eax, %r10d                                   #156.9
        pmovmskb  %xmm2, %eax                                   #156.9
        shrl      %cl, %eax                                     #156.9
        andl      %r10d, %eax                                   #156.9
        je        ..L1060       # Prob 60%                      #156.9
        bsr       %rax, %rax                                    #156.9
        addq      %rcx, %rax                                    #156.9
        addq      %rdx, %rax                                    #156.9
..L1060:                                                        #
        orl       %r10d, %r10d                                  #156.9
        jg        ..L1062       # Prob 60%                      #156.9
..L1061:                                                        #
        call      __intel_sse2_strrchr@PLT                      #156.9
..L1062:                                                        #
                                # LOE rax rbx ebp
..B30.211:                      # Preds ..B30.47
        movq      stderr@GOTPCREL(%rip), %r12                   #156.9
        testq     %rax, %rax                                    #156.9
        lea       .L_2__STRING.32(%rip), %rsi                   #156.9
        lea       1(%rax), %r8                                  #156.9
        cmove     %rbx, %r8                                     #156.9
        movl      %ebp, %edx                                    #156.9
        lea       __$U0(%rip), %rcx                             #156.9
        movl      $156, %r9d                                    #156.9
        xorl      %eax, %eax                                    #156.9
        movq      (%r12), %rdi                                  #156.9
#       fprintf(FILE *, const char *, ...)
        call      fprintf@PLT                                   #156.9
                                # LOE r12
..B30.48:                       # Preds ..B30.211
        movq      (%r12), %rdi                                  #156.9
#       fflush(FILE *)
        call      fflush@PLT                                    #156.9
                                # LOE r12
..B30.49:                       # Preds ..B30.48 ..B30.251 ..B30.45
        movl      $10, %edi                                     #156.9
        movq      (%r12), %rsi                                  #156.9
        call      fputc@PLT                                     #156.9
                                # LOE r12
..B30.50:                       # Preds ..B30.49
        movq      (%r12), %rdi                                  #156.9
#       fflush(FILE *)
        call      fflush@PLT                                    #156.9
                                # LOE
..B30.51:                       # Preds ..B30.50 ..B30.42

###     }
### 
###     //reset error
###     dlerror();

..___tag_value__ZN8yaskSite5buildEv.1063:
#       dlerror()
        call      dlerror@PLT                                   #160.5
..___tag_value__ZN8yaskSite5buildEv.1064:
                                # LOE
..B30.52:                       # Preds ..B30.51

###     dynGetPtr = (fn2_t) dlsym(dl_handle, "YASKgetElPtr");

        movq      24(%rsp), %rax                                #161.25
        lea       .L_2__STRING.33(%rip), %rsi                   #161.25
        movq      168(%rax), %rdi                               #161.25
..___tag_value__ZN8yaskSite5buildEv.1065:
#       dlsym(void *, const char *)
        call      dlsym@PLT                                     #161.25
..___tag_value__ZN8yaskSite5buildEv.1066:
                                # LOE rax
..B30.53:                       # Preds ..B30.52
        movq      24(%rsp), %rdx                                #161.5
        movq      %rax, 200(%rdx)                               #161.5

###     if(dlerror())

..___tag_value__ZN8yaskSite5buildEv.1067:
#       dlerror()
        call      dlerror@PLT                                   #162.8
..___tag_value__ZN8yaskSite5buildEv.1068:
                                # LOE rax
..B30.54:                       # Preds ..B30.53
        testq     %rax, %rax                                    #162.8
        je        ..B30.63      # Prob 12%                      #162.8
                                # LOE
..B30.55:                       # Preds ..B30.54

###     {
###         ERROR_PRINT("Error couldn't find symbol with name YASKgetElPtr");

        movl      $1140850688, %edi                             #164.9
        lea       96(%rsp), %rsi                                #164.9
..___tag_value__ZN8yaskSite5buildEv.1069:
#       MPI_Comm_rank(MPI_Comm, int *)
        call      MPI_Comm_rank@PLT                             #164.9
..___tag_value__ZN8yaskSite5buildEv.1070:
                                # LOE eax
..B30.56:                       # Preds ..B30.55
        testl     %eax, %eax                                    #164.9
        je        ..B30.58      # Prob 50%                      #164.9
                                # LOE
..B30.57:                       # Preds ..B30.56
        movl      $-1, 96(%rsp)                                 #164.9
        movq      stderr@GOTPCREL(%rip), %r12                   #164.9
        jmp       ..B30.61      # Prob 100%                     #164.9
                                # LOE r12
..B30.58:                       # Preds ..B30.56
        movl      96(%rsp), %ebp                                #164.9
        testl     %ebp, %ebp                                    #164.9
        jne       ..B30.250     # Prob 50%                      #164.9
                                # LOE ebp
..B30.59:                       # Preds ..B30.58
        lea       .L_2__STRING.1(%rip), %rbx                    #164.9
        movl      $47, %eax                                     #164.9
        movq      %rbx, %rdx                                    #164.9
        movq      %rdx, %rcx                                    #164.9
        movd      %eax, %xmm1                                   #164.9
        andq      $-16, %rdx                                    #164.9
        punpcklbw %xmm1, %xmm1                                  #164.9
        andl      $15, %ecx                                     #164.9
        punpcklbw %xmm1, %xmm1                                  #164.9
        pshufd    $0, %xmm1, %xmm1                              #164.9
        pxor      %xmm0, %xmm0                                  #164.9
        movdqa    (%rdx), %xmm2                                 #164.9
        pcmpeqb   %xmm2, %xmm0                                  #164.9
        pmovmskb  %xmm0, %r10d                                  #164.9
        pcmpeqb   %xmm1, %xmm2                                  #164.9
        shrl      %cl, %r10d                                    #164.9
        lea       -1(%r10), %rax                                #164.9
        xorl      %eax, %r10d                                   #164.9
        pmovmskb  %xmm2, %eax                                   #164.9
        shrl      %cl, %eax                                     #164.9
        andl      %r10d, %eax                                   #164.9
        je        ..L1071       # Prob 60%                      #164.9
        bsr       %rax, %rax                                    #164.9
        addq      %rcx, %rax                                    #164.9
        addq      %rdx, %rax                                    #164.9
..L1071:                                                        #
        orl       %r10d, %r10d                                  #164.9
        jg        ..L1073       # Prob 60%                      #164.9
..L1072:                                                        #
        call      __intel_sse2_strrchr@PLT                      #164.9
..L1073:                                                        #
                                # LOE rax rbx ebp
..B30.215:                      # Preds ..B30.59
        movq      stderr@GOTPCREL(%rip), %r12                   #164.9
        testq     %rax, %rax                                    #164.9
        lea       .L_2__STRING.34(%rip), %rsi                   #164.9
        lea       1(%rax), %r8                                  #164.9
        cmove     %rbx, %r8                                     #164.9
        movl      %ebp, %edx                                    #164.9
        lea       __$U0(%rip), %rcx                             #164.9
        movl      $164, %r9d                                    #164.9
        xorl      %eax, %eax                                    #164.9
        movq      (%r12), %rdi                                  #164.9
#       fprintf(FILE *, const char *, ...)
        call      fprintf@PLT                                   #164.9
                                # LOE r12
..B30.60:                       # Preds ..B30.215
        movq      (%r12), %rdi                                  #164.9
#       fflush(FILE *)
        call      fflush@PLT                                    #164.9
                                # LOE r12
..B30.61:                       # Preds ..B30.60 ..B30.250 ..B30.57
        movl      $10, %edi                                     #164.9
        movq      (%r12), %rsi                                  #164.9
        call      fputc@PLT                                     #164.9
                                # LOE r12
..B30.62:                       # Preds ..B30.61
        movq      (%r12), %rdi                                  #164.9
#       fflush(FILE *)
        call      fflush@PLT                                    #164.9
                                # LOE
..B30.63:                       # Preds ..B30.62 ..B30.54

###     }
### 
### 
###     delete[] lib;

        movq      32(%rsp), %rdi                                #168.14
        testq     %rdi, %rdi                                    #168.14
        je        ..B30.65      # Prob 32%                      #168.14
                                # LOE rdi
..B30.64:                       # Preds ..B30.63
#       operator delete[](void *)
        call      _ZdaPv@PLT                                    #168.5
                                # LOE
..B30.65:                       # Preds ..B30.64 ..B30.63

###     stencilReady=true;

        movq      24(%rsp), %rax                                #169.5

### }

        movq      48(%rsp), %r15                                #170.1
	.cfi_restore 15
        movq      56(%rsp), %r14                                #170.1
	.cfi_restore 14
        movq      64(%rsp), %r13                                #170.1
	.cfi_restore 13
        movq      72(%rsp), %r12                                #170.1
	.cfi_restore 12
        movq      80(%rsp), %rbx                                #170.1
	.cfi_restore 3
        movq      88(%rsp), %rbp                                #170.1
	.cfi_restore 6
        movb      $1, 160(%rax)                                 #169.5
        addq      $104, %rsp                                    #170.1
	.cfi_def_cfa_offset 8
        ret                                                     #170.1
	.cfi_def_cfa_offset 112
                                # LOE
L__ZN8yaskSite5buildEv_120__par_region1_2.19:
# parameter 1: %rdi
# parameter 2: %rsi
# parameter 3: %rdx
# parameter 4: %rcx
# parameter 5: %r8
..B30.66:                       # Preds ..B30.0
        subq      $104, %rsp                                    #120.9
        movq      %rbp, 88(%rsp)                                #120.9
	.cfi_offset 6, -24
        movq      %rcx, %rbp                                    #120.9
        movq      %rbx, 80(%rsp)                                #120.9
	.cfi_offset 3, -32
        movq      %rdx, %rbx                                    #120.9
        movq      %r15, 48(%rsp)                                #120.9
        movq      %r14, 56(%rsp)                                #120.9
        movq      %r13, 64(%rsp)                                #120.9
	.cfi_offset 13, -48
	.cfi_offset 14, -56
	.cfi_offset 15, -64
        movq      %r8, %r13                                     #120.9
        movq      %r12, 72(%rsp)                                #120.9
#       omp_get_thread_num()
        call      omp_get_thread_num@PLT                        #120.9
	.cfi_offset 12, -40
                                # LOE rbx rbp r13 eax
..B30.67:                       # Preds ..B30.66
        testl     %eax, %eax                                    #120.9
        je        ..B30.92      # Prob 50%                      #120.9
                                # LOE rbx rbp r13
..B30.68:                       # Preds ..B30.67
        movl      $1140850688, %edi                             #120.9
        lea       (%rsp), %rsi                                  #120.9
..___tag_value__ZN8yaskSite5buildEv.1089:
#       MPI_Comm_rank(MPI_Comm, int *)
        call      MPI_Comm_rank@PLT                             #120.9
..___tag_value__ZN8yaskSite5buildEv.1090:
                                # LOE rbx r13 eax
..B30.69:                       # Preds ..B30.68
        testl     %eax, %eax                                    #120.9
        je        ..B30.71      # Prob 50%                      #120.9
                                # LOE rbx r13
..B30.70:                       # Preds ..B30.69
        movl      $-1, (%rsp)                                   #120.9
        movq      stderr@GOTPCREL(%rip), %r12                   #120.9
        jmp       ..B30.74      # Prob 100%                     #120.9
                                # LOE rbx r12
..B30.71:                       # Preds ..B30.69
        movl      (%rsp), %ebp                                  #120.9
        testl     %ebp, %ebp                                    #120.9
        jne       ..B30.249     # Prob 50%                      #120.9
                                # LOE rbx r13 ebp
..B30.72:                       # Preds ..B30.71
        lea       .L_2__STRING.1(%rip), %rsi                    #120.9
        movl      $47, %eax                                     #120.9
        movq      %rsi, %rdx                                    #120.9
        movq      %rdx, %rcx                                    #120.9
        movd      %eax, %xmm1                                   #120.9
        andq      $-16, %rdx                                    #120.9
        punpcklbw %xmm1, %xmm1                                  #120.9
        andl      $15, %ecx                                     #120.9
        punpcklbw %xmm1, %xmm1                                  #120.9
        pshufd    $0, %xmm1, %xmm1                              #120.9
        pxor      %xmm0, %xmm0                                  #120.9
        movdqa    (%rdx), %xmm2                                 #120.9
        pcmpeqb   %xmm2, %xmm0                                  #120.9
        pmovmskb  %xmm0, %r10d                                  #120.9
        pcmpeqb   %xmm1, %xmm2                                  #120.9
        shrl      %cl, %r10d                                    #120.9
        lea       -1(%r10), %rax                                #120.9
        xorl      %eax, %r10d                                   #120.9
        pmovmskb  %xmm2, %eax                                   #120.9
        shrl      %cl, %eax                                     #120.9
        andl      %r10d, %eax                                   #120.9
        je        ..L1091       # Prob 60%                      #120.9
        bsr       %rax, %rax                                    #120.9
        addq      %rcx, %rax                                    #120.9
        addq      %rdx, %rax                                    #120.9
..L1091:                                                        #
        orl       %r10d, %r10d                                  #120.9
        jg        ..L1093       # Prob 60%                      #120.9
..L1092:                                                        #
        call      __intel_sse2_strrchr@PLT                      #120.9
..L1093:                                                        #
                                # LOE rax rbx rsi r13 ebp
..B30.219:                      # Preds ..B30.72
        movq      (%r13), %r13                                  #120.9
        addq      $-16, %rsp                                    #120.9
	.cfi_def_cfa_offset 128
        movq      stderr@GOTPCREL(%rip), %r12                   #120.9
        testq     %rax, %rax                                    #120.9
        movl      %ebp, %edx                                    #120.9
        lea       1(%rax), %r8                                  #120.9
        movq      32(%r13), %r10                                #120.9
        cmove     %rsi, %r8                                     #120.9
        lea       .L_2__STRING.24(%rip), %rsi                   #120.9
        lea       __$U0(%rip), %rcx                             #120.9
        movl      $120, %r9d                                    #120.9
        xorl      %eax, %eax                                    #120.9
        movq      (%r12), %rdi                                  #120.9
        movq      %r10, (%rsp)                                  #120.9
#       fprintf(FILE *, const char *, ...)
        call      fprintf@PLT                                   #120.9
                                # LOE rbx r12
..B30.218:                      # Preds ..B30.219
        addq      $16, %rsp                                     #120.9
	.cfi_def_cfa_offset 112
                                # LOE rbx r12
..B30.73:                       # Preds ..B30.218
        movq      (%r12), %rdi                                  #120.9
#       fflush(FILE *)
        call      fflush@PLT                                    #120.9
                                # LOE rbx r12
..B30.74:                       # Preds ..B30.73 ..B30.249 ..B30.70
        lea       il0_peep_printf_format_7(%rip), %rdi          #120.9
        movq      (%r12), %rsi                                  #120.9
        call      fputs@PLT                                     #120.9
                                # LOE rbx r12
..B30.75:                       # Preds ..B30.74
        lea       il0_peep_printf_format_8(%rip), %rdi          #120.9
        movq      (%r12), %rsi                                  #120.9
        call      fputs@PLT                                     #120.9
                                # LOE rbx r12
..B30.76:                       # Preds ..B30.75
        cmpb      $0, (%rbx)                                    #120.9
        jne       ..B30.89      # Prob 10%                      #120.9
                                # LOE rbx r12
..B30.78:                       # Preds ..B30.76 ..B30.87
        movl      $1, %edi                                      #120.9
#       sleep(unsigned int)
        call      sleep@PLT                                     #120.9
                                # LOE rbx r12
..B30.79:                       # Preds ..B30.78
        lea       il0_peep_printf_format_9(%rip), %rdi          #120.9
        movq      (%r12), %rsi                                  #120.9
        call      fputs@PLT                                     #120.9
                                # LOE rbx r12
..B30.80:                       # Preds ..B30.79
        movq      (%r12), %rdi                                  #120.9
#       fflush(FILE *)
        call      fflush@PLT                                    #120.9
                                # LOE rbx r12
..B30.81:                       # Preds ..B30.80
        movl      $1, %edi                                      #120.9
#       sleep(unsigned int)
        call      sleep@PLT                                     #120.9
                                # LOE rbx r12
..B30.82:                       # Preds ..B30.81
        lea       il0_peep_printf_format_10(%rip), %rdi         #120.9
        movq      (%r12), %rsi                                  #120.9
        call      fputs@PLT                                     #120.9
                                # LOE rbx r12
..B30.83:                       # Preds ..B30.82
        movl      $1, %edi                                      #120.9
#       sleep(unsigned int)
        call      sleep@PLT                                     #120.9
                                # LOE rbx r12
..B30.84:                       # Preds ..B30.83
        lea       il0_peep_printf_format_11(%rip), %rdi         #120.9
        movq      (%r12), %rsi                                  #120.9
        call      fputs@PLT                                     #120.9
                                # LOE rbx r12
..B30.85:                       # Preds ..B30.84
        movl      $1, %edi                                      #120.9
#       sleep(unsigned int)
        call      sleep@PLT                                     #120.9
                                # LOE rbx r12
..B30.86:                       # Preds ..B30.85
        lea       il0_peep_printf_format_12(%rip), %rdi         #120.9
        movq      (%r12), %rsi                                  #120.9
        call      fputs@PLT                                     #120.9
                                # LOE rbx r12
..B30.87:                       # Preds ..B30.86
        cmpb      $0, (%rbx)                                    #120.9
        je        ..B30.78      # Prob 82%                      #120.9
                                # LOE rbx r12
..B30.89:                       # Preds ..B30.87 ..B30.76
        lea       il0_peep_printf_format_13(%rip), %rdi         #120.9
        movq      (%r12), %rsi                                  #120.9
        call      fputs@PLT                                     #120.9
                                # LOE r12
..B30.90:                       # Preds ..B30.89
        movl      $10, %edi                                     #120.9
        movq      (%r12), %rsi                                  #120.9
        call      fputc@PLT                                     #120.9
                                # LOE r12
..B30.91:                       # Preds ..B30.90
        movq      (%r12), %rdi                                  #120.9
#       fflush(FILE *)
        call      fflush@PLT                                    #120.9
        jmp       ..B30.95      # Prob 100%                     #120.9
                                # LOE
..B30.92:                       # Preds ..B30.67
        movl      $2, %esi                                      #122.21
        movq      (%rbp), %rdi                                  #122.21
..___tag_value__ZN8yaskSite5buildEv.1096:
#       dlopen(const char *, int)
        call      dlopen@PLT                                    #122.21
..___tag_value__ZN8yaskSite5buildEv.1097:
                                # LOE rax rbx r13
..B30.220:                      # Preds ..B30.92
        movq      %rax, %rdx                                    #122.21
                                # LOE rdx rbx r13
..B30.93:                       # Preds ..B30.220
        movq      (%r13), %rax                                  #122.9
        testq     %rdx, %rdx                                    #123.13
        movq      %rdx, 168(%rax)                               #122.9
        je        ..B30.185     # Prob 12%                      #123.13
                                # LOE rbx
..B30.94:                       # Preds ..B30.190 ..B30.93
        movb      $1, (%rbx)                                    #128.9
                                # LOE
..B30.95:                       # Preds ..B30.91 ..B30.94
        movq      48(%rsp), %r15                                #120.9
	.cfi_restore 15
        movq      56(%rsp), %r14                                #120.9
	.cfi_restore 14
        movq      64(%rsp), %r13                                #120.9
	.cfi_restore 13
        movq      72(%rsp), %r12                                #120.9
	.cfi_restore 12
        movq      80(%rsp), %rbx                                #120.9
	.cfi_restore 3
        movq      88(%rsp), %rbp                                #120.9
	.cfi_restore 6
        addq      $104, %rsp                                    #120.9
	.cfi_def_cfa_offset 8
        ret                                                     #120.9
	.cfi_def_cfa_offset 112
                                # LOE
L__ZN8yaskSite5buildEv_108__par_region0_2.18:
# parameter 1: %rdi
# parameter 2: %rsi
# parameter 3: %rdx
# parameter 4: %rcx
..B30.96:                       # Preds ..B30.0
        subq      $104, %rsp                                    #108.9
        movq      %rbp, 88(%rsp)                                #108.9
        movq      %rbx, 80(%rsp)                                #108.9
        movq      %r15, 48(%rsp)                                #108.9
        movq      %r14, 56(%rsp)                                #108.9
        movq      %r13, 64(%rsp)                                #108.9
	.cfi_offset 3, -32
	.cfi_offset 6, -24
	.cfi_offset 13, -48
	.cfi_offset 14, -56
	.cfi_offset 15, -64
        movq      %rcx, %r13                                    #108.9
        movq      %r12, 72(%rsp)                                #108.9
	.cfi_offset 12, -40
        movq      %rdx, %r12                                    #108.9
#       omp_get_thread_num()
        call      omp_get_thread_num@PLT                        #108.9
                                # LOE r12 r13 eax
..B30.97:                       # Preds ..B30.96
        testl     %eax, %eax                                    #108.9
        je        ..B30.122     # Prob 50%                      #108.9
                                # LOE r12 r13
..B30.98:                       # Preds ..B30.97
        movl      $1140850688, %edi                             #108.9
        lea       (%rsp), %rsi                                  #108.9
..___tag_value__ZN8yaskSite5buildEv.1113:
#       MPI_Comm_rank(MPI_Comm, int *)
        call      MPI_Comm_rank@PLT                             #108.9
..___tag_value__ZN8yaskSite5buildEv.1114:
                                # LOE r12 r13 eax
..B30.99:                       # Preds ..B30.98
        testl     %eax, %eax                                    #108.9
        je        ..B30.101     # Prob 50%                      #108.9
                                # LOE r12 r13
..B30.100:                      # Preds ..B30.99
        movl      $-1, (%rsp)                                   #108.9
        movq      stderr@GOTPCREL(%rip), %r13                   #108.9
        jmp       ..B30.104     # Prob 100%                     #108.9
                                # LOE r12 r13
..B30.101:                      # Preds ..B30.99
        movl      (%rsp), %ebp                                  #108.9
        testl     %ebp, %ebp                                    #108.9
        jne       ..B30.248     # Prob 50%                      #108.9
                                # LOE r12 r13 ebp
..B30.102:                      # Preds ..B30.101
        lea       .L_2__STRING.1(%rip), %rbx                    #108.9
        movl      $47, %eax                                     #108.9
        movq      %rbx, %rdx                                    #108.9
        movq      %rdx, %rcx                                    #108.9
        movd      %eax, %xmm1                                   #108.9
        andq      $-16, %rdx                                    #108.9
        punpcklbw %xmm1, %xmm1                                  #108.9
        andl      $15, %ecx                                     #108.9
        punpcklbw %xmm1, %xmm1                                  #108.9
        pshufd    $0, %xmm1, %xmm1                              #108.9
        pxor      %xmm0, %xmm0                                  #108.9
        movdqa    (%rdx), %xmm2                                 #108.9
        pcmpeqb   %xmm2, %xmm0                                  #108.9
        pmovmskb  %xmm0, %r10d                                  #108.9
        pcmpeqb   %xmm1, %xmm2                                  #108.9
        shrl      %cl, %r10d                                    #108.9
        lea       -1(%r10), %rax                                #108.9
        xorl      %eax, %r10d                                   #108.9
        pmovmskb  %xmm2, %eax                                   #108.9
        shrl      %cl, %eax                                     #108.9
        andl      %r10d, %eax                                   #108.9
        je        ..L1115       # Prob 60%                      #108.9
        bsr       %rax, %rax                                    #108.9
        addq      %rcx, %rax                                    #108.9
        addq      %rdx, %rax                                    #108.9
..L1115:                                                        #
        orl       %r10d, %r10d                                  #108.9
        jg        ..L1117       # Prob 60%                      #108.9
..L1116:                                                        #
        call      __intel_sse2_strrchr@PLT                      #108.9
..L1117:                                                        #
                                # LOE rax rbx r12 r13 ebp
..B30.225:                      # Preds ..B30.102
        movq      (%r13), %r14                                  #108.9
        movq      %rax, %rcx                                    #108.9
        lea       .L_2__STRING.8(%rip), %rsi                    #108.9
        movq      152(%r14), %r9                                #108.9
        movq      %r9, %rdi                                     #108.9
        lea       1(%rcx), %r8                                  #108.9
..L1118:                                                        #108.9
        movb      (%rdi), %dl                                   #108.9
        cmpb      (%rsi), %dl                                   #108.9
        jne       ..L1120       # Prob 50%                      #108.9
        testb     %dl, %dl                                      #108.9
        je        ..L1119       # Prob 50%                      #108.9
        movb      1(%rdi), %dl                                  #108.9
        cmpb      1(%rsi), %dl                                  #108.9
        jne       ..L1120       # Prob 50%                      #108.9
        addq      $2, %rdi                                      #108.9
        addq      $2, %rsi                                      #108.9
        testb     %dl, %dl                                      #108.9
        jne       ..L1118       # Prob 50%                      #108.9
..L1119:                                                        #
        xorl      %eax, %eax                                    #108.9
        jmp       ..L1121       # Prob 100%                     #108.9
..L1120:                                                        #
        sbbl      %eax, %eax                                    #108.9
        orl       $1, %eax                                      #108.9
..L1121:                                                        #
                                # LOE rcx rbx r8 r9 r12 r14 eax ebp
..B30.224:                      # Preds ..B30.225
        addq      $-64, %rsp                                    #108.9
	.cfi_def_cfa_offset 176
        testq     %rcx, %rcx                                    #108.9
        movq      8(%r14), %r10                                 #108.9
        lea       .L_2__STRING.6(%rip), %rsi                    #108.9
        cmove     %rbx, %r8                                     #108.9
        testl     %eax, %eax                                    #108.9
        movq      32(%r14), %rbx                                #108.9
        movl      %ebp, %edx                                    #108.9
        movq      16(%r14), %r11                                #108.9
        movl      64(%r14), %r15d                               #108.9
        movl      68(%r14), %ecx                                #108.9
        movq      %rbx, (%rsp)                                  #108.9
        movq      stderr@GOTPCREL(%rip), %r13                   #108.9
        movq      %r10, 8(%rsp)                                 #108.9
        movq      %r11, 16(%rsp)                                #108.9
        movl      %r15d, 24(%rsp)                               #108.9
        movl      %ecx, 32(%rsp)                                #108.9
        lea       .L_2__STRING.7(%rip), %rcx                    #108.9
        movl      72(%r14), %r14d                               #108.9
        cmove     %rcx, %r9                                     #108.9
        xorl      %eax, %eax                                    #108.9
        movl      %r14d, 40(%rsp)                               #108.9
        lea       __$U0(%rip), %rcx                             #108.9
        movq      %r9, 48(%rsp)                                 #108.9
        movl      $108, %r9d                                    #108.9
        movq      (%r13), %rdi                                  #108.9
#       fprintf(FILE *, const char *, ...)
        call      fprintf@PLT                                   #108.9
                                # LOE r12 r13
..B30.223:                      # Preds ..B30.224
        addq      $64, %rsp                                     #108.9
	.cfi_def_cfa_offset 112
                                # LOE r12 r13
..B30.103:                      # Preds ..B30.223
        movq      (%r13), %rdi                                  #108.9
#       fflush(FILE *)
        call      fflush@PLT                                    #108.9
                                # LOE r12 r13
..B30.104:                      # Preds ..B30.103 ..B30.248 ..B30.100
        lea       il0_peep_printf_format_0(%rip), %rdi          #108.9
        movq      (%r13), %rsi                                  #108.9
        call      fputs@PLT                                     #108.9
                                # LOE r12 r13
..B30.105:                      # Preds ..B30.104
        lea       il0_peep_printf_format_1(%rip), %rdi          #108.9
        movq      (%r13), %rsi                                  #108.9
        call      fputs@PLT                                     #108.9
                                # LOE r12 r13
..B30.106:                      # Preds ..B30.105
        cmpb      $0, (%r12)                                    #108.9
        jne       ..B30.119     # Prob 10%                      #108.9
                                # LOE r12 r13
..B30.108:                      # Preds ..B30.106 ..B30.117
        movl      $1, %edi                                      #108.9
#       sleep(unsigned int)
        call      sleep@PLT                                     #108.9
                                # LOE r12 r13
..B30.109:                      # Preds ..B30.108
        lea       il0_peep_printf_format_2(%rip), %rdi          #108.9
        movq      (%r13), %rsi                                  #108.9
        call      fputs@PLT                                     #108.9
                                # LOE r12 r13
..B30.110:                      # Preds ..B30.109
        movq      (%r13), %rdi                                  #108.9
#       fflush(FILE *)
        call      fflush@PLT                                    #108.9
                                # LOE r12 r13
..B30.111:                      # Preds ..B30.110
        movl      $1, %edi                                      #108.9
#       sleep(unsigned int)
        call      sleep@PLT                                     #108.9
                                # LOE r12 r13
..B30.112:                      # Preds ..B30.111
        lea       il0_peep_printf_format_3(%rip), %rdi          #108.9
        movq      (%r13), %rsi                                  #108.9
        call      fputs@PLT                                     #108.9
                                # LOE r12 r13
..B30.113:                      # Preds ..B30.112
        movl      $1, %edi                                      #108.9
#       sleep(unsigned int)
        call      sleep@PLT                                     #108.9
                                # LOE r12 r13
..B30.114:                      # Preds ..B30.113
        lea       il0_peep_printf_format_4(%rip), %rdi          #108.9
        movq      (%r13), %rsi                                  #108.9
        call      fputs@PLT                                     #108.9
                                # LOE r12 r13
..B30.115:                      # Preds ..B30.114
        movl      $1, %edi                                      #108.9
#       sleep(unsigned int)
        call      sleep@PLT                                     #108.9
                                # LOE r12 r13
..B30.116:                      # Preds ..B30.115
        lea       il0_peep_printf_format_5(%rip), %rdi          #108.9
        movq      (%r13), %rsi                                  #108.9
        call      fputs@PLT                                     #108.9
                                # LOE r12 r13
..B30.117:                      # Preds ..B30.116
        cmpb      $0, (%r12)                                    #108.9
        je        ..B30.108     # Prob 82%                      #108.9
                                # LOE r12 r13
..B30.119:                      # Preds ..B30.117 ..B30.106
        lea       il0_peep_printf_format_6(%rip), %rdi          #108.9
        movq      (%r13), %rsi                                  #108.9
        call      fputs@PLT                                     #108.9
                                # LOE r13
..B30.120:                      # Preds ..B30.119
        movl      $10, %edi                                     #108.9
        movq      (%r13), %rsi                                  #108.9
        call      fputc@PLT                                     #108.9
                                # LOE r13
..B30.121:                      # Preds ..B30.120
        movq      (%r13), %rdi                                  #108.9
#       fflush(FILE *)
        call      fflush@PLT                                    #108.9
        jmp       ..B30.138     # Prob 100%                     #108.9
                                # LOE
..B30.122:                      # Preds ..B30.97
        movq      (%r13), %r11                                  #110.9
        lea       .L_2__STRING.16(%rip), %rsi                   #110.9
        xorl      %eax, %eax                                    #110.9
        movzbl    144(%r11), %ebx                               #110.9
        pushq     %rbx                                          #110.9
	.cfi_def_cfa_offset 120
        pushq     152(%r11)                                     #110.9
	.cfi_def_cfa_offset 128
        movl      72(%r11), %ebp                                #110.9
        pushq     %rbp                                          #110.9
	.cfi_def_cfa_offset 136
        movl      68(%r11), %r10d                               #110.9
        pushq     %r10                                          #110.9
	.cfi_def_cfa_offset 144
        movq      24(%r11), %rdx                                #110.9
        lea       32(%rsp), %rdi                                #110.9
        movq      8(%r11), %rcx                                 #110.9
        movq      16(%r11), %r8                                 #110.9
        movl      64(%r11), %r9d                                #110.9
..___tag_value__ZN8yaskSite5buildEv.1128:
#       asprintf(char **, const char *, ...)
        call      asprintf@PLT                                  #110.9
..___tag_value__ZN8yaskSite5buildEv.1129:
                                # LOE r12 r13
..B30.226:                      # Preds ..B30.122
        addq      $32, %rsp                                     #110.9
	.cfi_def_cfa_offset 112
                                # LOE r12 r13
..B30.123:                      # Preds ..B30.226
        lea       .L_2__STRING.18(%rip), %rsi                   #110.9
        lea       8(%rsp), %rdi                                 #110.9
        lea       .L_2__STRING.17(%rip), %rcx                   #110.9
        xorl      %eax, %eax                                    #110.9
        movq      (%rsp), %rdx                                  #110.9
..___tag_value__ZN8yaskSite5buildEv.1131:
#       asprintf(char **, const char *, ...)
        call      asprintf@PLT                                  #110.9
..___tag_value__ZN8yaskSite5buildEv.1132:
                                # LOE r12 r13
..B30.124:                      # Preds ..B30.123
        movq      8(%rsp), %rsi                                 #110.9
        movq      (%r13), %rdi                                  #110.9
..___tag_value__ZN8yaskSite5buildEv.1133:
#       yaskSite::systemCall(yaskSite *, char *)
        call      _ZN8yaskSite10systemCallEPc@PLT               #110.9
..___tag_value__ZN8yaskSite5buildEv.1134:
                                # LOE r12 r13
..B30.125:                      # Preds ..B30.124
        movq      (%rsp), %rdi                                  #110.9
#       free(void *)
        call      free@PLT                                      #110.9
                                # LOE r12 r13
..B30.126:                      # Preds ..B30.125
        movq      8(%rsp), %rdi                                 #110.9
#       free(void *)
        call      free@PLT                                      #110.9
                                # LOE r12 r13
..B30.127:                      # Preds ..B30.126
        movq      (%r13), %rbx                                  #111.9
        lea       16(%rsp), %rdi                                #111.9
        lea       .L_2__STRING.19(%rip), %rsi                   #111.9
        xorl      %eax, %eax                                    #111.9
        movq      24(%rbx), %rdx                                #111.9
        movq      8(%rbx), %rcx                                 #111.9
        movq      16(%rbx), %r8                                 #111.9
        movq      40(%rbx), %r9                                 #111.9
..___tag_value__ZN8yaskSite5buildEv.1135:
#       asprintf(char **, const char *, ...)
        call      asprintf@PLT                                  #111.9
..___tag_value__ZN8yaskSite5buildEv.1136:
                                # LOE r12 r13
..B30.128:                      # Preds ..B30.127
        lea       .L_2__STRING.18(%rip), %rsi                   #111.9
        lea       24(%rsp), %rdi                                #111.9
        lea       .L_2__STRING.17(%rip), %rcx                   #111.9
        xorl      %eax, %eax                                    #111.9
        movq      -8(%rdi), %rdx                                #111.9
..___tag_value__ZN8yaskSite5buildEv.1137:
#       asprintf(char **, const char *, ...)
        call      asprintf@PLT                                  #111.9
..___tag_value__ZN8yaskSite5buildEv.1138:
                                # LOE r12 r13
..B30.129:                      # Preds ..B30.128
        movq      24(%rsp), %rsi                                #111.9
        movq      (%r13), %rdi                                  #111.9
..___tag_value__ZN8yaskSite5buildEv.1139:
#       yaskSite::systemCall(yaskSite *, char *)
        call      _ZN8yaskSite10systemCallEPc@PLT               #111.9
..___tag_value__ZN8yaskSite5buildEv.1140:
                                # LOE r12 r13
..B30.130:                      # Preds ..B30.129
        movq      16(%rsp), %rdi                                #111.9
#       free(void *)
        call      free@PLT                                      #111.9
                                # LOE r12 r13
..B30.131:                      # Preds ..B30.130
        movq      24(%rsp), %rdi                                #111.9
#       free(void *)
        call      free@PLT                                      #111.9
                                # LOE r12 r13
..B30.132:                      # Preds ..B30.131
        addq      $-32, %rsp                                    #114.9
	.cfi_def_cfa_offset 144
        lea       .L_2__STRING.20(%rip), %rsi                   #114.9
        movq      (%r13), %r11                                  #114.9
        lea       64(%rsp), %rdi                                #114.9
        lea       .L_2__STRING.21(%rip), %rdx                   #114.9
        xorl      %eax, %eax                                    #114.9
        lea       .L_2__STRING.22(%rip), %rbx                   #114.9
        lea       .L_2__STRING.23(%rip), %rbp                   #114.9
        movq      40(%r11), %r10                                #114.9
        movq      %rbx, (%rsp)                                  #114.9
        movq      %rbp, 8(%rsp)                                 #114.9
        movq      24(%r11), %rcx                                #114.9
        movq      8(%r11), %r8                                  #114.9
        movq      16(%r11), %r9                                 #114.9
        movq      %r10, 16(%rsp)                                #114.9
..___tag_value__ZN8yaskSite5buildEv.1142:
#       asprintf(char **, const char *, ...)
        call      asprintf@PLT                                  #114.9
..___tag_value__ZN8yaskSite5buildEv.1143:
                                # LOE r12 r13
..B30.227:                      # Preds ..B30.132
        addq      $32, %rsp                                     #114.9
	.cfi_def_cfa_offset 112
                                # LOE r12 r13
..B30.133:                      # Preds ..B30.227
        lea       .L_2__STRING.18(%rip), %rsi                   #114.9
        lea       40(%rsp), %rdi                                #114.9
        lea       .L_2__STRING.17(%rip), %rcx                   #114.9
        xorl      %eax, %eax                                    #114.9
        movq      -8(%rdi), %rdx                                #114.9
..___tag_value__ZN8yaskSite5buildEv.1145:
#       asprintf(char **, const char *, ...)
        call      asprintf@PLT                                  #114.9
..___tag_value__ZN8yaskSite5buildEv.1146:
                                # LOE r12 r13
..B30.134:                      # Preds ..B30.133
        movq      40(%rsp), %rsi                                #114.9
        movq      (%r13), %rdi                                  #114.9
..___tag_value__ZN8yaskSite5buildEv.1147:
#       yaskSite::systemCall(yaskSite *, char *)
        call      _ZN8yaskSite10systemCallEPc@PLT               #114.9
..___tag_value__ZN8yaskSite5buildEv.1148:
                                # LOE r12
..B30.135:                      # Preds ..B30.134
        movq      32(%rsp), %rdi                                #114.9
#       free(void *)
        call      free@PLT                                      #114.9
                                # LOE r12
..B30.136:                      # Preds ..B30.135
        movq      40(%rsp), %rdi                                #114.9
#       free(void *)
        call      free@PLT                                      #114.9
                                # LOE r12
..B30.137:                      # Preds ..B30.136
        movb      $1, (%r12)                                    #116.9
                                # LOE
..B30.138:                      # Preds ..B30.121 ..B30.137
        movq      48(%rsp), %r15                                #108.9
	.cfi_restore 15
        movq      56(%rsp), %r14                                #108.9
	.cfi_restore 14
        movq      64(%rsp), %r13                                #108.9
	.cfi_restore 13
        movq      72(%rsp), %r12                                #108.9
	.cfi_restore 12
        movq      80(%rsp), %rbx                                #108.9
	.cfi_restore 3
        movq      88(%rsp), %rbp                                #108.9
	.cfi_restore 6
        addq      $104, %rsp                                    #108.9
	.cfi_def_cfa_offset 8
        ret                                                     #108.9
	.cfi_def_cfa_offset 112
	.cfi_offset 3, -32
	.cfi_offset 6, -24
	.cfi_offset 12, -40
	.cfi_offset 13, -48
	.cfi_offset 14, -56
	.cfi_offset 15, -64
                                # LOE
..B30.139:                      # Preds ..B30.5                 # Infreq
        movq      24(%rsp), %rdi                                #106.9
..___tag_value__ZN8yaskSite5buildEv.1163:
#       yaskSite::cleanBuild(yaskSite *)
        call      _ZN8yaskSite10cleanBuildEv@PLT                #106.9
..___tag_value__ZN8yaskSite5buildEv.1164:
                                # LOE
..B30.140:                      # Preds ..B30.139               # Infreq
        lea       .2.252_2_kmpc_loc_struct_pack.100(%rip), %rdi #108.9
        movb      $0, 17(%rsp)                                  #108.9
        call      __kmpc_global_thread_num@PLT                  #108.9
                                # LOE eax
..B30.229:                      # Preds ..B30.140               # Infreq
        movl      %eax, (%rsp)                                  #108.9
        lea       .2.252_2_kmpc_loc_struct_pack.108(%rip), %rdi #108.9
        xorl      %eax, %eax                                    #108.9
..___tag_value__ZN8yaskSite5buildEv.1165:
        call      __kmpc_ok_to_fork@PLT                         #108.9
..___tag_value__ZN8yaskSite5buildEv.1166:
                                # LOE eax
..B30.141:                      # Preds ..B30.229               # Infreq
        testl     %eax, %eax                                    #108.9
        je        ..B30.144     # Prob 50%                      #108.9
                                # LOE
..B30.142:                      # Preds ..B30.141               # Infreq
        lea       .2.252_2_kmpc_loc_struct_pack.108(%rip), %rdi #108.9
        movl      $2, %edx                                      #108.9
        xorl      %eax, %eax                                    #108.9
        movl      (%rsp), %esi                                  #108.9
..___tag_value__ZN8yaskSite5buildEv.1167:
        call      __kmpc_push_num_threads@PLT                   #108.9
..___tag_value__ZN8yaskSite5buildEv.1168:
                                # LOE
..B30.143:                      # Preds ..B30.142               # Infreq
        lea       L__ZN8yaskSite5buildEv_108__par_region0_2.18(%rip), %rdx #108.9
        lea       24(%rsp), %rbx                                #108.9
        lea       .2.252_2_kmpc_loc_struct_pack.108(%rip), %rdi #108.9
        lea       -7(%rbx), %rcx                                #108.9
        movl      $2, %esi                                      #108.9
        movq      %rbx, %r8                                     #108.9
        xorl      %eax, %eax                                    #108.9
..___tag_value__ZN8yaskSite5buildEv.1169:
        call      __kmpc_fork_call@PLT                          #108.9
..___tag_value__ZN8yaskSite5buildEv.1170:
        jmp       ..B30.147     # Prob 100%                     #108.9
                                # LOE rbx
..B30.144:                      # Preds ..B30.141               # Infreq
        lea       .2.252_2_kmpc_loc_struct_pack.108(%rip), %rdi #108.9
        xorl      %eax, %eax                                    #108.9
        movl      (%rsp), %esi                                  #108.9
..___tag_value__ZN8yaskSite5buildEv.1171:
        call      __kmpc_serialized_parallel@PLT                #108.9
..___tag_value__ZN8yaskSite5buildEv.1172:
                                # LOE
..B30.145:                      # Preds ..B30.144               # Infreq
        lea       ___kmpv_zero_ZN8yaskSite5buildEv_0(%rip), %rsi #108.9
        lea       24(%rsp), %rbx                                #108.9
        movq      %rbx, %rcx                                    #108.9
        lea       (%rsp), %rdi                                  #108.9
        lea       -7(%rbx), %rdx                                #108.9
..___tag_value__ZN8yaskSite5buildEv.1173:
        call      L__ZN8yaskSite5buildEv_108__par_region0_2.18  #108.9
..___tag_value__ZN8yaskSite5buildEv.1174:
                                # LOE rbx
..B30.146:                      # Preds ..B30.145               # Infreq
        lea       .2.252_2_kmpc_loc_struct_pack.108(%rip), %rdi #108.9
        xorl      %eax, %eax                                    #108.9
        movl      (%rsp), %esi                                  #108.9
..___tag_value__ZN8yaskSite5buildEv.1175:
        call      __kmpc_end_serialized_parallel@PLT            #108.9
..___tag_value__ZN8yaskSite5buildEv.1176:
                                # LOE rbx
..B30.147:                      # Preds ..B30.143 ..B30.146     # Infreq
        lea       .2.252_2_kmpc_loc_struct_pack.133(%rip), %rdi #120.9
        xorl      %eax, %eax                                    #120.9
        movb      $0, 16(%rsp)                                  #120.9
..___tag_value__ZN8yaskSite5buildEv.1177:
        call      __kmpc_ok_to_fork@PLT                         #120.9
..___tag_value__ZN8yaskSite5buildEv.1178:
                                # LOE rbx eax
..B30.148:                      # Preds ..B30.147               # Infreq
        testl     %eax, %eax                                    #120.9
        je        ..B30.151     # Prob 50%                      #120.9
                                # LOE rbx
..B30.149:                      # Preds ..B30.148               # Infreq
        lea       .2.252_2_kmpc_loc_struct_pack.133(%rip), %rdi #120.9
        movl      $2, %edx                                      #120.9
        xorl      %eax, %eax                                    #120.9
        movl      (%rsp), %esi                                  #120.9
..___tag_value__ZN8yaskSite5buildEv.1179:
        call      __kmpc_push_num_threads@PLT                   #120.9
..___tag_value__ZN8yaskSite5buildEv.1180:
                                # LOE rbx
..B30.150:                      # Preds ..B30.149               # Infreq
        lea       L__ZN8yaskSite5buildEv_120__par_region1_2.19(%rip), %rdx #120.9
        lea       16(%rsp), %rcx                                #120.9
        lea       .2.252_2_kmpc_loc_struct_pack.133(%rip), %rdi #120.9
        movl      $3, %esi                                      #120.9
        movq      %rbx, %r9                                     #120.9
        lea       16(%rcx), %r8                                 #120.9
        xorl      %eax, %eax                                    #120.9
..___tag_value__ZN8yaskSite5buildEv.1181:
        call      __kmpc_fork_call@PLT                          #120.9
..___tag_value__ZN8yaskSite5buildEv.1182:
        jmp       ..B30.15      # Prob 100%                     #120.9
                                # LOE
..B30.151:                      # Preds ..B30.148               # Infreq
        lea       .2.252_2_kmpc_loc_struct_pack.133(%rip), %rdi #120.9
        xorl      %eax, %eax                                    #120.9
        movl      (%rsp), %esi                                  #120.9
..___tag_value__ZN8yaskSite5buildEv.1183:
        call      __kmpc_serialized_parallel@PLT                #120.9
..___tag_value__ZN8yaskSite5buildEv.1184:
                                # LOE rbx
..B30.152:                      # Preds ..B30.151               # Infreq
        lea       ___kmpv_zero_ZN8yaskSite5buildEv_1(%rip), %rsi #120.9
        lea       (%rsp), %rdi                                  #120.9
        movq      %rbx, %r8                                     #120.9
        lea       16(%rdi), %rdx                                #120.9
        lea       16(%rdx), %rcx                                #120.9
..___tag_value__ZN8yaskSite5buildEv.1185:
        call      L__ZN8yaskSite5buildEv_120__par_region1_2.19  #120.9
..___tag_value__ZN8yaskSite5buildEv.1186:
                                # LOE
..B30.153:                      # Preds ..B30.152               # Infreq
        lea       .2.252_2_kmpc_loc_struct_pack.133(%rip), %rdi #120.9
        xorl      %eax, %eax                                    #120.9
        movl      (%rsp), %esi                                  #120.9
..___tag_value__ZN8yaskSite5buildEv.1187:
        call      __kmpc_end_serialized_parallel@PLT            #120.9
..___tag_value__ZN8yaskSite5buildEv.1188:
        jmp       ..B30.15      # Prob 100%                     #120.9
                                # LOE
..B30.155:                      # Preds ..B30.2                 # Infreq
        cmpl      $1, 64(%rax)                                  #92.5
        je        ..B30.3       # Prob 16%                      #92.5
                                # LOE rax
..B30.156:                      # Preds ..B30.155               # Infreq
        movl      $1140850688, %edi                             #92.5
        lea       12(%rsp), %rsi                                #92.5
..___tag_value__ZN8yaskSite5buildEv.1189:
#       MPI_Comm_rank(MPI_Comm, int *)
        call      MPI_Comm_rank@PLT                             #92.5
..___tag_value__ZN8yaskSite5buildEv.1190:
                                # LOE eax
..B30.157:                      # Preds ..B30.156               # Infreq
        testl     %eax, %eax                                    #92.5
        je        ..B30.159     # Prob 50%                      #92.5
                                # LOE
..B30.158:                      # Preds ..B30.157               # Infreq
        movl      $-1, 12(%rsp)                                 #92.5
        movq      stderr@GOTPCREL(%rip), %rbp                   #92.5
        jmp       ..B30.162     # Prob 100%                     #92.5
                                # LOE rbp
..B30.159:                      # Preds ..B30.157               # Infreq
        movl      12(%rsp), %ebx                                #92.5
        testl     %ebx, %ebx                                    #92.5
        jne       ..B30.247     # Prob 50%                      #92.5
                                # LOE ebx
..B30.160:                      # Preds ..B30.159               # Infreq
        lea       .L_2__STRING.1(%rip), %rsi                    #92.5
        movl      $47, %eax                                     #92.5
        movq      %rsi, %rdx                                    #92.5
        movq      %rdx, %rcx                                    #92.5
        movd      %eax, %xmm1                                   #92.5
        andq      $-16, %rdx                                    #92.5
        punpcklbw %xmm1, %xmm1                                  #92.5
        andl      $15, %ecx                                     #92.5
        punpcklbw %xmm1, %xmm1                                  #92.5
        pshufd    $0, %xmm1, %xmm1                              #92.5
        pxor      %xmm0, %xmm0                                  #92.5
        movdqa    (%rdx), %xmm2                                 #92.5
        pcmpeqb   %xmm2, %xmm0                                  #92.5
        pmovmskb  %xmm0, %r10d                                  #92.5
        pcmpeqb   %xmm1, %xmm2                                  #92.5
        shrl      %cl, %r10d                                    #92.5
        lea       -1(%r10), %rax                                #92.5
        xorl      %eax, %r10d                                   #92.5
        pmovmskb  %xmm2, %eax                                   #92.5
        shrl      %cl, %eax                                     #92.5
        andl      %r10d, %eax                                   #92.5
        je        ..L1191       # Prob 60%                      #92.5
        bsr       %rax, %rax                                    #92.5
        addq      %rcx, %rax                                    #92.5
        addq      %rdx, %rax                                    #92.5
..L1191:                                                        #
        orl       %r10d, %r10d                                  #92.5
        jg        ..L1193       # Prob 60%                      #92.5
..L1192:                                                        #
        call      __intel_sse2_strrchr@PLT                      #92.5
..L1193:                                                        #
                                # LOE rax rsi ebx
..B30.233:                      # Preds ..B30.160               # Infreq
        movq      24(%rsp), %r12                                #92.5
        addq      $-32, %rsp                                    #92.5
	.cfi_def_cfa_offset 144
        movq      stderr@GOTPCREL(%rip), %rbp                   #92.5
        testq     %rax, %rax                                    #92.5
        movl      %ebx, %edx                                    #92.5
        lea       1(%rax), %r8                                  #92.5
        movl      64(%r12), %r11d                               #92.5
        cmove     %rsi, %r8                                     #92.5
        movl      140(%r12), %r13d                              #92.5
        lea       .L_2__STRING.0(%rip), %rsi                    #92.5
        lea       __$U0(%rip), %rcx                             #92.5
        movl      $92, %r9d                                     #92.5
        xorl      %eax, %eax                                    #92.5
        lea       .L_2__STRING.2(%rip), %r10                    #92.5
        movq      %r10, (%rsp)                                  #92.5
        movl      %r11d, 8(%rsp)                                #92.5
        movq      (%rbp), %rdi                                  #92.5
        movl      %r13d, 16(%rsp)                               #92.5
#       fprintf(FILE *, const char *, ...)
        call      fprintf@PLT                                   #92.5
                                # LOE rbp
..B30.232:                      # Preds ..B30.233               # Infreq
        addq      $32, %rsp                                     #92.5
	.cfi_def_cfa_offset 112
                                # LOE rbp
..B30.161:                      # Preds ..B30.232               # Infreq
        movq      (%rbp), %rdi                                  #92.5
#       fflush(FILE *)
        call      fflush@PLT                                    #92.5
                                # LOE rbp
..B30.162:                      # Preds ..B30.161 ..B30.247 ..B30.158 # Infreq
        movl      $10, %edi                                     #92.5
        movq      (%rbp), %rsi                                  #92.5
        call      fputc@PLT                                     #92.5
                                # LOE rbp
..B30.163:                      # Preds ..B30.162               # Infreq
        movq      (%rbp), %rdi                                  #92.5
#       fflush(FILE *)
        call      fflush@PLT                                    #92.5
                                # LOE
..B30.164:                      # Preds ..B30.163               # Infreq
        movq      24(%rsp), %rax                                #92.5
        movl      $1, 64(%rax)                                  #92.5
        jmp       ..B30.3       # Prob 100%                     #92.5
                                # LOE rax
..B30.165:                      # Preds ..B30.1                 # Infreq
        cmpl      $1, 64(%rax)                                  #92.5
        je        ..B30.175     # Prob 16%                      #92.5
                                # LOE rax
..B30.166:                      # Preds ..B30.165               # Infreq
        movl      $1140850688, %edi                             #92.5
        lea       4(%rsp), %rsi                                 #92.5
..___tag_value__ZN8yaskSite5buildEv.1196:
#       MPI_Comm_rank(MPI_Comm, int *)
        call      MPI_Comm_rank@PLT                             #92.5
..___tag_value__ZN8yaskSite5buildEv.1197:
                                # LOE eax
..B30.167:                      # Preds ..B30.166               # Infreq
        testl     %eax, %eax                                    #92.5
        je        ..B30.169     # Prob 50%                      #92.5
                                # LOE
..B30.168:                      # Preds ..B30.167               # Infreq
        movl      $-1, 4(%rsp)                                  #92.5
        movq      stderr@GOTPCREL(%rip), %rbp                   #92.5
        jmp       ..B30.172     # Prob 100%                     #92.5
                                # LOE rbp
..B30.169:                      # Preds ..B30.167               # Infreq
        movl      4(%rsp), %ebx                                 #92.5
        testl     %ebx, %ebx                                    #92.5
        jne       ..B30.246     # Prob 50%                      #92.5
                                # LOE ebx
..B30.170:                      # Preds ..B30.169               # Infreq
        lea       .L_2__STRING.1(%rip), %rsi                    #92.5
        movl      $47, %eax                                     #92.5
        movq      %rsi, %rdx                                    #92.5
        movq      %rdx, %rcx                                    #92.5
        movd      %eax, %xmm1                                   #92.5
        andq      $-16, %rdx                                    #92.5
        punpcklbw %xmm1, %xmm1                                  #92.5
        andl      $15, %ecx                                     #92.5
        punpcklbw %xmm1, %xmm1                                  #92.5
        pshufd    $0, %xmm1, %xmm1                              #92.5
        pxor      %xmm0, %xmm0                                  #92.5
        movdqa    (%rdx), %xmm2                                 #92.5
        pcmpeqb   %xmm2, %xmm0                                  #92.5
        pmovmskb  %xmm0, %r10d                                  #92.5
        pcmpeqb   %xmm1, %xmm2                                  #92.5
        shrl      %cl, %r10d                                    #92.5
        lea       -1(%r10), %rax                                #92.5
        xorl      %eax, %r10d                                   #92.5
        pmovmskb  %xmm2, %eax                                   #92.5
        shrl      %cl, %eax                                     #92.5
        andl      %r10d, %eax                                   #92.5
        je        ..L1198       # Prob 60%                      #92.5
        bsr       %rax, %rax                                    #92.5
        addq      %rcx, %rax                                    #92.5
        addq      %rdx, %rax                                    #92.5
..L1198:                                                        #
        orl       %r10d, %r10d                                  #92.5
        jg        ..L1200       # Prob 60%                      #92.5
..L1199:                                                        #
        call      __intel_sse2_strrchr@PLT                      #92.5
..L1200:                                                        #
                                # LOE rax rsi ebx
..B30.236:                      # Preds ..B30.170               # Infreq
        movq      24(%rsp), %r12                                #92.5
        addq      $-32, %rsp                                    #92.5
	.cfi_def_cfa_offset 144
        movq      stderr@GOTPCREL(%rip), %rbp                   #92.5
        testq     %rax, %rax                                    #92.5
        movl      %ebx, %edx                                    #92.5
        lea       1(%rax), %r8                                  #92.5
        movl      64(%r12), %r11d                               #92.5
        cmove     %rsi, %r8                                     #92.5
        movl      140(%r12), %r13d                              #92.5
        lea       .L_2__STRING.0(%rip), %rsi                    #92.5
        lea       __$U0(%rip), %rcx                             #92.5
        movl      $92, %r9d                                     #92.5
        xorl      %eax, %eax                                    #92.5
        lea       .L_2__STRING.2(%rip), %r10                    #92.5
        movq      %r10, (%rsp)                                  #92.5
        movl      %r11d, 8(%rsp)                                #92.5
        movq      (%rbp), %rdi                                  #92.5
        movl      %r13d, 16(%rsp)                               #92.5
#       fprintf(FILE *, const char *, ...)
        call      fprintf@PLT                                   #92.5
                                # LOE rbp
..B30.235:                      # Preds ..B30.236               # Infreq
        addq      $32, %rsp                                     #92.5
	.cfi_def_cfa_offset 112
                                # LOE rbp
..B30.171:                      # Preds ..B30.235               # Infreq
        movq      (%rbp), %rdi                                  #92.5
#       fflush(FILE *)
        call      fflush@PLT                                    #92.5
                                # LOE rbp
..B30.172:                      # Preds ..B30.171 ..B30.246 ..B30.168 # Infreq
        movl      $10, %edi                                     #92.5
        movq      (%rbp), %rsi                                  #92.5
        call      fputc@PLT                                     #92.5
                                # LOE rbp
..B30.173:                      # Preds ..B30.172               # Infreq
        movq      (%rbp), %rdi                                  #92.5
#       fflush(FILE *)
        call      fflush@PLT                                    #92.5
                                # LOE
..B30.174:                      # Preds ..B30.173               # Infreq
        movq      24(%rsp), %rax                                #92.5
        movl      $1, 64(%rax)                                  #92.5
                                # LOE rax
..B30.175:                      # Preds ..B30.174 ..B30.165     # Infreq
        cmpl      $1, 68(%rax)                                  #92.5
        je        ..B30.2       # Prob 16%                      #92.5
                                # LOE rax
..B30.176:                      # Preds ..B30.175               # Infreq
        movl      $1140850688, %edi                             #92.5
        lea       8(%rsp), %rsi                                 #92.5
..___tag_value__ZN8yaskSite5buildEv.1203:
#       MPI_Comm_rank(MPI_Comm, int *)
        call      MPI_Comm_rank@PLT                             #92.5
..___tag_value__ZN8yaskSite5buildEv.1204:
                                # LOE eax
..B30.177:                      # Preds ..B30.176               # Infreq
        testl     %eax, %eax                                    #92.5
        je        ..B30.179     # Prob 50%                      #92.5
                                # LOE
..B30.178:                      # Preds ..B30.177               # Infreq
        movl      $-1, 8(%rsp)                                  #92.5
        movq      stderr@GOTPCREL(%rip), %rbp                   #92.5
        jmp       ..B30.182     # Prob 100%                     #92.5
                                # LOE rbp
..B30.179:                      # Preds ..B30.177               # Infreq
        movl      8(%rsp), %ebx                                 #92.5
        testl     %ebx, %ebx                                    #92.5
        jne       ..B30.245     # Prob 50%                      #92.5
                                # LOE ebx
..B30.180:                      # Preds ..B30.179               # Infreq
        lea       .L_2__STRING.1(%rip), %rsi                    #92.5
        movl      $47, %eax                                     #92.5
        movq      %rsi, %rdx                                    #92.5
        movq      %rdx, %rcx                                    #92.5
        movd      %eax, %xmm1                                   #92.5
        andq      $-16, %rdx                                    #92.5
        punpcklbw %xmm1, %xmm1                                  #92.5
        andl      $15, %ecx                                     #92.5
        punpcklbw %xmm1, %xmm1                                  #92.5
        pshufd    $0, %xmm1, %xmm1                              #92.5
        pxor      %xmm0, %xmm0                                  #92.5
        movdqa    (%rdx), %xmm2                                 #92.5
        pcmpeqb   %xmm2, %xmm0                                  #92.5
        pmovmskb  %xmm0, %r10d                                  #92.5
        pcmpeqb   %xmm1, %xmm2                                  #92.5
        shrl      %cl, %r10d                                    #92.5
        lea       -1(%r10), %rax                                #92.5
        xorl      %eax, %r10d                                   #92.5
        pmovmskb  %xmm2, %eax                                   #92.5
        shrl      %cl, %eax                                     #92.5
        andl      %r10d, %eax                                   #92.5
        je        ..L1205       # Prob 60%                      #92.5
        bsr       %rax, %rax                                    #92.5
        addq      %rcx, %rax                                    #92.5
        addq      %rdx, %rax                                    #92.5
..L1205:                                                        #
        orl       %r10d, %r10d                                  #92.5
        jg        ..L1207       # Prob 60%                      #92.5
..L1206:                                                        #
        call      __intel_sse2_strrchr@PLT                      #92.5
..L1207:                                                        #
                                # LOE rax rsi ebx
..B30.239:                      # Preds ..B30.180               # Infreq
        movq      24(%rsp), %r12                                #92.5
        addq      $-32, %rsp                                    #92.5
	.cfi_def_cfa_offset 144
        movq      stderr@GOTPCREL(%rip), %rbp                   #92.5
        testq     %rax, %rax                                    #92.5
        movl      %ebx, %edx                                    #92.5
        lea       1(%rax), %r8                                  #92.5
        movl      64(%r12), %r11d                               #92.5
        cmove     %rsi, %r8                                     #92.5
        movl      140(%r12), %r13d                              #92.5
        lea       .L_2__STRING.4(%rip), %rsi                    #92.5
        lea       __$U0(%rip), %rcx                             #92.5
        movl      $92, %r9d                                     #92.5
        xorl      %eax, %eax                                    #92.5
        lea       .L_2__STRING.2(%rip), %r10                    #92.5
        movq      %r10, (%rsp)                                  #92.5
        movl      %r11d, 8(%rsp)                                #92.5
        movq      (%rbp), %rdi                                  #92.5
        movl      %r13d, 16(%rsp)                               #92.5
#       fprintf(FILE *, const char *, ...)
        call      fprintf@PLT                                   #92.5
                                # LOE rbp
..B30.238:                      # Preds ..B30.239               # Infreq
        addq      $32, %rsp                                     #92.5
	.cfi_def_cfa_offset 112
                                # LOE rbp
..B30.181:                      # Preds ..B30.238               # Infreq
        movq      (%rbp), %rdi                                  #92.5
#       fflush(FILE *)
        call      fflush@PLT                                    #92.5
                                # LOE rbp
..B30.182:                      # Preds ..B30.181 ..B30.245 ..B30.178 # Infreq
        movl      $10, %edi                                     #92.5
        movq      (%rbp), %rsi                                  #92.5
        call      fputc@PLT                                     #92.5
                                # LOE rbp
..B30.183:                      # Preds ..B30.182               # Infreq
        movq      (%rbp), %rdi                                  #92.5
#       fflush(FILE *)
        call      fflush@PLT                                    #92.5
                                # LOE
..B30.184:                      # Preds ..B30.183               # Infreq
        movq      24(%rsp), %rax                                #92.5
        movl      $1, 68(%rax)                                  #92.5
        jmp       ..B30.2       # Prob 100%                     #92.5
                                # LOE rax
..B30.185:                      # Preds ..B30.93                # Infreq
        movl      $1140850688, %edi                             #125.13
        lea       (%rsp), %rsi                                  #125.13
..___tag_value__ZN8yaskSite5buildEv.1210:
#       MPI_Comm_rank(MPI_Comm, int *)
        call      MPI_Comm_rank@PLT                             #125.13
..___tag_value__ZN8yaskSite5buildEv.1211:
                                # LOE rbx eax
..B30.186:                      # Preds ..B30.185               # Infreq
        testl     %eax, %eax                                    #125.13
        je        ..B30.188     # Prob 50%                      #125.13
                                # LOE rbx
..B30.187:                      # Preds ..B30.186               # Infreq
        movl      $-1, (%rsp)                                   #125.13
        movq      stderr@GOTPCREL(%rip), %r12                   #125.13
        jmp       ..B30.189     # Prob 100%                     #125.13
                                # LOE rbx r12
..B30.188:                      # Preds ..B30.186               # Infreq
        cmpl      $0, (%rsp)                                    #125.13
        je        ..B30.191     # Prob 5%                       #125.13
                                # LOE rbx
..B30.244:                      # Preds ..B30.188               # Infreq
        movq      stderr@GOTPCREL(%rip), %r12                   #132.9
                                # LOE rbx r12
..B30.189:                      # Preds ..B30.193 ..B30.244 ..B30.187 # Infreq
        movl      $10, %edi                                     #125.13
        movq      (%r12), %rsi                                  #125.13
        call      fputc@PLT                                     #125.13
                                # LOE rbx r12
..B30.190:                      # Preds ..B30.189               # Infreq
        movq      (%r12), %rdi                                  #125.13
#       fflush(FILE *)
        call      fflush@PLT                                    #125.13
        jmp       ..B30.94      # Prob 100%                     #125.13
                                # LOE rbx
..B30.191:                      # Preds ..B30.188               # Infreq
        lea       .L_2__STRING.1(%rip), %rbp                    #125.13
        movl      $47, %eax                                     #125.13
        movq      %rbp, %rdx                                    #125.13
        movq      %rdx, %rcx                                    #125.13
        movd      %eax, %xmm1                                   #125.13
        andq      $-16, %rdx                                    #125.13
        punpcklbw %xmm1, %xmm1                                  #125.13
        andl      $15, %ecx                                     #125.13
        punpcklbw %xmm1, %xmm1                                  #125.13
        pshufd    $0, %xmm1, %xmm1                              #125.13
        pxor      %xmm0, %xmm0                                  #125.13
        movdqa    (%rdx), %xmm2                                 #125.13
        pcmpeqb   %xmm2, %xmm0                                  #125.13
        pmovmskb  %xmm0, %r10d                                  #125.13
        pcmpeqb   %xmm1, %xmm2                                  #125.13
        shrl      %cl, %r10d                                    #125.13
        lea       -1(%r10), %rax                                #125.13
        xorl      %eax, %r10d                                   #125.13
        pmovmskb  %xmm2, %eax                                   #125.13
        shrl      %cl, %eax                                     #125.13
        andl      %r10d, %eax                                   #125.13
        je        ..L1212       # Prob 60%                      #125.13
        bsr       %rax, %rax                                    #125.13
        addq      %rcx, %rax                                    #125.13
        addq      %rdx, %rax                                    #125.13
..L1212:                                                        #
        orl       %r10d, %r10d                                  #125.13
        jg        ..L1214       # Prob 60%                      #125.13
..L1213:                                                        #
        call      __intel_sse2_strrchr@PLT                      #125.13
..L1214:                                                        #
                                # LOE rax rbx rbp
..B30.242:                      # Preds ..B30.191               # Infreq
        movq      %rax, %r13                                    #125.13
        lea       1(%r13), %r14                                 #125.13
..___tag_value__ZN8yaskSite5buildEv.1215:
#       dlerror()
        call      dlerror@PLT                                   #125.13
..___tag_value__ZN8yaskSite5buildEv.1216:
                                # LOE rax rbx rbp r13 r14
..B30.192:                      # Preds ..B30.242               # Infreq
        addq      $-16, %rsp                                    #125.13
	.cfi_def_cfa_offset 128
        testq     %r13, %r13                                    #125.13
        movq      stderr@GOTPCREL(%rip), %r12                   #125.13
        lea       .L_2__STRING.25(%rip), %rsi                   #125.13
        cmove     %rbp, %r14                                    #125.13
        lea       __$U0(%rip), %rcx                             #125.13
        movq      %r14, %r8                                     #125.13
        movl      $125, %r9d                                    #125.13
        movq      %rax, (%rsp)                                  #125.13
        xorl      %eax, %eax                                    #125.13
        movl      16(%rsp), %edx                                #125.13
        movq      (%r12), %rdi                                  #125.13
#       fprintf(FILE *, const char *, ...)
        call      fprintf@PLT                                   #125.13
                                # LOE rbx r12
..B30.243:                      # Preds ..B30.192               # Infreq
        addq      $16, %rsp                                     #125.13
	.cfi_def_cfa_offset 112
                                # LOE rbx r12
..B30.193:                      # Preds ..B30.243               # Infreq
        movq      (%r12), %rdi                                  #125.13
#       fflush(FILE *)
        call      fflush@PLT                                    #125.13
        jmp       ..B30.189     # Prob 100%                     #125.13
                                # LOE rbx r12
..B30.245:                      # Preds ..B30.179               # Infreq
        movq      stderr@GOTPCREL(%rip), %rbp                   #132.9
        jmp       ..B30.182     # Prob 100%                     #132.9
                                # LOE rbp
..B30.246:                      # Preds ..B30.169               # Infreq
        movq      stderr@GOTPCREL(%rip), %rbp                   #132.9
        jmp       ..B30.172     # Prob 100%                     #132.9
                                # LOE rbp
..B30.247:                      # Preds ..B30.159               # Infreq
        movq      stderr@GOTPCREL(%rip), %rbp                   #132.9
        jmp       ..B30.162     # Prob 100%                     #132.9
                                # LOE rbp
..B30.248:                      # Preds ..B30.101               # Infreq
        movq      stderr@GOTPCREL(%rip), %r13                   #132.9
        jmp       ..B30.104     # Prob 100%                     #132.9
                                # LOE r12 r13
..B30.249:                      # Preds ..B30.71                # Infreq
        movq      stderr@GOTPCREL(%rip), %r12                   #132.9
        jmp       ..B30.74      # Prob 100%                     #132.9
                                # LOE rbx r12
..B30.250:                      # Preds ..B30.58                # Infreq
        movq      stderr@GOTPCREL(%rip), %r12                   #132.9
        jmp       ..B30.61      # Prob 100%                     #132.9
                                # LOE r12
..B30.251:                      # Preds ..B30.46                # Infreq
        movq      stderr@GOTPCREL(%rip), %r12                   #132.9
        jmp       ..B30.49      # Prob 100%                     #132.9
                                # LOE r12
..B30.252:                      # Preds ..B30.34                # Infreq
        movq      stderr@GOTPCREL(%rip), %r12                   #132.9
        jmp       ..B30.37      # Prob 100%                     #132.9
                                # LOE r12
..B30.253:                      # Preds ..B30.22                # Infreq
        movq      stderr@GOTPCREL(%rip), %r12                   #132.9
        jmp       ..B30.25      # Prob 100%                     #132.9
                                # LOE r12
..B30.254:                      # Preds ..B30.9                 # Infreq
        movq      stderr@GOTPCREL(%rip), %rbx                   #132.9
        jmp       ..B30.12      # Prob 100%                     #132.9
        .align    16,0x90
	.cfi_endproc
                                # LOE rbx rbp
# mark_end;
	.type	_ZN8yaskSite5buildEv,@function
	.size	_ZN8yaskSite5buildEv,.-_ZN8yaskSite5buildEv
	.data
	.space 1, 0x00 	# pad
	.align 4
.2.252_2_kmpc_loc_struct_pack.100:
	.long	0
	.long	2
	.long	0
	.long	0
	.quad	.2.252_2__kmpc_loc_pack.99
	.align 4
.2.252_2__kmpc_loc_pack.99:
	.byte	59
	.byte	117
	.byte	110
	.byte	107
	.byte	110
	.byte	111
	.byte	119
	.byte	110
	.byte	59
	.byte	98
	.byte	117
	.byte	105
	.byte	108
	.byte	100
	.byte	59
	.byte	49
	.byte	48
	.byte	56
	.byte	59
	.byte	49
	.byte	48
	.byte	56
	.byte	59
	.byte	59
	.align 4
.2.252_2_kmpc_loc_struct_pack.108:
	.long	0
	.long	2
	.long	0
	.long	0
	.quad	.2.252_2__kmpc_loc_pack.107
	.align 4
.2.252_2__kmpc_loc_pack.107:
	.byte	59
	.byte	117
	.byte	110
	.byte	107
	.byte	110
	.byte	111
	.byte	119
	.byte	110
	.byte	59
	.byte	98
	.byte	117
	.byte	105
	.byte	108
	.byte	100
	.byte	59
	.byte	49
	.byte	48
	.byte	56
	.byte	59
	.byte	49
	.byte	49
	.byte	54
	.byte	59
	.byte	59
	.align 4
.2.252_2_kmpc_loc_struct_pack.133:
	.long	0
	.long	2
	.long	0
	.long	0
	.quad	.2.252_2__kmpc_loc_pack.132
	.align 4
.2.252_2__kmpc_loc_pack.132:
	.byte	59
	.byte	117
	.byte	110
	.byte	107
	.byte	110
	.byte	111
	.byte	119
	.byte	110
	.byte	59
	.byte	98
	.byte	117
	.byte	105
	.byte	108
	.byte	100
	.byte	59
	.byte	49
	.byte	50
	.byte	48
	.byte	59
	.byte	49
	.byte	50
	.byte	56
	.byte	59
	.byte	59
	.section .rodata.str1.4, "aMS",@progbits,1
	.align 4
il0_peep_printf_format_7:
	.long	842226459
	.long	2105453
	.align 4
il0_peep_printf_format_8:
	.long	8426722
	.align 4
il0_peep_printf_format_9:
	.word	23560
	.byte	0
	.space 1, 0x00 	# pad
	.align 4
il0_peep_printf_format_10:
	.word	31752
	.byte	0
	.space 1, 0x00 	# pad
	.align 4
il0_peep_printf_format_11:
	.word	12040
	.byte	0
	.space 1, 0x00 	# pad
	.align 4
il0_peep_printf_format_12:
	.long	-2137726456
	.byte	0
	.space 3, 0x00 	# pad
	.align 4
il0_peep_printf_format_13:
	.long	-1818435064
	.long	1831885595
	.byte	0
	.space 3, 0x00 	# pad
	.align 4
il0_peep_printf_format_0:
	.long	842226459
	.long	2105453
	.align 4
il0_peep_printf_format_1:
	.long	8426722
	.align 4
il0_peep_printf_format_2:
	.word	23560
	.byte	0
	.space 1, 0x00 	# pad
	.align 4
il0_peep_printf_format_3:
	.word	31752
	.byte	0
	.space 1, 0x00 	# pad
	.align 4
il0_peep_printf_format_4:
	.word	12040
	.byte	0
	.space 1, 0x00 	# pad
	.align 4
il0_peep_printf_format_5:
	.long	-2137726456
	.byte	0
	.space 3, 0x00 	# pad
	.align 4
il0_peep_printf_format_6:
	.long	-1818435064
	.long	1831885595
	.byte	0
	.data
# -- End  _ZN8yaskSite5buildEv, L__ZN8yaskSite5buildEv_108__par_region0_2.18, L__ZN8yaskSite5buildEv_120__par_region1_2.19
	.text
# -- Begin  _ZN8yaskSite10systemCallEPc
	.text
# mark_begin;
       .align    16,0x90
	.globl _ZN8yaskSite10systemCallEPc
# --- yaskSite::systemCall(yaskSite *, char *)
_ZN8yaskSite10systemCallEPc:
# parameter 1: %rdi
# parameter 2: %rsi
..B31.1:                        # Preds ..B31.0

### {

	.cfi_startproc
	.cfi_personality 0x93,DW.ref.__gxx_personality_v0
..___tag_value__ZN8yaskSite10systemCallEPc.1220:
..L1221:
                                                       #74.1
        movq      %rdi, %rax                                    #74.1

###     systemCallUtil(cmd, sysLogFileName);

        movq      %rsi, %rdi                                    #75.5
        movq      48(%rax), %rsi                                #75.5
#       systemCallUtil(char *, char *)
        jmp       _Z14systemCallUtilPcS_@PLT                    #75.5
        .align    16,0x90
	.cfi_endproc
                                # LOE
# mark_end;
	.type	_ZN8yaskSite10systemCallEPc,@function
	.size	_ZN8yaskSite10systemCallEPc,.-_ZN8yaskSite10systemCallEPc
	.data
# -- End  _ZN8yaskSite10systemCallEPc
	.text
# -- Begin  _ZN8yaskSite10cleanBuildEv
	.text
# mark_begin;
       .align    16,0x90
	.globl _ZN8yaskSite10cleanBuildEv
# --- yaskSite::cleanBuild(yaskSite *)
_ZN8yaskSite10cleanBuildEv:
# parameter 1: %rdi
..B32.1:                        # Preds ..B32.0

### {

	.cfi_startproc
	.cfi_personality 0x93,DW.ref.__gxx_personality_v0
..___tag_value__ZN8yaskSite10cleanBuildEv.1223:
..L1224:
                                                       #173.1
        pushq     %r15                                          #173.1
	.cfi_def_cfa_offset 16
	.cfi_offset 15, -16
        subq      $32, %rsp                                     #173.1
	.cfi_def_cfa_offset 48
        movq      %rdi, %r15                                    #173.1

###     SYSTEM("make -C %s clean", yaskDir);

        lea       .L_2__STRING.35(%rip), %rsi                   #174.5
        lea       (%rsp), %rdi                                  #174.5
        xorl      %eax, %eax                                    #174.5
        movq      24(%r15), %rdx                                #174.5
..___tag_value__ZN8yaskSite10cleanBuildEv.1228:
#       asprintf(char **, const char *, ...)
        call      asprintf@PLT                                  #174.5
..___tag_value__ZN8yaskSite10cleanBuildEv.1229:
                                # LOE rbx rbp r12 r13 r14 r15
..B32.2:                        # Preds ..B32.1
        lea       .L_2__STRING.18(%rip), %rsi                   #174.5
        lea       8(%rsp), %rdi                                 #174.5
        lea       .L_2__STRING.17(%rip), %rcx                   #174.5
        xorl      %eax, %eax                                    #174.5
        movq      (%rsp), %rdx                                  #174.5
..___tag_value__ZN8yaskSite10cleanBuildEv.1230:
#       asprintf(char **, const char *, ...)
        call      asprintf@PLT                                  #174.5
..___tag_value__ZN8yaskSite10cleanBuildEv.1231:
                                # LOE rbx rbp r12 r13 r14 r15
..B32.3:                        # Preds ..B32.2
        movq      %r15, %rdi                                    #174.5
        movq      8(%rsp), %rsi                                 #174.5
..___tag_value__ZN8yaskSite10cleanBuildEv.1232:
#       yaskSite::systemCall(yaskSite *, char *)
        call      _ZN8yaskSite10systemCallEPc@PLT               #174.5
..___tag_value__ZN8yaskSite10cleanBuildEv.1233:
                                # LOE rbx rbp r12 r13 r14 r15
..B32.4:                        # Preds ..B32.3
        movq      (%rsp), %rdi                                  #174.5
#       free(void *)
        call      free@PLT                                      #174.5
                                # LOE rbx rbp r12 r13 r14 r15
..B32.5:                        # Preds ..B32.4
        movq      8(%rsp), %rdi                                 #174.5
#       free(void *)
        call      free@PLT                                      #174.5
                                # LOE rbx rbp r12 r13 r14 r15
..B32.6:                        # Preds ..B32.5

###     SYSTEM( "rm -f %s/cxx-flags.%s.%s.txt %s/ld-flags.%s.%s.txt %s/make-report.%s.%s.txt", yaskDir, stencil, arch, yaskDir, stencil, arch, yaskDir, stencil, arch);

        addq      $-48, %rsp                                    #175.5
	.cfi_def_cfa_offset 96
        lea       .L_2__STRING.36(%rip), %rsi                   #175.5
        movq      8(%r15), %rcx                                 #175.5
        lea       64(%rsp), %rdi                                #175.5
        movq      16(%r15), %r8                                 #175.5
        xorl      %eax, %eax                                    #175.5
        movq      24(%r15), %rdx                                #175.5
        movq      %rdx, %r9                                     #175.5
        movq      %rcx, (%rsp)                                  #175.5
        movq      %r8, 8(%rsp)                                  #175.5
        movq      %rdx, 16(%rsp)                                #175.5
        movq      %rcx, 24(%rsp)                                #175.5
        movq      %r8, 32(%rsp)                                 #175.5
..___tag_value__ZN8yaskSite10cleanBuildEv.1235:
#       asprintf(char **, const char *, ...)
        call      asprintf@PLT                                  #175.5
..___tag_value__ZN8yaskSite10cleanBuildEv.1236:
                                # LOE rbx rbp r12 r13 r14 r15
..B32.14:                       # Preds ..B32.6
        addq      $48, %rsp                                     #175.5
	.cfi_def_cfa_offset 48
                                # LOE rbx rbp r12 r13 r14 r15
..B32.7:                        # Preds ..B32.14
        lea       .L_2__STRING.18(%rip), %rsi                   #175.5
        lea       24(%rsp), %rdi                                #175.5
        lea       .L_2__STRING.17(%rip), %rcx                   #175.5
        xorl      %eax, %eax                                    #175.5
        movq      -8(%rdi), %rdx                                #175.5
..___tag_value__ZN8yaskSite10cleanBuildEv.1238:
#       asprintf(char **, const char *, ...)
        call      asprintf@PLT                                  #175.5
..___tag_value__ZN8yaskSite10cleanBuildEv.1239:
                                # LOE rbx rbp r12 r13 r14 r15
..B32.8:                        # Preds ..B32.7
        movq      %r15, %rdi                                    #175.5
        movq      24(%rsp), %rsi                                #175.5
..___tag_value__ZN8yaskSite10cleanBuildEv.1240:
#       yaskSite::systemCall(yaskSite *, char *)
        call      _ZN8yaskSite10systemCallEPc@PLT               #175.5
..___tag_value__ZN8yaskSite10cleanBuildEv.1241:
                                # LOE rbx rbp r12 r13 r14
..B32.9:                        # Preds ..B32.8
        movq      16(%rsp), %rdi                                #175.5
#       free(void *)
        call      free@PLT                                      #175.5
                                # LOE rbx rbp r12 r13 r14
..B32.10:                       # Preds ..B32.9
        movq      24(%rsp), %rdi                                #175.5
#       free(void *)
        call      free@PLT                                      #175.5
                                # LOE rbx rbp r12 r13 r14
..B32.11:                       # Preds ..B32.10

### }

        addq      $32, %rsp                                     #176.1
	.cfi_def_cfa_offset 16
	.cfi_restore 15
        popq      %r15                                          #176.1
	.cfi_def_cfa_offset 8
        ret                                                     #176.1
        .align    16,0x90
	.cfi_endproc
                                # LOE
# mark_end;
	.type	_ZN8yaskSite10cleanBuildEv,@function
	.size	_ZN8yaskSite10cleanBuildEv,.-_ZN8yaskSite10cleanBuildEv
	.data
# -- End  _ZN8yaskSite10cleanBuildEv
	.text
# -- Begin  _ZN8yaskSite4initEv
	.text
# mark_begin;
       .align    16,0x90
	.globl _ZN8yaskSite4initEv
# --- yaskSite::init(yaskSite *)
_ZN8yaskSite4initEv:
# parameter 1: %rdi
..B33.1:                        # Preds ..B33.0

### {

	.cfi_startproc
	.cfi_personality 0x93,DW.ref.__gxx_personality_v0
..___tag_value__ZN8yaskSite4initEv.1246:
..L1247:
                                                       #604.1
        pushq     %rbx                                          #604.1
	.cfi_def_cfa_offset 16
	.cfi_offset 3, -16
        pushq     %rbp                                          #604.1
	.cfi_def_cfa_offset 24
	.cfi_offset 6, -24
        pushq     %rsi                                          #604.1
	.cfi_def_cfa_offset 32
        movq      %rdi, %rbx                                    #604.1

###     if(needUpdate())

..___tag_value__ZN8yaskSite4initEv.1253:
#       yaskSite::needUpdate(yaskSite *)
        call      _ZN8yaskSite10needUpdateEv@PLT                #605.8
..___tag_value__ZN8yaskSite4initEv.1254:
                                # LOE rbx r12 r13 r14 r15 eax
..B33.2:                        # Preds ..B33.1
        testb     %al, %al                                      #605.8
        je        ..B33.8       # Prob 50%                      #605.8
                                # LOE rbx r12 r13 r14 r15
..B33.3:                        # Preds ..B33.2

###     {
###         if(!stencilReady)

        cmpb      $0, 160(%rbx)                                 #607.13
        jne       ..B33.5       # Prob 78%                      #607.13
                                # LOE rbx r12 r13 r14 r15
..B33.4:                        # Preds ..B33.3

###         {
###             build();

        movq      %rbx, %rdi                                    #609.13
..___tag_value__ZN8yaskSite4initEv.1255:
#       yaskSite::build(yaskSite *)
        call      _ZN8yaskSite5buildEv@PLT                      #609.13
..___tag_value__ZN8yaskSite4initEv.1256:
                                # LOE rbx r12 r13 r14 r15
..B33.5:                        # Preds ..B33.4 ..B33.3

###         }
### 
###         if(dynInit(this)<0)

        movq      %rbx, %rdi                                    #612.12
..___tag_value__ZN8yaskSite4initEv.1257:
        call      *176(%rbx)                                    #612.12
..___tag_value__ZN8yaskSite4initEv.1258:
                                # LOE rbx r12 r13 r14 r15 eax
..B33.6:                        # Preds ..B33.5
        testl     %eax, %eax                                    #612.26
        jl        ..B33.9       # Prob 16%                      #612.26
                                # LOE rbx r12 r13 r14 r15
..B33.7:                        # Preds ..B33.16 ..B33.6

###         {
###             ERROR_PRINT("Stencil is not generated");
###         }
### 
###         //set back all to false
###         assignUpdate(false);

        movq      %rbx, %rdi                                    #618.9
        xorl      %esi, %esi                                    #618.9
..___tag_value__ZN8yaskSite4initEv.1259:
#       yaskSite::assignUpdate(yaskSite *, bool)
        call      _ZN8yaskSite12assignUpdateEb@PLT              #618.9
..___tag_value__ZN8yaskSite4initEv.1260:
                                # LOE r12 r13 r14 r15
..B33.8:                        # Preds ..B33.7 ..B33.2

###     }
### }

        popq      %rcx                                          #620.1
	.cfi_def_cfa_offset 24
	.cfi_restore 6
        popq      %rbp                                          #620.1
	.cfi_def_cfa_offset 16
	.cfi_restore 3
        popq      %rbx                                          #620.1
	.cfi_def_cfa_offset 8
        ret                                                     #620.1
	.cfi_def_cfa_offset 32
	.cfi_offset 3, -16
	.cfi_offset 6, -24
                                # LOE
..B33.9:                        # Preds ..B33.6                 # Infreq
        movl      $1140850688, %edi                             #614.13
        lea       (%rsp), %rsi                                  #614.13
..___tag_value__ZN8yaskSite4initEv.1269:
#       MPI_Comm_rank(MPI_Comm, int *)
        call      MPI_Comm_rank@PLT                             #614.13
..___tag_value__ZN8yaskSite4initEv.1270:
                                # LOE rbx r12 r13 r14 r15 eax
..B33.10:                       # Preds ..B33.9                 # Infreq
        testl     %eax, %eax                                    #614.13
        je        ..B33.12      # Prob 50%                      #614.13
                                # LOE rbx r12 r13 r14 r15
..B33.11:                       # Preds ..B33.10                # Infreq
        movl      $-1, (%rsp)                                   #614.13
        movq      stderr@GOTPCREL(%rip), %rbp                   #614.13
        jmp       ..B33.15      # Prob 100%                     #614.13
                                # LOE rbx rbp r12 r13 r14 r15
..B33.12:                       # Preds ..B33.10                # Infreq
        movl      (%rsp), %r9d                                  #614.13
        testl     %r9d, %r9d                                    #614.13
        jne       ..B33.23      # Prob 50%                      #614.13
                                # LOE rbx r12 r13 r14 r15 r9d
..B33.13:                       # Preds ..B33.12                # Infreq
        lea       .L_2__STRING.1(%rip), %rsi                    #614.13
        movl      $47, %eax                                     #614.13
        movq      %rsi, %rdx                                    #614.13
        movq      %rdx, %rcx                                    #614.13
        movd      %eax, %xmm1                                   #614.13
        andq      $-16, %rdx                                    #614.13
        punpcklbw %xmm1, %xmm1                                  #614.13
        andl      $15, %ecx                                     #614.13
        punpcklbw %xmm1, %xmm1                                  #614.13
        pshufd    $0, %xmm1, %xmm1                              #614.13
        pxor      %xmm0, %xmm0                                  #614.13
        movdqa    (%rdx), %xmm2                                 #614.13
        pcmpeqb   %xmm2, %xmm0                                  #614.13
        pmovmskb  %xmm0, %r10d                                  #614.13
        pcmpeqb   %xmm1, %xmm2                                  #614.13
        shrl      %cl, %r10d                                    #614.13
        lea       -1(%r10), %rax                                #614.13
        xorl      %eax, %r10d                                   #614.13
        pmovmskb  %xmm2, %eax                                   #614.13
        shrl      %cl, %eax                                     #614.13
        andl      %r10d, %eax                                   #614.13
        je        ..L1271       # Prob 60%                      #614.13
        bsr       %rax, %rax                                    #614.13
        addq      %rcx, %rax                                    #614.13
        addq      %rdx, %rax                                    #614.13
..L1271:                                                        #
        orl       %r10d, %r10d                                  #614.13
        jg        ..L1273       # Prob 60%                      #614.13
..L1272:                                                        #
        call      __intel_sse2_strrchr@PLT                      #614.13
..L1273:                                                        #
                                # LOE rax rbx rsi r12 r13 r14 r15 r9d
..B33.22:                       # Preds ..B33.13                # Infreq
        movq      stderr@GOTPCREL(%rip), %rbp                   #614.13
        testq     %rax, %rax                                    #614.13
        movl      %r9d, %edx                                    #614.13
        lea       1(%rax), %r8                                  #614.13
        cmove     %rsi, %r8                                     #614.13
        lea       .L_2__STRING.46(%rip), %rsi                   #614.13
        lea       __$U8(%rip), %rcx                             #614.13
        movl      $614, %r9d                                    #614.13
        xorl      %eax, %eax                                    #614.13
        movq      (%rbp), %rdi                                  #614.13
#       fprintf(FILE *, const char *, ...)
        call      fprintf@PLT                                   #614.13
                                # LOE rbx rbp r12 r13 r14 r15
..B33.14:                       # Preds ..B33.22                # Infreq
        movq      (%rbp), %rdi                                  #614.13
#       fflush(FILE *)
        call      fflush@PLT                                    #614.13
                                # LOE rbx rbp r12 r13 r14 r15
..B33.15:                       # Preds ..B33.11 ..B33.14 ..B33.23 # Infreq
        movl      $10, %edi                                     #614.13
        movq      (%rbp), %rsi                                  #614.13
        call      fputc@PLT                                     #614.13
                                # LOE rbx rbp r12 r13 r14 r15
..B33.16:                       # Preds ..B33.15                # Infreq
        movq      (%rbp), %rdi                                  #614.13
#       fflush(FILE *)
        call      fflush@PLT                                    #614.13
        jmp       ..B33.7       # Prob 100%                     #614.13
                                # LOE rbx r12 r13 r14 r15
..B33.23:                       # Preds ..B33.12                # Infreq
        movq      stderr@GOTPCREL(%rip), %rbp                   #614.13
        jmp       ..B33.15      # Prob 100%                     #614.13
        .align    16,0x90
	.cfi_endproc
                                # LOE rbx rbp r12 r13 r14 r15
# mark_end;
	.type	_ZN8yaskSite4initEv,@function
	.size	_ZN8yaskSite4initEv,.-_ZN8yaskSite4initEv
	.data
# -- End  _ZN8yaskSite4initEv
	.text
# -- Begin  _ZN8yaskSite18setDefaultSubBlockEv
	.text
# mark_begin;
       .align    16,0x90
	.globl _ZN8yaskSite18setDefaultSubBlockEv
# --- yaskSite::setDefaultSubBlock(yaskSite *)
_ZN8yaskSite18setDefaultSubBlockEv:
# parameter 1: %rdi
..B34.1:                        # Preds ..B34.0

### {

	.cfi_startproc
	.cfi_personality 0x93,DW.ref.__gxx_personality_v0
..___tag_value__ZN8yaskSite18setDefaultSubBlockEv.1275:
..L1276:
                                                       #310.1

###     subBlockUpdated = true;
###     if(dim==1)

        movl      140(%rdi), %eax                               #312.8
        cmpl      $1, %eax                                      #312.8
        movb      $1, 161(%rdi)                                 #311.5
        je        ..B34.6       # Prob 25%                      #312.8
                                # LOE rbx rbp rdi r12 r13 r14 r15 eax
..B34.2:                        # Preds ..B34.1
        cmpl      $2, %eax                                      #312.8
        jne       ..B34.4       # Prob 66%                      #312.8
                                # LOE rbx rbp rdi r12 r13 r14 r15 eax
..B34.3:                        # Preds ..B34.2

###     {
###         sbx = 1;
###         sby = 1;
###         sbz = static_cast<int>(round(bz/((double)threadPerBlock)));
###     }
###     else if(dim==2)
###     {
###         //Similar to OMP on outer-most loop
###         //TODO inner shouldn't in priciple hurt in yask if loop size is big
###         //enough;
###         sbx = 1;
###         sby = static_cast<int>(round(by/((double)threadPerBlock)));

        pxor      %xmm2, %xmm2                                  #324.32
        pxor      %xmm0, %xmm0                                  #324.32
        cvtsi2sd  92(%rdi), %xmm2                               #324.32
        cvtsi2sd  60(%rdi), %xmm0                               #324.32
        divsd     %xmm0, %xmm2                                  #324.32
        pxor      %xmm1, %xmm1                                  #324.32
        comisd    %xmm1, %xmm2                                  #324.32
        movsd     .L_2il0floatpacket.12(%rip), %xmm3            #324.32
        jae       ..L1277       # Prob 50%                      #324.32
        movsd     .L_2il0floatpacket.13(%rip), %xmm3            #324.32
..L1277:                                                        #

###         sbz = bz;

        movl      96(%rdi), %edx                                #325.15
        addsd     %xmm2, %xmm3                                  #324.32
        cvttsd2si %xmm3, %eax                                   #324.32
        movl      $1, 76(%rdi)                                  #323.9
        movl      %eax, 80(%rdi)                                #324.9
        movl      %edx, 84(%rdi)                                #325.9
        ret                                                     #325.9
                                # LOE rbx rbp r12 r13 r14 r15
..B34.4:                        # Preds ..B34.2
        cmpl      $3, %eax                                      #312.8
        jne       ..B34.7       # Prob 50%                      #312.8
                                # LOE rbx rbp rdi r12 r13 r14 r15
..B34.5:                        # Preds ..B34.4

###     }
###     else if(dim==3)
###     {
###         //Loop to parallelise can be selected by benchmarks, may be hybrid is
###         //good in this case but I wouldn't do this here,
###         //To get good values there are 2 options:
###         //1. use loopTuner(TODO)
###         //2. manually set Block and subBlock
###         //default outer loop will be parallelised
###         sbx = static_cast<int>(round(bx/((double)threadPerBlock)));

        pxor      %xmm2, %xmm2                                  #335.32
        pxor      %xmm0, %xmm0                                  #335.32
        cvtsi2sd  88(%rdi), %xmm2                               #335.32
        cvtsi2sd  60(%rdi), %xmm0                               #335.32
        divsd     %xmm0, %xmm2                                  #335.32
        pxor      %xmm1, %xmm1                                  #335.32
        comisd    %xmm1, %xmm2                                  #335.32
        movsd     .L_2il0floatpacket.12(%rip), %xmm3            #335.32
        jae       ..L1278       # Prob 50%                      #335.32
        movsd     .L_2il0floatpacket.13(%rip), %xmm3            #335.32
..L1278:                                                        #

###         sby = by;

        movl      92(%rdi), %edx                                #336.15
        addsd     %xmm2, %xmm3                                  #335.32
        cvttsd2si %xmm3, %eax                                   #335.32

###         sbz = bz;

        movl      96(%rdi), %ecx                                #337.15
        movl      %eax, 76(%rdi)                                #335.9
        movl      %edx, 80(%rdi)                                #336.9
        movl      %ecx, 84(%rdi)                                #337.9
        ret                                                     #337.9
                                # LOE rbx rbp r12 r13 r14 r15
..B34.6:                        # Preds ..B34.1
        pxor      %xmm2, %xmm2                                  #316.32
        pxor      %xmm0, %xmm0                                  #316.32
        cvtsi2sd  96(%rdi), %xmm2                               #316.32
        cvtsi2sd  60(%rdi), %xmm0                               #316.32
        divsd     %xmm0, %xmm2                                  #316.32
        pxor      %xmm1, %xmm1                                  #316.32
        movl      $1, %eax                                      #314.9
        comisd    %xmm1, %xmm2                                  #316.32
        movsd     .L_2il0floatpacket.12(%rip), %xmm3            #316.32
        jae       ..L1279       # Prob 50%                      #316.32
        movsd     .L_2il0floatpacket.13(%rip), %xmm3            #316.32
..L1279:                                                        #
        movl      %eax, 76(%rdi)                                #314.9
        addsd     %xmm2, %xmm3                                  #316.32
        cvttsd2si %xmm3, %edx                                   #316.32
        movl      %eax, 80(%rdi)                                #315.9
        movl      %edx, 84(%rdi)                                #316.9
                                # LOE rbx rbp r12 r13 r14 r15
..B34.7:                        # Preds ..B34.4 ..B34.6

###     }
### }

        ret                                                     #339.1
        .align    16,0x90
	.cfi_endproc
                                # LOE
# mark_end;
	.type	_ZN8yaskSite18setDefaultSubBlockEv,@function
	.size	_ZN8yaskSite18setDefaultSubBlockEv,.-_ZN8yaskSite18setDefaultSubBlockEv
	.data
# -- End  _ZN8yaskSite18setDefaultSubBlockEv
	.text
# -- Begin  _ZN8yaskSite15setDefaultBlockEv
	.text
# mark_begin;
       .align    16,0x90
	.globl _ZN8yaskSite15setDefaultBlockEv
# --- yaskSite::setDefaultBlock(yaskSite *)
_ZN8yaskSite15setDefaultBlockEv:
# parameter 1: %rdi
..B35.1:                        # Preds ..B35.0

### {

	.cfi_startproc
	.cfi_personality 0x93,DW.ref.__gxx_personality_v0
..___tag_value__ZN8yaskSite15setDefaultBlockEv.1281:
..L1282:
                                                       #277.1

###     blockUpdated = true;
###     if(dim==1)

        movl      140(%rdi), %eax                               #279.8
        cmpl      $1, %eax                                      #279.8
        movb      $1, 162(%rdi)                                 #278.5
        je        ..B35.6       # Prob 25%                      #279.8
                                # LOE rbx rbp rdi r12 r13 r14 r15 eax
..B35.2:                        # Preds ..B35.1
        cmpl      $2, %eax                                      #279.8
        jne       ..B35.4       # Prob 66%                      #279.8
                                # LOE rbx rbp rdi r12 r13 r14 r15 eax
..B35.3:                        # Preds ..B35.2

###     {
###         bx = 1;
###         by = 1;
###         bz = static_cast<int>(round(threadPerBlock*rz/((double)nthreads)));
###     }
###     else if(dim==2)
###     {
###         bx = 1;
###         //Similar to OMP on outer-most loop
###         //TODO inner shouldn't in priciple hurt in yask if loop size is big
###         //enough
###         by = static_cast<int>(round(threadPerBlock*ry/((double)nthreads)));

        movl      60(%rdi), %eax                                #291.31
        pxor      %xmm2, %xmm2                                  #291.31
        imull     108(%rdi), %eax                               #291.31
        pxor      %xmm0, %xmm0                                  #291.31
        movsd     .L_2il0floatpacket.12(%rip), %xmm3            #291.31
        pxor      %xmm1, %xmm1                                  #291.31
        cvtsi2sd  56(%rdi), %xmm0                               #291.31
        cvtsi2sd  %eax, %xmm2                                   #291.31
        divsd     %xmm0, %xmm2                                  #291.31
        comisd    %xmm1, %xmm2                                  #291.31

###         bz = rz;

        movl      112(%rdi), %ecx                               #292.14
        jae       ..L1283       # Prob 50%                      #291.31
        movsd     .L_2il0floatpacket.13(%rip), %xmm3            #291.31
..L1283:                                                        #
        movl      $1, 88(%rdi)                                  #287.9
        addsd     %xmm2, %xmm3                                  #291.31
        cvttsd2si %xmm3, %edx                                   #291.31
        movl      %edx, 92(%rdi)                                #291.9
        movl      %ecx, 96(%rdi)                                #292.9
        ret                                                     #292.9
                                # LOE rbx rbp r12 r13 r14 r15
..B35.4:                        # Preds ..B35.2
        cmpl      $3, %eax                                      #279.8
        jne       ..B35.7       # Prob 50%                      #279.8
                                # LOE rbx rbp rdi r12 r13 r14 r15
..B35.5:                        # Preds ..B35.4

###     }
###     else if(dim==3)
###     {
###         //Loop to parallelise can be selected by benchmarks, may be hybrid is
###         //good in this case but I wouldn't do this here,
###         //To get good values there are 2 options:
###         //1. use loopTuner
###         //2. manually set Block and subBlock
###         //default outer loop will be parallelised
###         bx = static_cast<int>(round(threadPerBlock*rx/((double)nthreads)));

        movl      60(%rdi), %eax                                #302.31
        pxor      %xmm2, %xmm2                                  #302.31
        imull     104(%rdi), %eax                               #302.31
        pxor      %xmm0, %xmm0                                  #302.31
        movsd     .L_2il0floatpacket.12(%rip), %xmm3            #302.31
        pxor      %xmm1, %xmm1                                  #302.31
        cvtsi2sd  56(%rdi), %xmm0                               #302.31
        cvtsi2sd  %eax, %xmm2                                   #302.31
        divsd     %xmm0, %xmm2                                  #302.31
        comisd    %xmm1, %xmm2                                  #302.31

###         by = ry;

        movl      108(%rdi), %ecx                               #303.14
        jae       ..L1284       # Prob 50%                      #302.31
        movsd     .L_2il0floatpacket.13(%rip), %xmm3            #302.31
..L1284:                                                        #

###         bz = rz;

        movl      112(%rdi), %esi                               #304.14
        addsd     %xmm2, %xmm3                                  #302.31
        cvttsd2si %xmm3, %edx                                   #302.31
        movl      %edx, 88(%rdi)                                #302.9
        movl      %ecx, 92(%rdi)                                #303.9
        movl      %esi, 96(%rdi)                                #304.9
        ret                                                     #304.9
                                # LOE rbx rbp r12 r13 r14 r15
..B35.6:                        # Preds ..B35.1
        movl      60(%rdi), %edx                                #283.31
        pxor      %xmm2, %xmm2                                  #283.31
        imull     112(%rdi), %edx                               #283.31
        pxor      %xmm0, %xmm0                                  #283.31
        movsd     .L_2il0floatpacket.12(%rip), %xmm3            #283.31
        pxor      %xmm1, %xmm1                                  #283.31
        cvtsi2sd  56(%rdi), %xmm0                               #283.31
        cvtsi2sd  %edx, %xmm2                                   #283.31
        divsd     %xmm0, %xmm2                                  #283.31
        comisd    %xmm1, %xmm2                                  #283.31
        jae       ..L1285       # Prob 50%                      #283.31
        movsd     .L_2il0floatpacket.13(%rip), %xmm3            #283.31
..L1285:                                                        #
        movl      $1, %eax                                      #283.31
        movl      %eax, 88(%rdi)                                #281.9
        addsd     %xmm2, %xmm3                                  #283.31
        cvttsd2si %xmm3, %ecx                                   #283.31
        movl      %eax, 92(%rdi)                                #282.9
        movl      %ecx, 96(%rdi)                                #283.9
                                # LOE rbx rbp r12 r13 r14 r15
..B35.7:                        # Preds ..B35.4 ..B35.6

###     }
### }

        ret                                                     #306.1
        .align    16,0x90
	.cfi_endproc
                                # LOE
# mark_end;
	.type	_ZN8yaskSite15setDefaultBlockEv,@function
	.size	_ZN8yaskSite15setDefaultBlockEv,.-_ZN8yaskSite15setDefaultBlockEv
	.data
# -- End  _ZN8yaskSite15setDefaultBlockEv
	.text
# -- Begin  _ZN8yaskSite16setDefaultRegionEv
	.text
# mark_begin;
       .align    16,0x90
	.globl _ZN8yaskSite16setDefaultRegionEv
# --- yaskSite::setDefaultRegion(yaskSite *)
_ZN8yaskSite16setDefaultRegionEv:
# parameter 1: %rdi
..B36.1:                        # Preds ..B36.0

### {

	.cfi_startproc
	.cfi_personality 0x93,DW.ref.__gxx_personality_v0
..___tag_value__ZN8yaskSite16setDefaultRegionEv.1287:
..L1288:
                                                       #251.1

###     regionUpdated = true;
### 
###     rt = dt;

        movl      116(%rdi), %eax                               #254.10
        movl      %eax, 100(%rdi)                               #254.5

###     if(dim==1)

        movl      140(%rdi), %eax                               #255.8
        cmpl      $1, %eax                                      #255.8
        movb      $1, 163(%rdi)                                 #252.5
        jne       ..B36.3       # Prob 66%                      #255.8
                                # LOE rbx rbp rdi r12 r13 r14 r15 eax
..B36.2:                        # Preds ..B36.1

###     {
###         rx = 1;
###         ry = 1;
###         rz = dz;

        movl      128(%rdi), %edx                               #259.14
        movl      $1, %eax                                      #257.9
        movl      %eax, 104(%rdi)                               #257.9
        movl      %eax, 108(%rdi)                               #258.9
        movl      %edx, 112(%rdi)                               #259.9
        ret                                                     #259.9
                                # LOE rbx rbp r12 r13 r14 r15
..B36.3:                        # Preds ..B36.1
        cmpl      $2, %eax                                      #255.8
        jne       ..B36.5       # Prob 50%                      #255.8
                                # LOE rbx rbp rdi r12 r13 r14 r15
..B36.4:                        # Preds ..B36.3

###     }
###     else if(dim==2)
###     {
###         rx = 1;
###         ry = dy;

        movl      124(%rdi), %eax                               #264.14

###         rz = dz;

        movl      128(%rdi), %edx                               #265.14
        movl      $1, 104(%rdi)                                 #263.9
        movl      %eax, 108(%rdi)                               #264.9
        movl      %edx, 112(%rdi)                               #265.9
        ret                                                     #265.9
                                # LOE rbx rbp r12 r13 r14 r15
..B36.5:                        # Preds ..B36.3

###     }
###     else
###     {
###         rx = dx;

        movl      120(%rdi), %eax                               #269.14

###         ry = dy;

        movl      124(%rdi), %edx                               #270.14

###         rz = dz;

        movl      128(%rdi), %ecx                               #271.14
        movl      %eax, 104(%rdi)                               #269.9
        movl      %edx, 108(%rdi)                               #270.9
        movl      %ecx, 112(%rdi)                               #271.9
                                # LOE rbx rbp r12 r13 r14 r15
..B36.6:                        # Preds ..B36.5

###     }
### }

        ret                                                     #273.1
        .align    16,0x90
	.cfi_endproc
                                # LOE
# mark_end;
	.type	_ZN8yaskSite16setDefaultRegionEv,@function
	.size	_ZN8yaskSite16setDefaultRegionEv,.-_ZN8yaskSite16setDefaultRegionEv
	.data
# -- End  _ZN8yaskSite16setDefaultRegionEv
	.bss
	.align 8
L1:
	.type	L1,@object
	.size	L1,32
	.space 32	# pad
	.align 8
L2:
	.type	L2,@object
	.size	L2,32
	.space 32	# pad
	.align 8
L3:
	.type	L3,@object
	.size	L3,32
	.space 32	# pad
	.align 4
___kmpv_zero_ZN8yaskSite12transferDataEPS_Pc_0:
	.type	___kmpv_zero_ZN8yaskSite12transferDataEPS_Pc_0,@object
	.size	___kmpv_zero_ZN8yaskSite12transferDataEPS_Pc_0,4
	.space 4	# pad
	.align 4
___kmpv_zero_ZN8yaskSite5buildEv_0:
	.type	___kmpv_zero_ZN8yaskSite5buildEv_0,@object
	.size	___kmpv_zero_ZN8yaskSite5buildEv_0,4
	.space 4	# pad
	.align 4
___kmpv_zero_ZN8yaskSite5buildEv_1:
	.type	___kmpv_zero_ZN8yaskSite5buildEv_1,@object
	.size	___kmpv_zero_ZN8yaskSite5buildEv_1,4
	.space 4	# pad
	.section .rodata, "a"
	.align 16
.L_2__cnst_pck.9:
	.long	-1
	.long	-1
	.long	-1
	.long	-1
	.long	-1
	.long	-1
	.long	-1
	.long	-1
	.long	-1
	.long	-1
	.long	-1
	.long	-1
	.long	-1
	.long	-1
	.long	0
	.long	1
	.type	.L_2__cnst_pck.9,@object
	.size	.L_2__cnst_pck.9,64
	.align 8
.L_2il0floatpacket.10:
	.long	0x00000000,0x40000000
	.type	.L_2il0floatpacket.10,@object
	.size	.L_2il0floatpacket.10,8
	.align 8
.L_2il0floatpacket.11:
	.long	0x00000000,0x403e0000
	.type	.L_2il0floatpacket.11,@object
	.size	.L_2il0floatpacket.11,8
	.align 8
.L_2il0floatpacket.12:
	.long	0x00000000,0x3fe00000
	.type	.L_2il0floatpacket.12,@object
	.size	.L_2il0floatpacket.12,8
	.align 8
.L_2il0floatpacket.13:
	.long	0x00000000,0xbfe00000
	.type	.L_2il0floatpacket.13,@object
	.size	.L_2il0floatpacket.13,8
	.align 8
.L_2il0floatpacket.14:
	.long	0x00000000,0x3f800000
	.type	.L_2il0floatpacket.14,@object
	.size	.L_2il0floatpacket.14,8
	.align 8
.L_2il0floatpacket.15:
	.long	0x00000000,0x40100000
	.type	.L_2il0floatpacket.15,@object
	.size	.L_2il0floatpacket.15,8
	.align 8
.L_2il0floatpacket.16:
	.long	0x00000000,0x3ff00000
	.type	.L_2il0floatpacket.16,@object
	.size	.L_2il0floatpacket.16,8
	.align 1
__$U1:
	.long	1935767934
	.long	1953059691
	.word	101
	.type	__$U1,@object
	.size	__$U1,10
	.align 1
__$U2:
	.long	1400137075
	.long	1816289909
	.long	7037807
	.type	__$U2,@object
	.size	__$U2,12
	.align 1
__$U3:
	.long	1114924403
	.long	1801678700
	.byte	0
	.type	__$U3,@object
	.size	__$U3,9
	.align 1
__$U4:
	.long	1383359859
	.long	1869178725
	.word	110
	.type	__$U4,@object
	.size	__$U4,10
	.align 1
__$U5:
	.long	1148478835
	.word	28009
	.byte	0
	.type	__$U5,@object
	.size	__$U5,7
	.align 1
__$U7:
	.long	1886217588
	.long	1818325615
	.long	1701737812
	.word	114
	.type	__$U7,@object
	.size	__$U7,14
	.align 1
__$U6:
	.long	1952542835
	.long	1416388969
	.long	1919250037
	.byte	0
	.type	__$U6,@object
	.size	__$U6,13
	.align 1
__$U9:
	.long	7239026
	.type	__$U9,@object
	.size	__$U9,4
	.align 1
__$Ua:
	.long	1333028199
	.long	1970304117
	.word	116
	.type	__$Ua,@object
	.size	__$Ua,10
	.align 1
__$Ub:
	.long	1232364915
	.long	1953853550
	.byte	0
	.type	__$Ub,@object
	.size	__$Ub,9
	.align 1
__$Uc:
	.long	1851880052
	.long	1919247987
	.long	1635017028
	.byte	0
	.type	__$Uc,@object
	.size	__$Uc,13
	.align 1
__$U0:
	.long	1818850658
	.word	100
	.type	__$U0,@object
	.size	__$U0,6
	.align 1
__$U8:
	.long	1953066601
	.byte	0
	.type	__$U8,@object
	.size	__$U8,5
	.section .rodata.str1.4, "aMS",@progbits,1
	.space 3, 0x00 	# pad
	.align 4
.L_2__STRING.37:
	.long	6452841
	.type	.L_2__STRING.37,@object
	.size	.L_2__STRING.37,4
	.align 4
.L_2__STRING.38:
	.long	1836017711
	.long	1885876069
	.long	1853173603
	.long	1966045810
	.long	813331054
	.long	795357744
	.long	1802723705
	.byte	0
	.type	.L_2__STRING.38,@object
	.size	.L_2__STRING.38,29
	.space 3, 0x00 	# pad
	.align 4
.L_2__STRING.8:
	.byte	0
	.type	.L_2__STRING.8,@object
	.size	.L_2__STRING.8,1
	.space 3, 0x00 	# pad
	.align 4
.L_2__STRING.7:
	.long	1634100580
	.long	7629941
	.type	.L_2__STRING.7,@object
	.size	.L_2__STRING.7,8
	.align 4
.L_2__STRING.41:
	.long	1766616942
	.long	1684633451
	.byte	0
	.type	.L_2__STRING.41,@object
	.size	.L_2__STRING.41,9
	.space 3, 0x00 	# pad
	.align 4
.L_2__STRING.40:
	.long	2003528044
	.word	25705
	.byte	0
	.type	.L_2__STRING.40,@object
	.size	.L_2__STRING.40,7
	.space 1, 0x00 	# pad
	.align 4
.L_2__STRING.39:
	.long	623866661
	.long	1931829107
	.long	1600398687
	.long	627008549
	.long	1931829092
	.long	7546207
	.type	.L_2__STRING.39,@object
	.size	.L_2__STRING.39,24
	.align 4
.L_2__STRING.42:
	.long	1768188781
	.long	1882005618
	.long	796075296
	.long	7235938
	.type	.L_2__STRING.42,@object
	.size	.L_2__STRING.42,16
	.align 4
.L_2__STRING.18:
	.long	1931834149
	.byte	0
	.type	.L_2__STRING.18,@object
	.size	.L_2__STRING.18,5
	.space 3, 0x00 	# pad
	.align 4
.L_2__STRING.17:
	.long	540943904
	.long	1986356271
	.long	1819635247
	.long	1043472492
	.word	12582
	.byte	0
	.type	.L_2__STRING.17,@object
	.size	.L_2__STRING.17,19
	.space 1, 0x00 	# pad
	.align 4
.L_2__STRING.43:
	.long	1932489509
	.long	1631810425
	.long	1867279468
	.long	1869360743
	.word	103
	.type	.L_2__STRING.43,@object
	.size	.L_2__STRING.43,18
	.space 2, 0x00 	# pad
	.align 4
.L_2__STRING.44:
	.long	622882915
	.long	1768042355
	.long	1635331950
	.long	1932422003
	.long	1931812968
	.long	1852400175
	.word	11823
	.byte	0
	.type	.L_2__STRING.44,@object
	.size	.L_2__STRING.44,27
	.space 1, 0x00 	# pad
	.align 4
.L_2__STRING.45:
	.long	1852142707
	.long	1600940387
	.long	627012389
	.long	1680170867
	.long	1600398687
	.long	627008549
	.word	115
	.type	.L_2__STRING.45,@object
	.size	.L_2__STRING.45,26
	.space 2, 0x00 	# pad
	.align 4
.L_2__STRING.1:
	.long	1836017711
	.long	1885876069
	.long	1853173603
	.long	1966045810
	.long	813331054
	.long	795357744
	.long	1802723705
	.long	1935767855
	.long	1953059691
	.long	1920151397
	.long	1635331939
	.long	1767074675
	.long	1663985012
	.word	28784
	.byte	0
	.type	.L_2__STRING.1,@object
	.size	.L_2__STRING.1,55
	.space 1, 0x00 	# pad
	.align 4
.L_2__STRING.47:
	.long	757099890
	.long	1714233458
	.long	7546144
	.type	.L_2__STRING.47,@object
	.size	.L_2__STRING.47,12
	.align 4
.L_2__STRING.48:
	.long	1113748851
	.long	1801678700
	.byte	0
	.type	.L_2__STRING.48,@object
	.size	.L_2__STRING.48,9
	.space 3, 0x00 	# pad
	.align 4
.L_2__STRING.49:
	.long	1668246626
	.word	107
	.type	.L_2__STRING.49,@object
	.size	.L_2__STRING.49,6
	.space 2, 0x00 	# pad
	.align 4
.L_2__STRING.50:
	.long	1768383858
	.word	28271
	.byte	0
	.type	.L_2__STRING.50,@object
	.size	.L_2__STRING.50,7
	.space 1, 0x00 	# pad
	.align 4
.L_2__STRING.51:
	.long	7170404
	.type	.L_2__STRING.51,@object
	.size	.L_2__STRING.51,4
	.align 4
.L_2__STRING.61:
	.long	1635020660
	.long	1835619436
	.long	540876901
	.long	680997
	.type	.L_2__STRING.61,@object
	.size	.L_2__STRING.61,16
	.align 4
.L_2__STRING.65:
	.long	7105633
	.type	.L_2__STRING.65,@object
	.size	.L_2__STRING.65,4
	.align 4
.L_2__STRING.66:
	.long	909586995
	.long	1881160504
	.long	1635150194
	.word	25972
	.byte	0
	.type	.L_2__STRING.66,@object
	.size	.L_2__STRING.66,15
	.space 1, 0x00 	# pad
	.align 4
.L_2__STRING.67:
	.long	825374258
	.long	540750900
	.long	1986622064
	.long	6648929
	.type	.L_2__STRING.67,@object
	.size	.L_2__STRING.67,16
	.align 4
.L_2__STRING.68:
	.long	825374258
	.long	808465460
	.long	1752375355
	.long	1684370017
	.byte	0
	.type	.L_2__STRING.68,@object
	.size	.L_2__STRING.68,17
	.space 3, 0x00 	# pad
	.align 4
.L_2__STRING.5:
	.long	1815048997
	.long	1815044713
	.long	1096376937
	.long	1932413779
	.word	111
	.type	.L_2__STRING.5,@object
	.size	.L_2__STRING.5,18
	.space 2, 0x00 	# pad
	.align 4
.L_2__STRING.27:
	.long	1263747417
	.long	1953066601
	.byte	0
	.type	.L_2__STRING.27,@object
	.size	.L_2__STRING.27,9
	.space 3, 0x00 	# pad
	.align 4
.L_2__STRING.29:
	.long	1263747417
	.long	1634625894
	.long	1702521196
	.byte	0
	.type	.L_2__STRING.29,@object
	.size	.L_2__STRING.29,13
	.space 3, 0x00 	# pad
	.align 4
.L_2__STRING.31:
	.long	1263747417
	.long	1852142707
	.long	7104867
	.type	.L_2__STRING.31,@object
	.size	.L_2__STRING.31,12
	.align 4
.L_2__STRING.33:
	.long	1263747417
	.long	1165256039
	.long	1920225388
	.byte	0
	.type	.L_2__STRING.33,@object
	.size	.L_2__STRING.33,13
	.space 3, 0x00 	# pad
	.align 4
.L_2__STRING.24:
	.long	875780891
	.long	1635343213
	.long	1767074675
	.long	542991732
	.long	1680164176
	.long	1179535648
	.long	1952522319
	.long	678634784
	.long	624697385
	.long	1680161395
	.long	1277180478
	.long	1768186223
	.long	622880622
	.long	811277171
	.word	109
	.type	.L_2__STRING.24,@object
	.size	.L_2__STRING.24,58
	.space 2, 0x00 	# pad
	.align 4
.L_2__STRING.19:
	.long	622882915
	.long	1768042355
	.long	1635331950
	.long	623799155
	.long	1931816563
	.long	1702389038
	.long	796075296
	.long	795765090
	.word	46
	.type	.L_2__STRING.19,@object
	.size	.L_2__STRING.19,34
	.space 2, 0x00 	# pad
	.align 4
.L_2__STRING.20:
	.long	1664054053
	.long	1952540018
	.long	1396791653
	.long	1651067979
	.long	543716142
	.long	622883621
	.long	1931812979
	.long	544417056
	.long	622883621
	.word	115
	.type	.L_2__STRING.20,@object
	.size	.L_2__STRING.20,38
	.space 2, 0x00 	# pad
	.align 4
.L_2__STRING.21:
	.long	1836017711
	.long	1885876069
	.long	1853173603
	.long	1966045810
	.long	813331054
	.long	795357744
	.long	1802723705
	.long	1935767855
	.long	1953059691
	.long	1920151397
	.long	1869885283
	.long	7564399
	.type	.L_2__STRING.21,@object
	.size	.L_2__STRING.21,48
	.align 4
.L_2__STRING.22:
	.long	1836017711
	.long	1885876069
	.long	1853173603
	.long	1966045810
	.long	813331054
	.long	795357744
	.long	1802723705
	.long	1935767855
	.long	1953059691
	.long	1920151397
	.word	99
	.type	.L_2__STRING.22,@object
	.size	.L_2__STRING.22,42
	.space 2, 0x00 	# pad
	.align 4
.L_2__STRING.23:
	.long	1836017711
	.long	1885876069
	.long	1853173603
	.long	1966045810
	.long	813331054
	.long	795357744
	.long	1802723705
	.long	1935767855
	.long	1953059691
	.long	1852387173
	.long	1685417059
	.word	101
	.type	.L_2__STRING.23,@object
	.size	.L_2__STRING.23,46
	.space 2, 0x00 	# pad
	.align 4
.L_2__STRING.2:
	.long	1684828006
	.byte	0
	.type	.L_2__STRING.2,@object
	.size	.L_2__STRING.2,5
	.space 3, 0x00 	# pad
	.align 4
.L_2__STRING.35:
	.long	1701536109
	.long	541273376
	.long	1663071013
	.long	1851876716
	.byte	0
	.type	.L_2__STRING.35,@object
	.size	.L_2__STRING.35,17
	.section .rodata.str1.32, "aMS",@progbits,1
	.align 32
.L_2__STRING.46:
	.long	825449243
	.long	1635343213
	.long	1767074675
	.long	542991732
	.long	1680164176
	.long	1381123360
	.long	1629508175
	.long	1931812980
	.long	1008740648
	.long	624587557
	.long	540687972
	.long	1852142675
	.long	543975779
	.long	1847620457
	.long	1730180207
	.long	1919250021
	.long	1684370529
	.long	1831885595
	.byte	0
	.type	.L_2__STRING.46,@object
	.size	.L_2__STRING.46,73
	.space 23, 0x00 	# pad
	.align 32
.L_2__STRING.0:
	.long	859003675
	.long	1635343213
	.long	1767074675
	.long	542991732
	.long	1680164176
	.long	1380013856
	.long	1196312910
	.long	544497952
	.long	690516773
	.long	1931820064
	.long	1046750522
	.long	1699881018
	.long	1953785203
	.long	543649385
	.long	2019521317
	.long	1869768224
	.long	1680154733
	.long	544175136
	.long	1931488305
	.long	1701015145
	.long	1835623456
	.long	622869792
	.long	811277156
	.word	109
	.type	.L_2__STRING.0,@object
	.size	.L_2__STRING.0,94
	.space 2, 0x00 	# pad
	.align 32
.L_2__STRING.4:
	.long	859003675
	.long	1635343213
	.long	1767074675
	.long	542991732
	.long	1680164176
	.long	1380013856
	.long	1196312910
	.long	544497952
	.long	690516773
	.long	1931820064
	.long	1046750522
	.long	1699881018
	.long	1953785203
	.long	543649385
	.long	2036298533
	.long	1869768224
	.long	1680154733
	.long	544175136
	.long	1931488305
	.long	1701015145
	.long	1835623456
	.long	622869792
	.long	811277156
	.word	109
	.type	.L_2__STRING.4,@object
	.size	.L_2__STRING.4,94
	.space 2, 0x00 	# pad
	.align 32
.L_2__STRING.55:
	.long	859003675
	.long	1635343213
	.long	1767074675
	.long	542991732
	.long	1680164176
	.long	1380013856
	.long	1196312910
	.long	544497952
	.long	690516773
	.long	1931820064
	.long	1046750522
	.long	1767317562
	.long	1847618668
	.long	1679848559
	.long	1851859055
	.long	1970544761
	.long	1735289198
	.long	1919903264
	.long	1835365408
	.long	1634889584
	.long	1818370156
	.long	1768645487
	.long	540764014
	.long	1633903970
	.long	543519605
	.long	1763734309
	.long	1869488243
	.long	543236212
	.long	1918986355
	.long	1663067237
	.long	1701340001
	.long	1831885595
	.byte	0
	.type	.L_2__STRING.55,@object
	.size	.L_2__STRING.55,129
	.space 31, 0x00 	# pad
	.align 32
.L_2__STRING.56:
	.long	859003675
	.long	1635343213
	.long	1767074675
	.long	542991732
	.long	1680164176
	.long	1380013856
	.long	1196312910
	.long	544497952
	.long	690516773
	.long	1931820064
	.long	1046750522
	.long	1700012090
	.long	1919905901
	.long	1646292065
	.long	1801678700
	.long	543649385
	.long	1751607661
	.long	1869488244
	.long	1700929652
	.long	1818585120
	.long	1819633264
	.long	1701605408
	.long	543519585
	.long	1763733348
	.long	1634541684
	.long	1818326382
	.long	1763735916
	.long	1701978214
	.long	1919513969
	.long	1528521829
	.word	27952
	.byte	0
	.type	.L_2__STRING.56,@object
	.size	.L_2__STRING.56,123
	.space 5, 0x00 	# pad
	.align 32
.L_2__STRING.57:
	.long	875780891
	.long	1635343213
	.long	1767074675
	.long	542991732
	.long	1680164176
	.long	1179535648
	.long	1952522319
	.long	678634784
	.long	624697385
	.long	1680161395
	.long	1176517182
	.long	1684960623
	.long	1953636410
	.long	543434045
	.long	624785522
	.long	2037522532
	.long	744760637
	.long	1031434784
	.long	1528521765
	.word	27952
	.byte	0
	.type	.L_2__STRING.57,@object
	.size	.L_2__STRING.57,79
	.space 17, 0x00 	# pad
	.align 32
.L_2__STRING.52:
	.long	875780891
	.long	1635343213
	.long	1767074675
	.long	542991732
	.long	1680164176
	.long	1179535648
	.long	1952522319
	.long	678634784
	.long	624697385
	.long	1680161395
	.long	1176517182
	.long	1684960623
	.long	2019696698
	.long	543434045
	.long	624785762
	.long	1646275684
	.long	1680162170
	.long	1831885595
	.byte	0
	.type	.L_2__STRING.52,@object
	.size	.L_2__STRING.52,73
	.space 23, 0x00 	# pad
	.align 32
.L_2__STRING.53:
	.long	875780891
	.long	1635343213
	.long	1767074675
	.long	542991732
	.long	1680164176
	.long	1179535648
	.long	1952522319
	.long	678634784
	.long	624697385
	.long	1680161395
	.long	1394620990
	.long	1769234800
	.long	1109421153
	.long	1801678700
	.long	543649385
	.long	544501614
	.long	1920098659
	.long	543450473
	.long	745829743
	.long	1835623456
	.long	1953064480
	.long	1852383347
	.long	1667326752
	.long	1528522088
	.word	27952
	.byte	0
	.type	.L_2__STRING.53,@object
	.size	.L_2__STRING.53,99
	.space 29, 0x00 	# pad
	.align 32
.L_2__STRING.54:
	.long	859003675
	.long	1635343213
	.long	1767074675
	.long	542991732
	.long	1680164176
	.long	1380013856
	.long	1196312910
	.long	544497952
	.long	690516773
	.long	1931820064
	.long	1046750522
	.long	1884495930
	.long	1634301025
	.long	1816273004
	.long	1768645487
	.long	1830840174
	.long	1952999273
	.long	1953459744
	.long	543515168
	.long	1886152040
	.long	996963686
	.long	1701605408
	.long	543519585
	.long	1668246626
	.long	1634541675
	.long	1818326382
	.long	1763735916
	.long	1701716070
	.long	1684366437
	.long	1831885595
	.byte	0
	.type	.L_2__STRING.54,@object
	.size	.L_2__STRING.54,121
	.space 7, 0x00 	# pad
	.align 32
.L_2__STRING.58:
	.long	622879843
	.long	640032883
	.long	1347243808
	.long	1297436255
	.long	1380471903
	.long	1396982085
	.long	543434045
	.long	795765090
	.long	1802723705
	.long	543716142
	.long	1702130477
	.long	1818846062
	.long	544417056
	.long	1668440365
	.long	1931812968
	.long	2019896608
	.long	1919967077
	.long	2020173413
	.long	1635002144
	.long	1702062963
	.long	1663901812
	.long	761537824
	.long	539452453
	.long	1869373997
	.long	1952410467
	.long	1634038376
	.long	622883684
	.long	1680679012
	.long	1680154740
	.long	2019831072
	.long	543434016
	.long	544826413
	.long	757097509
	.long	622885476
	.long	1647124580
	.long	1680154744
	.long	2036477216
	.long	543434016
	.long	544891437
	.long	757097509
	.long	544760435
	.long	757097509
	.long	544825971
	.long	757097509
	.long	544891507
	.long	639656997
	.long	1684217894
	.word	11552
	.byte	0
	.type	.L_2__STRING.58,@object
	.size	.L_2__STRING.58,191
	.space 1, 0x00 	# pad
	.align 32
.L_2__STRING.59:
	.long	875780891
	.long	1635343213
	.long	1767074675
	.long	542991732
	.long	1680164176
	.long	1179535648
	.long	1952522319
	.long	678634784
	.long	624697385
	.long	1680161395
	.long	1377843774
	.long	1768844917
	.long	622880622
	.long	540680307
	.long	1919448174
	.long	1935958373
	.long	744760637
	.long	1835623456
	.long	1031022397
	.long	2016175141
	.long	744760637
	.long	1680162169
	.long	624785964
	.long	1914709860
	.long	1869178725
	.long	1948728686
	.long	744760637
	.long	1680162168
	.long	624785708
	.long	1031416932
	.long	539452453
	.long	1668246626
	.long	2015837547
	.long	744760637
	.long	1680162169
	.long	624785964
	.long	1931487076
	.long	1816289909
	.long	1030447983
	.long	624785447
	.long	1031351396
	.long	2049729573
	.long	660874557
	.long	1831885595
	.byte	0
	.type	.L_2__STRING.59,@object
	.size	.L_2__STRING.59,177
	.space 15, 0x00 	# pad
	.align 32
.L_2__STRING.60:
	.long	825449243
	.long	1635343213
	.long	1767074675
	.long	542991732
	.long	1680164176
	.long	1381123360
	.long	1629508175
	.long	1931812980
	.long	1008740648
	.long	624587557
	.long	540687972
	.long	1330795077
	.long	1226848850
	.long	1702043764
	.long	544435557
	.long	544567161
	.long	1702257000
	.long	544483182
	.long	544499059
	.long	543516788
	.long	1701669220
	.long	1869181806
	.long	1528498798
	.word	27952
	.byte	0
	.type	.L_2__STRING.60,@object
	.size	.L_2__STRING.60,95
	.space 1, 0x00 	# pad
	.align 32
.L_2__STRING.62:
	.long	825449243
	.long	1635343213
	.long	1767074675
	.long	542991732
	.long	1680164176
	.long	1381123360
	.long	1629508175
	.long	1931812980
	.long	1008740648
	.long	624587557
	.long	540687972
	.long	543516756
	.long	1970365810
	.long	1702130533
	.long	1919361124
	.long	1025533033
	.long	544417056
	.long	1936027492
	.long	1953459744
	.long	1769497888
	.long	1528525939
	.word	27952
	.byte	0
	.type	.L_2__STRING.62,@object
	.size	.L_2__STRING.62,87
	.space 9, 0x00 	# pad
	.align 32
.L_2__STRING.63:
	.long	825449243
	.long	1635343213
	.long	1767074675
	.long	542991732
	.long	1680164176
	.long	1381123360
	.long	1629508175
	.long	1931812980
	.long	1008740648
	.long	624587557
	.long	540687972
	.long	661545283
	.long	1920213108
	.long	1718840929
	.long	1679848037
	.long	543257697
	.long	2004116834
	.long	544105829
	.long	1852142707
	.long	1936484707
	.long	1831885595
	.byte	0
	.type	.L_2__STRING.63,@object
	.size	.L_2__STRING.63,85
	.space 11, 0x00 	# pad
	.align 32
.L_2__STRING.64:
	.long	825449243
	.long	1635343213
	.long	1767074675
	.long	542991732
	.long	1680164176
	.long	1381123360
	.long	1629508175
	.long	1931812980
	.long	1008740648
	.long	624587557
	.long	540687972
	.long	543516756
	.long	1970365810
	.long	1702130533
	.long	1919361124
	.long	1025533033
	.long	544417056
	.long	1936027492
	.long	1953459744
	.long	1769497888
	.long	1763734643
	.long	1752440942
	.long	1953701989
	.long	1768124005
	.long	1869881452
	.long	543515168
	.long	1768976227
	.long	1713398885
	.long	460156786
	.long	7155803
	.type	.L_2__STRING.64,@object
	.size	.L_2__STRING.64,120
	.space 8, 0x00 	# pad
	.align 32
.L_2__STRING.26:
	.long	875780891
	.long	1635343213
	.long	1767074675
	.long	542991732
	.long	1680164176
	.long	1179535648
	.long	1952522319
	.long	678634784
	.long	624697385
	.long	1680161395
	.long	1394620990
	.long	1668179316
	.long	622881897
	.long	540680307
	.long	1853189990
	.long	1852383332
	.long	1667326752
	.long	1528522088
	.word	27952
	.byte	0
	.type	.L_2__STRING.26,@object
	.size	.L_2__STRING.26,75
	.space 21, 0x00 	# pad
	.align 32
.L_2__STRING.28:
	.long	825449243
	.long	1635343213
	.long	1767074675
	.long	542991732
	.long	1680164176
	.long	1381123360
	.long	1629508175
	.long	1931812980
	.long	1008740648
	.long	624587557
	.long	540687972
	.long	1869771333
	.long	1868767346
	.long	1852075125
	.long	1713402919
	.long	543452777
	.long	1651341683
	.long	1998613615
	.long	543716457
	.long	1701667182
	.long	1396791584
	.long	1768843595
	.long	811277172
	.word	109
	.type	.L_2__STRING.28,@object
	.size	.L_2__STRING.28,94
	.space 2, 0x00 	# pad
	.align 32
.L_2__STRING.30:
	.long	825449243
	.long	1635343213
	.long	1767074675
	.long	542991732
	.long	1680164176
	.long	1381123360
	.long	1629508175
	.long	1931812980
	.long	1008740648
	.long	624587557
	.long	540687972
	.long	1869771333
	.long	1868767346
	.long	1852075125
	.long	1713402919
	.long	543452777
	.long	1651341683
	.long	1998613615
	.long	543716457
	.long	1701667182
	.long	1396791584
	.long	1852401227
	.long	2053729377
	.long	811277157
	.word	109
	.type	.L_2__STRING.30,@object
	.size	.L_2__STRING.30,98
	.space 30, 0x00 	# pad
	.align 32
.L_2__STRING.32:
	.long	825449243
	.long	1635343213
	.long	1767074675
	.long	542991732
	.long	1680164176
	.long	1381123360
	.long	1629508175
	.long	1931812980
	.long	1008740648
	.long	624587557
	.long	540687972
	.long	1869771333
	.long	1868767346
	.long	1852075125
	.long	1713402919
	.long	543452777
	.long	1651341683
	.long	1998613615
	.long	543716457
	.long	1701667182
	.long	1396791584
	.long	1702130507
	.long	1818846062
	.long	1831885595
	.byte	0
	.type	.L_2__STRING.32,@object
	.size	.L_2__STRING.32,97
	.space 31, 0x00 	# pad
	.align 32
.L_2__STRING.34:
	.long	825449243
	.long	1635343213
	.long	1767074675
	.long	542991732
	.long	1680164176
	.long	1381123360
	.long	1629508175
	.long	1931812980
	.long	1008740648
	.long	624587557
	.long	540687972
	.long	1869771333
	.long	1868767346
	.long	1852075125
	.long	1713402919
	.long	543452777
	.long	1651341683
	.long	1998613615
	.long	543716457
	.long	1701667182
	.long	1396791584
	.long	1952802635
	.long	1951427653
	.long	811277170
	.word	109
	.type	.L_2__STRING.34,@object
	.size	.L_2__STRING.34,98
	.space 30, 0x00 	# pad
	.align 32
.L_2__STRING.6:
	.long	875780891
	.long	1635343213
	.long	1767074675
	.long	542991732
	.long	1680164176
	.long	1179535648
	.long	1952522319
	.long	678634784
	.long	624697385
	.long	1680161395
	.long	1109408318
	.long	1684826485
	.long	543649385
	.long	975205157
	.long	1702130464
	.long	1818846062
	.long	544417085
	.long	1751347809
	.long	544417085
	.long	1684828006
	.long	1031284541
	.long	2032952357
	.long	744760637
	.long	1680162170
	.long	1701978151
	.long	1650420833
	.long	1936028793
	.long	1881159741
	.long	1030255713
	.long	1528525605
	.word	27952
	.byte	0
	.type	.L_2__STRING.6,@object
	.size	.L_2__STRING.6,123
	.space 5, 0x00 	# pad
	.align 32
.L_2__STRING.16:
	.long	1701536109
	.long	541273376
	.long	1159754533
	.long	1095914584
	.long	1482179423
	.long	1195461702
	.long	1714240851
	.long	541280592
	.long	1852142707
	.long	1030515043
	.long	1629516581
	.long	1030251378
	.long	1713402661
	.long	1029991535
	.long	624785447
	.long	1031351396
	.long	2049729573
	.long	660874557
	.long	1634038304
	.long	2036490092
	.long	1030972788
	.long	1431511096
	.long	1279418178
	.long	1598767951
	.long	1347374924
	.long	1414877023
	.long	1298092613
	.long	1028867151
	.long	577971490
	.long	1802071072
	.long	1029990775
	.word	25637
	.byte	0
	.type	.L_2__STRING.16,@object
	.size	.L_2__STRING.16,127
	.space 1, 0x00 	# pad
	.align 32
.L_2__STRING.25:
	.long	825449243
	.long	1635343213
	.long	1767074675
	.long	542991732
	.long	1680164176
	.long	1381123360
	.long	1629508175
	.long	1931812980
	.long	1008740648
	.long	624587557
	.long	540687972
	.long	1819635523
	.long	1869488228
	.long	1886330996
	.long	1730178661
	.long	1919250021
	.long	1684370529
	.long	1651076128
	.long	2037539186
	.long	1917132846
	.long	980578162
	.long	175318304
	.long	1831885595
	.byte	0
	.type	.L_2__STRING.25,@object
	.size	.L_2__STRING.25,93
	.space 3, 0x00 	# pad
	.align 32
.L_2__STRING.36:
	.long	757099890
	.long	1931812966
	.long	2021155631
	.long	1634493997
	.long	623801191
	.long	1931816563
	.long	1954051118
	.long	796075296
	.long	1714250860
	.long	1936154988
	.long	779298094
	.long	1949201189
	.long	622883960
	.long	1634545523
	.long	1915577707
	.long	1919905893
	.long	1931816564
	.long	779298094
	.long	7633012
	.type	.L_2__STRING.36,@object
	.size	.L_2__STRING.36,76
	.section .ctors, "wa"
	.align 8
__init_0:
	.type	__init_0,@object
	.size	__init_0,8
	.quad	__sti__$E
	.data
# mark_proc_addr_taken __sti__$E;
	.section .note.GNU-stack, ""
	.weak DW.ref.__gxx_personality_v0
	.hidden DW.ref.__gxx_personality_v0
	.type	DW.ref.__gxx_personality_v0,@object
	.size	DW.ref.__gxx_personality_v0,8
// -- Begin DWARF2 SEGMENT .eh_frame
	.section .eh_frame,"a",@progbits
.eh_frame_seg:
	.align 1
// -- Begin DWARF2 SEGMENT .gnu.linkonce.d.DW.ref.__gxx_personality_v0
	.section .gnu.linkonce.d.DW.ref.__gxx_personality_v0,"a",@progbits
	.weak DW.ref.__gxx_personality_v0
	.align 1
.hidden DW.ref.__gxx_personality_v0
DW.ref.__gxx_personality_v0:
	.8byte __gxx_personality_v0
# End
